ARM GAS  C:\Users\aneta\AppData\Local\Temp\ccpNq59h.s 			page 1


   1              		.syntax unified
   2              		.cpu cortex-m3
   3              		.fpu softvfp
   4              		.eabi_attribute 20, 1
   5              		.eabi_attribute 21, 1
   6              		.eabi_attribute 23, 3
   7              		.eabi_attribute 24, 1
   8              		.eabi_attribute 25, 1
   9              		.eabi_attribute 26, 1
  10              		.eabi_attribute 30, 1
  11              		.eabi_attribute 34, 1
  12              		.eabi_attribute 18, 4
  13              		.thumb
  14              		.syntax unified
  15              		.file	"aneta.c"
  16              		.text
  17              	.Ltext0:
  18              		.cfi_sections	.debug_frame
  19              		.section	.text.aneta_w3a1,"ax",%progbits
  20              		.align	2
  21              		.global	aneta_w3a1
  22              		.thumb
  23              		.thumb_func
  24              		.type	aneta_w3a1, %function
  25              	aneta_w3a1:
  26              	.LFB85:
  27              		.file 1 "aneta.c"
   1:aneta.c       **** /* ========================================
   2:aneta.c       ****  *
   3:aneta.c       ****  * Copyright YOUR COMPANY, THE YEAR
   4:aneta.c       ****  * All Rights Reserved
   5:aneta.c       ****  * UNPUBLISHED, LICENSED SOFTWARE.
   6:aneta.c       ****  *
   7:aneta.c       ****  * CONFIDENTIAL AND PROPRIETARY INFORMATION
   8:aneta.c       ****  * WHICH IS THE PROPERTY OF your company.
   9:aneta.c       ****  *
  10:aneta.c       ****  * ========================================
  11:aneta.c       **** */
  12:aneta.c       **** 
  13:aneta.c       **** 
  14:aneta.c       **** #include <project.h>
  15:aneta.c       **** #include <stdio.h>
  16:aneta.c       **** #include "FreeRTOS.h"
  17:aneta.c       **** #include "task.h"
  18:aneta.c       **** #include "Motor.h"
  19:aneta.c       **** #include "Ultra.h"
  20:aneta.c       **** #include "Nunchuk.h"
  21:aneta.c       **** #include "Reflectance.h"
  22:aneta.c       **** #include "Gyro.h"
  23:aneta.c       **** #include "Accel_magnet.h"
  24:aneta.c       **** #include "LSM303D.h"
  25:aneta.c       **** #include "IR.h"
  26:aneta.c       **** #include "Beep.h"
  27:aneta.c       **** #include "mqtt_sender.h"
  28:aneta.c       **** #include <time.h>
  29:aneta.c       **** #include <sys/time.h>
  30:aneta.c       **** #include "serial1.h"
ARM GAS  C:\Users\aneta\AppData\Local\Temp\ccpNq59h.s 			page 2


  31:aneta.c       **** #include <unistd.h>
  32:aneta.c       **** #include "aneta.h"
  33:aneta.c       **** #include <stdlib.h>
  34:aneta.c       **** #include <stdint.h>
  35:aneta.c       **** 
  36:aneta.c       **** #define PRESSED 0
  37:aneta.c       **** #define RELEASED 1
  38:aneta.c       **** 
  39:aneta.c       **** //WEEK 3 ASSIGNMENT 1 *****************************************************************************
  40:aneta.c       **** void aneta_w3a1(void){
  28              		.loc 1 40 0
  29              		.cfi_startproc
  30              		@ Volatile: function does not return.
  31              		@ args = 0, pretend = 0, frame = 0
  32              		@ frame_needed = 0, uses_anonymous_args = 0
  33 0000 08B5     		push	{r3, lr}
  34              		.cfi_def_cfa_offset 8
  35              		.cfi_offset 3, -8
  36              		.cfi_offset 14, -4
  41:aneta.c       ****     
  42:aneta.c       ****     printf("ASSIGNMENT 1\n");
  37              		.loc 1 42 0
  38 0002 2148     		ldr	r0, .L4
  39 0004 FFF7FEFF 		bl	puts
  40              	.LVL0:
  43:aneta.c       ****     motor_start();
  41              		.loc 1 43 0
  42 0008 FFF7FEFF 		bl	motor_start
  43              	.LVL1:
  44:aneta.c       ****     
  45:aneta.c       ****     motor_forward(100,3350);
  44              		.loc 1 45 0
  45 000c 40F61651 		movw	r1, #3350
  46 0010 6420     		movs	r0, #100
  47 0012 FFF7FEFF 		bl	motor_forward
  48              	.LVL2:
  46:aneta.c       ****     motor_turn(255,0,205); 
  49              		.loc 1 46 0
  50 0016 CD22     		movs	r2, #205
  51 0018 0021     		movs	r1, #0
  52 001a FF20     		movs	r0, #255
  53 001c FFF7FEFF 		bl	motor_turn
  54              	.LVL3:
  47:aneta.c       ****     
  48:aneta.c       ****     motor_forward(100,2600);
  55              		.loc 1 48 0
  56 0020 40F62821 		movw	r1, #2600
  57 0024 6420     		movs	r0, #100
  58 0026 FFF7FEFF 		bl	motor_forward
  59              	.LVL4:
  49:aneta.c       ****     motor_turn(255,0,206);
  60              		.loc 1 49 0
  61 002a CE22     		movs	r2, #206
  62 002c 0021     		movs	r1, #0
  63 002e FF20     		movs	r0, #255
  64 0030 FFF7FEFF 		bl	motor_turn
  65              	.LVL5:
ARM GAS  C:\Users\aneta\AppData\Local\Temp\ccpNq59h.s 			page 3


  50:aneta.c       ****     
  51:aneta.c       ****     motor_forward(100,2710);
  66              		.loc 1 51 0
  67 0034 40F69621 		movw	r1, #2710
  68 0038 6420     		movs	r0, #100
  69 003a FFF7FEFF 		bl	motor_forward
  70              	.LVL6:
  52:aneta.c       ****     motor_turn(255,0,247);
  71              		.loc 1 52 0
  72 003e F722     		movs	r2, #247
  73 0040 0021     		movs	r1, #0
  74 0042 FF20     		movs	r0, #255
  75 0044 FFF7FEFF 		bl	motor_turn
  76              	.LVL7:
  53:aneta.c       ****     
  54:aneta.c       ****     motor_turn(255,230,700);
  77              		.loc 1 54 0
  78 0048 4FF42F72 		mov	r2, #700
  79 004c E621     		movs	r1, #230
  80 004e FF20     		movs	r0, #255
  81 0050 FFF7FEFF 		bl	motor_turn
  82              	.LVL8:
  55:aneta.c       ****     motor_turn(100,0,218);
  83              		.loc 1 55 0
  84 0054 DA22     		movs	r2, #218
  85 0056 0021     		movs	r1, #0
  86 0058 6420     		movs	r0, #100
  87 005a FFF7FEFF 		bl	motor_turn
  88              	.LVL9:
  56:aneta.c       ****     motor_forward(100,500);
  89              		.loc 1 56 0
  90 005e 4FF4FA71 		mov	r1, #500
  91 0062 6420     		movs	r0, #100
  92 0064 FFF7FEFF 		bl	motor_forward
  93              	.LVL10:
  57:aneta.c       ****     motor_turn(100,0,30);
  94              		.loc 1 57 0
  95 0068 1E22     		movs	r2, #30
  96 006a 0021     		movs	r1, #0
  97 006c 6420     		movs	r0, #100
  98 006e FFF7FEFF 		bl	motor_turn
  99              	.LVL11:
  58:aneta.c       ****     motor_forward(100,700);
 100              		.loc 1 58 0
 101 0072 4FF42F71 		mov	r1, #700
 102 0076 6420     		movs	r0, #100
 103 0078 FFF7FEFF 		bl	motor_forward
 104              	.LVL12:
  59:aneta.c       **** 
  60:aneta.c       ****     motor_stop();
 105              		.loc 1 60 0
 106 007c FFF7FEFF 		bl	motor_stop
 107              	.LVL13:
 108              	.L2:
  61:aneta.c       ****     
  62:aneta.c       ****     while(true)
  63:aneta.c       ****     {
ARM GAS  C:\Users\aneta\AppData\Local\Temp\ccpNq59h.s 			page 4


  64:aneta.c       ****         vTaskDelay(100);
 109              		.loc 1 64 0 discriminator 1
 110 0080 6420     		movs	r0, #100
 111 0082 FFF7FEFF 		bl	vTaskDelay
 112              	.LVL14:
 113 0086 FBE7     		b	.L2
 114              	.L5:
 115              		.align	2
 116              	.L4:
 117 0088 00000000 		.word	.LC0
 118              		.cfi_endproc
 119              	.LFE85:
 120              		.size	aneta_w3a1, .-aneta_w3a1
 121              		.section	.text.aneta_w3a2,"ax",%progbits
 122              		.align	2
 123              		.global	aneta_w3a2
 124              		.thumb
 125              		.thumb_func
 126              		.type	aneta_w3a2, %function
 127              	aneta_w3a2:
 128              	.LFB86:
  65:aneta.c       ****     }
  66:aneta.c       **** }
  67:aneta.c       **** 
  68:aneta.c       **** 
  69:aneta.c       **** //WEEK 3 ASSIGNMENT 2 *****************************************************************************
  70:aneta.c       **** void aneta_w3a2(void){
 129              		.loc 1 70 0
 130              		.cfi_startproc
 131              		@ args = 0, pretend = 0, frame = 0
 132              		@ frame_needed = 0, uses_anonymous_args = 0
 133 0000 10B5     		push	{r4, lr}
 134              		.cfi_def_cfa_offset 8
 135              		.cfi_offset 4, -8
 136              		.cfi_offset 14, -4
 137              	.LVL15:
  71:aneta.c       ****     int obsD;           // how far the obstacle is
  72:aneta.c       ****     int myD = 10;       // how far should obstacle be when robot should turn
  73:aneta.c       ****     bool move = true;   // if true robot keeps moving
  74:aneta.c       ****     
  75:aneta.c       ****     printf("ASSIGNMENT 2\n");
 138              		.loc 1 75 0
 139 0002 1448     		ldr	r0, .L13
 140 0004 FFF7FEFF 		bl	puts
 141              	.LVL16:
  76:aneta.c       ****     Ultra_Start();
 142              		.loc 1 76 0
 143 0008 FFF7FEFF 		bl	Ultra_Start
 144              	.LVL17:
  77:aneta.c       ****     motor_start();
 145              		.loc 1 77 0
 146 000c FFF7FEFF 		bl	motor_start
 147              	.LVL18:
  73:aneta.c       ****     
 148              		.loc 1 73 0
 149 0010 0124     		movs	r4, #1
  78:aneta.c       ****     
ARM GAS  C:\Users\aneta\AppData\Local\Temp\ccpNq59h.s 			page 5


  79:aneta.c       ****     while(move){
 150              		.loc 1 79 0
 151 0012 19E0     		b	.L7
 152              	.LVL19:
 153              	.L10:
  80:aneta.c       ****         motor_forward(50, 100);
 154              		.loc 1 80 0
 155 0014 6421     		movs	r1, #100
 156 0016 3220     		movs	r0, #50
 157 0018 FFF7FEFF 		bl	motor_forward
 158              	.LVL20:
  81:aneta.c       ****         obsD = Ultra_GetDistance();
 159              		.loc 1 81 0
 160 001c FFF7FEFF 		bl	Ultra_GetDistance
 161              	.LVL21:
  82:aneta.c       ****        
  83:aneta.c       ****         if(obsD < myD){
 162              		.loc 1 83 0
 163 0020 0928     		cmp	r0, #9
 164 0022 0DDC     		bgt	.L8
  84:aneta.c       ****             motor_forward(0,0);         
 165              		.loc 1 84 0
 166 0024 0021     		movs	r1, #0
 167 0026 0846     		mov	r0, r1
 168              	.LVL22:
 169 0028 FFF7FEFF 		bl	motor_forward
 170              	.LVL23:
  85:aneta.c       ****             motor_backward(50,100);
 171              		.loc 1 85 0
 172 002c 6421     		movs	r1, #100
 173 002e 3220     		movs	r0, #50
 174 0030 FFF7FEFF 		bl	motor_backward
 175              	.LVL24:
  86:aneta.c       ****             motor_turn(0,255,320);
 176              		.loc 1 86 0
 177 0034 4FF4A072 		mov	r2, #320
 178 0038 FF21     		movs	r1, #255
 179 003a 0020     		movs	r0, #0
 180 003c FFF7FEFF 		bl	motor_turn
 181              	.LVL25:
 182              	.L8:
  87:aneta.c       ****         }
  88:aneta.c       ****         
  89:aneta.c       ****         if(!SW1_Read()){        //robot stops moving when button is pressed
 183              		.loc 1 89 0
 184 0040 FFF7FEFF 		bl	SW1_Read
 185              	.LVL26:
 186 0044 00B9     		cbnz	r0, .L7
  90:aneta.c       ****             move = false;
 187              		.loc 1 90 0
 188 0046 0024     		movs	r4, #0
 189              	.LVL27:
 190              	.L7:
  79:aneta.c       ****         motor_forward(50, 100);
 191              		.loc 1 79 0
 192 0048 002C     		cmp	r4, #0
 193 004a E3D1     		bne	.L10
ARM GAS  C:\Users\aneta\AppData\Local\Temp\ccpNq59h.s 			page 6


  91:aneta.c       ****         }
  92:aneta.c       ****     
  93:aneta.c       ****     }
  94:aneta.c       **** 
  95:aneta.c       ****     motor_stop();
 194              		.loc 1 95 0
 195 004c FFF7FEFF 		bl	motor_stop
 196              	.LVL28:
 197 0050 10BD     		pop	{r4, pc}
 198              	.LVL29:
 199              	.L14:
 200 0052 00BF     		.align	2
 201              	.L13:
 202 0054 10000000 		.word	.LC1
 203              		.cfi_endproc
 204              	.LFE86:
 205              		.size	aneta_w3a2, .-aneta_w3a2
 206              		.section	.text.aneta_w4a1,"ax",%progbits
 207              		.align	2
 208              		.global	aneta_w4a1
 209              		.thumb
 210              		.thumb_func
 211              		.type	aneta_w4a1, %function
 212              	aneta_w4a1:
 213              	.LFB88:
  96:aneta.c       **** 
  97:aneta.c       **** }
  98:aneta.c       **** 
  99:aneta.c       **** 
 100:aneta.c       **** //WEEK 3 ASSIGNMENT 3 *****************************************************************************
 101:aneta.c       **** void aneta_w3a3(void){
 102:aneta.c       ****     int obsD;           // how far the obstacle is
 103:aneta.c       ****     int myD = 10;       // how far should obstacle be when robot should turn
 104:aneta.c       ****     int delay = 290;    // delay for motors; if delay is 290 and speed of motors is X, then robot t
 105:aneta.c       ****     int degreeTurn;     // how many degrees robot turns
 106:aneta.c       ****     bool move = true;   // if true robot keeps moving
 107:aneta.c       ****     bool turnRight;     // if true robot turns right, else turns left
 108:aneta.c       ****     
 109:aneta.c       ****     printf("ASSIGNMENT 3\n");
 110:aneta.c       ****     Ultra_Start();
 111:aneta.c       ****     motor_start();
 112:aneta.c       ****     
 113:aneta.c       ****     while(move){
 114:aneta.c       ****         motor_forward(50, 100);
 115:aneta.c       ****         obsD = Ultra_GetDistance();
 116:aneta.c       ****        
 117:aneta.c       ****         if(obsD < myD){
 118:aneta.c       ****             motor_forward(0,0);         
 119:aneta.c       ****             motor_backward(50,100);
 120:aneta.c       ****             turnRight = rand() % 2;
 121:aneta.c       ****             
 122:aneta.c       ****             degreeTurn = rand() % 181;  
 123:aneta.c       ****             
 124:aneta.c       ****             if (turnRight){
 125:aneta.c       ****                 printf("Right turn %d\n", (degreeTurn+90));
 126:aneta.c       ****                 aneta_tankTurnRight(90,delay);              //90 deg turn
 127:aneta.c       ****                 aneta_tankTurnRight(degreeTurn,delay);      //plus 0 to 180 turn
ARM GAS  C:\Users\aneta\AppData\Local\Temp\ccpNq59h.s 			page 7


 128:aneta.c       ****             } else {
 129:aneta.c       ****                 printf("Left turn %d\n", (degreeTurn+90));
 130:aneta.c       ****                 aneta_tankTurnLeft(90,delay);
 131:aneta.c       ****                 aneta_tankTurnLeft(degreeTurn,delay);
 132:aneta.c       ****             }
 133:aneta.c       ****             
 134:aneta.c       ****         }
 135:aneta.c       ****         
 136:aneta.c       ****         if(!SW1_Read()){
 137:aneta.c       ****              move = false;
 138:aneta.c       ****         }
 139:aneta.c       ****     
 140:aneta.c       ****     }
 141:aneta.c       **** 
 142:aneta.c       ****     motor_stop();
 143:aneta.c       **** 
 144:aneta.c       **** }
 145:aneta.c       **** 
 146:aneta.c       **** 
 147:aneta.c       **** //WEEK 4 ASSIGNMENT 1 *****************************************************************************
 148:aneta.c       **** void aneta_w4a1(void){
 214              		.loc 1 148 0
 215              		.cfi_startproc
 216              		@ args = 0, pretend = 0, frame = 0
 217              		@ frame_needed = 0, uses_anonymous_args = 0
 218 0000 10B5     		push	{r4, lr}
 219              		.cfi_def_cfa_offset 8
 220              		.cfi_offset 4, -8
 221              		.cfi_offset 14, -4
 222              	.LVL30:
 149:aneta.c       ****     bool wait=1;
 150:aneta.c       ****     
 151:aneta.c       ****     printf("ASSIGNMENT 1\n");
 223              		.loc 1 151 0
 224 0002 1348     		ldr	r0, .L20
 225 0004 FFF7FEFF 		bl	puts
 226              	.LVL31:
 152:aneta.c       ****     motor_start();
 227              		.loc 1 152 0
 228 0008 FFF7FEFF 		bl	motor_start
 229              	.LVL32:
 153:aneta.c       ****     IR_Start();
 230              		.loc 1 153 0
 231 000c FFF7FEFF 		bl	IR_Start
 232              	.LVL33:
 149:aneta.c       ****     bool wait=1;
 233              		.loc 1 149 0
 234 0010 0124     		movs	r4, #1
 154:aneta.c       ****     
 155:aneta.c       ****     while(wait)
 235              		.loc 1 155 0
 236 0012 0AE0     		b	.L17
 237              	.LVL34:
 238              	.L18:
 156:aneta.c       ****     {
 157:aneta.c       ****         vTaskDelay(100);
 239              		.loc 1 157 0
ARM GAS  C:\Users\aneta\AppData\Local\Temp\ccpNq59h.s 			page 8


 240 0014 6420     		movs	r0, #100
 241 0016 FFF7FEFF 		bl	vTaskDelay
 242              	.LVL35:
 158:aneta.c       ****         if (!SW1_Read()){               //if button is pressed
 243              		.loc 1 158 0
 244 001a FFF7FEFF 		bl	SW1_Read
 245              	.LVL36:
 246 001e 20B9     		cbnz	r0, .L17
 247              	.LVL37:
 159:aneta.c       ****             wait=0;                     //then end the loop
 160:aneta.c       ****             motor_forward(100,200);     // and move forward to the first line
 248              		.loc 1 160 0
 249 0020 C821     		movs	r1, #200
 250 0022 6420     		movs	r0, #100
 251 0024 FFF7FEFF 		bl	motor_forward
 252              	.LVL38:
 159:aneta.c       ****             wait=0;                     //then end the loop
 253              		.loc 1 159 0
 254 0028 0024     		movs	r4, #0
 255              	.LVL39:
 256              	.L17:
 155:aneta.c       ****     {
 257              		.loc 1 155 0
 258 002a 002C     		cmp	r4, #0
 259 002c F2D1     		bne	.L18
 161:aneta.c       ****         }
 162:aneta.c       ****     }
 163:aneta.c       ****     
 164:aneta.c       ****     motor_forward(0,0);                 //stop
 260              		.loc 1 164 0
 261 002e 0021     		movs	r1, #0
 262 0030 0846     		mov	r0, r1
 263 0032 FFF7FEFF 		bl	motor_forward
 264              	.LVL40:
 165:aneta.c       ****     IR_wait();                          //and wait for IR signal
 265              		.loc 1 165 0
 266 0036 FFF7FEFF 		bl	IR_wait
 267              	.LVL41:
 166:aneta.c       ****     
 167:aneta.c       ****     motor_forward(122,1000);            //then move to the last line
 268              		.loc 1 167 0
 269 003a 4FF47A71 		mov	r1, #1000
 270 003e 7A20     		movs	r0, #122
 271 0040 FFF7FEFF 		bl	motor_forward
 272              	.LVL42:
 168:aneta.c       ****     printf("My job is done \n");
 273              		.loc 1 168 0
 274 0044 0348     		ldr	r0, .L20+4
 275 0046 FFF7FEFF 		bl	puts
 276              	.LVL43:
 169:aneta.c       **** 
 170:aneta.c       ****     motor_stop();
 277              		.loc 1 170 0
 278 004a FFF7FEFF 		bl	motor_stop
 279              	.LVL44:
 280 004e 10BD     		pop	{r4, pc}
 281              	.LVL45:
ARM GAS  C:\Users\aneta\AppData\Local\Temp\ccpNq59h.s 			page 9


 282              	.L21:
 283              		.align	2
 284              	.L20:
 285 0050 00000000 		.word	.LC0
 286 0054 20000000 		.word	.LC2
 287              		.cfi_endproc
 288              	.LFE88:
 289              		.size	aneta_w4a1, .-aneta_w4a1
 290              		.section	.text.aneta_w4a2,"ax",%progbits
 291              		.align	2
 292              		.global	aneta_w4a2
 293              		.thumb
 294              		.thumb_func
 295              		.type	aneta_w4a2, %function
 296              	aneta_w4a2:
 297              	.LFB89:
 171:aneta.c       **** 
 172:aneta.c       **** }
 173:aneta.c       **** 
 174:aneta.c       **** //WEEK 4 ASSIGNMENT 2 *****************************************************************************
 175:aneta.c       **** void aneta_w4a2(void){
 298              		.loc 1 175 0
 299              		.cfi_startproc
 300              		@ args = 0, pretend = 0, frame = 0
 301              		@ frame_needed = 0, uses_anonymous_args = 0
 302 0000 10B5     		push	{r4, lr}
 303              		.cfi_def_cfa_offset 8
 304              		.cfi_offset 4, -8
 305              		.cfi_offset 14, -4
 306              	.LVL46:
 176:aneta.c       ****     bool wait=1;
 177:aneta.c       ****     
 178:aneta.c       ****     printf("ASSIGNMENT 2\n");
 307              		.loc 1 178 0
 308 0002 1E48     		ldr	r0, .L27
 309 0004 FFF7FEFF 		bl	puts
 310              	.LVL47:
 179:aneta.c       ****     motor_start();
 311              		.loc 1 179 0
 312 0008 FFF7FEFF 		bl	motor_start
 313              	.LVL48:
 180:aneta.c       ****     IR_Start();
 314              		.loc 1 180 0
 315 000c FFF7FEFF 		bl	IR_Start
 316              	.LVL49:
 176:aneta.c       ****     bool wait=1;
 317              		.loc 1 176 0
 318 0010 0124     		movs	r4, #1
 181:aneta.c       ****     
 182:aneta.c       ****     while(wait)
 319              		.loc 1 182 0
 320 0012 0AE0     		b	.L24
 321              	.LVL50:
 322              	.L25:
 183:aneta.c       ****     {
 184:aneta.c       ****         vTaskDelay(100);
 323              		.loc 1 184 0
ARM GAS  C:\Users\aneta\AppData\Local\Temp\ccpNq59h.s 			page 10


 324 0014 6420     		movs	r0, #100
 325 0016 FFF7FEFF 		bl	vTaskDelay
 326              	.LVL51:
 185:aneta.c       ****         if (!SW1_Read()){               //if button is pressed
 327              		.loc 1 185 0
 328 001a FFF7FEFF 		bl	SW1_Read
 329              	.LVL52:
 330 001e 20B9     		cbnz	r0, .L24
 331              	.LVL53:
 186:aneta.c       ****             wait=0;                     //then end the loop
 187:aneta.c       ****             motor_forward(100,180);     //and move forward to the first line
 332              		.loc 1 187 0
 333 0020 B421     		movs	r1, #180
 334 0022 6420     		movs	r0, #100
 335 0024 FFF7FEFF 		bl	motor_forward
 336              	.LVL54:
 186:aneta.c       ****             wait=0;                     //then end the loop
 337              		.loc 1 186 0
 338 0028 0024     		movs	r4, #0
 339              	.LVL55:
 340              	.L24:
 182:aneta.c       ****     {
 341              		.loc 1 182 0
 342 002a 002C     		cmp	r4, #0
 343 002c F2D1     		bne	.L25
 188:aneta.c       ****         }
 189:aneta.c       ****     }
 190:aneta.c       ****     
 191:aneta.c       ****     motor_forward(0,0);                 //stop
 344              		.loc 1 191 0
 345 002e 0021     		movs	r1, #0
 346 0030 0846     		mov	r0, r1
 347 0032 FFF7FEFF 		bl	motor_forward
 348              	.LVL56:
 192:aneta.c       ****     IR_wait();                          //and wait for IR signal
 349              		.loc 1 192 0
 350 0036 FFF7FEFF 		bl	IR_wait
 351              	.LVL57:
 193:aneta.c       ****                                         //then move to the last line
 194:aneta.c       ****     motor_forward(100,280); 
 352              		.loc 1 194 0
 353 003a 4FF48C71 		mov	r1, #280
 354 003e 6420     		movs	r0, #100
 355 0040 FFF7FEFF 		bl	motor_forward
 356              	.LVL58:
 195:aneta.c       ****     motor_turn(92,40,700);
 357              		.loc 1 195 0
 358 0044 4FF42F72 		mov	r2, #700
 359 0048 2821     		movs	r1, #40
 360 004a 5C20     		movs	r0, #92
 361 004c FFF7FEFF 		bl	motor_turn
 362              	.LVL59:
 196:aneta.c       ****     motor_forward(100,245); 
 363              		.loc 1 196 0
 364 0050 F521     		movs	r1, #245
 365 0052 6420     		movs	r0, #100
 366 0054 FFF7FEFF 		bl	motor_forward
ARM GAS  C:\Users\aneta\AppData\Local\Temp\ccpNq59h.s 			page 11


 367              	.LVL60:
 197:aneta.c       ****     motor_turn(36,100,1380);
 368              		.loc 1 197 0
 369 0058 40F26452 		movw	r2, #1380
 370 005c 6421     		movs	r1, #100
 371 005e 2420     		movs	r0, #36
 372 0060 FFF7FEFF 		bl	motor_turn
 373              	.LVL61:
 198:aneta.c       ****     motor_forward(100,288); 
 374              		.loc 1 198 0
 375 0064 4FF49071 		mov	r1, #288
 376 0068 6420     		movs	r0, #100
 377 006a FFF7FEFF 		bl	motor_forward
 378              	.LVL62:
 199:aneta.c       ****     
 200:aneta.c       ****     
 201:aneta.c       ****     printf("My job is done \n");
 379              		.loc 1 201 0
 380 006e 0448     		ldr	r0, .L27+4
 381 0070 FFF7FEFF 		bl	puts
 382              	.LVL63:
 202:aneta.c       **** 
 203:aneta.c       ****     motor_stop();
 383              		.loc 1 203 0
 384 0074 FFF7FEFF 		bl	motor_stop
 385              	.LVL64:
 386 0078 10BD     		pop	{r4, pc}
 387              	.LVL65:
 388              	.L28:
 389 007a 00BF     		.align	2
 390              	.L27:
 391 007c 10000000 		.word	.LC1
 392 0080 20000000 		.word	.LC2
 393              		.cfi_endproc
 394              	.LFE89:
 395              		.size	aneta_w4a2, .-aneta_w4a2
 396              		.section	.text.aneta_w4a3,"ax",%progbits
 397              		.align	2
 398              		.global	aneta_w4a3
 399              		.thumb
 400              		.thumb_func
 401              		.type	aneta_w4a3, %function
 402              	aneta_w4a3:
 403              	.LFB90:
 204:aneta.c       **** 
 205:aneta.c       **** }
 206:aneta.c       **** 
 207:aneta.c       **** //WEEK 4 ASSIGNMENT 3 *****************************************************************************
 208:aneta.c       **** void aneta_w4a3(void){
 404              		.loc 1 208 0
 405              		.cfi_startproc
 406              		@ args = 0, pretend = 0, frame = 0
 407              		@ frame_needed = 0, uses_anonymous_args = 0
 408 0000 08B5     		push	{r3, lr}
 409              		.cfi_def_cfa_offset 8
 410              		.cfi_offset 3, -8
 411              		.cfi_offset 14, -4
ARM GAS  C:\Users\aneta\AppData\Local\Temp\ccpNq59h.s 			page 12


 209:aneta.c       ****     
 210:aneta.c       ****     printf("ASSIGNMENT 3\n");
 412              		.loc 1 210 0
 413 0002 0448     		ldr	r0, .L31
 414 0004 FFF7FEFF 		bl	puts
 415              	.LVL66:
 211:aneta.c       ****     motor_start();
 416              		.loc 1 211 0
 417 0008 FFF7FEFF 		bl	motor_start
 418              	.LVL67:
 212:aneta.c       ****     
 213:aneta.c       **** 
 214:aneta.c       ****     motor_stop();
 419              		.loc 1 214 0
 420 000c FFF7FEFF 		bl	motor_stop
 421              	.LVL68:
 422 0010 08BD     		pop	{r3, pc}
 423              	.L32:
 424 0012 00BF     		.align	2
 425              	.L31:
 426 0014 30000000 		.word	.LC3
 427              		.cfi_endproc
 428              	.LFE90:
 429              		.size	aneta_w4a3, .-aneta_w4a3
 430              		.section	.text.aneta_w5a1,"ax",%progbits
 431              		.align	2
 432              		.global	aneta_w5a1
 433              		.thumb
 434              		.thumb_func
 435              		.type	aneta_w5a1, %function
 436              	aneta_w5a1:
 437              	.LFB91:
 215:aneta.c       **** 
 216:aneta.c       **** }
 217:aneta.c       **** 
 218:aneta.c       **** //WEEK 5 ASSIGNMENT 1 *****************************************************************************
 219:aneta.c       **** void aneta_w5a1(void){
 438              		.loc 1 219 0
 439              		.cfi_startproc
 440              		@ args = 0, pretend = 0, frame = 0
 441              		@ frame_needed = 0, uses_anonymous_args = 0
 442 0000 38B5     		push	{r3, r4, r5, lr}
 443              		.cfi_def_cfa_offset 16
 444              		.cfi_offset 3, -16
 445              		.cfi_offset 4, -12
 446              		.cfi_offset 5, -8
 447              		.cfi_offset 14, -4
 448              	.LVL69:
 220:aneta.c       ****     int btn1Time = 0; 
 221:aneta.c       ****     int btn2Time = 0;
 222:aneta.c       ****     int time;
 223:aneta.c       ****     
 224:aneta.c       ****     printf("ASSIGNMENT 1\n");
 449              		.loc 1 224 0
 450 0002 1548     		ldr	r0, .L42
 451 0004 FFF7FEFF 		bl	puts
 452              	.LVL70:
ARM GAS  C:\Users\aneta\AppData\Local\Temp\ccpNq59h.s 			page 13


 225:aneta.c       ****     motor_start();
 453              		.loc 1 225 0
 454 0008 FFF7FEFF 		bl	motor_start
 455              	.LVL71:
 226:aneta.c       ****     
 227:aneta.c       ****         while (SW1_Read()== RELEASED){      
 456              		.loc 1 227 0
 457 000c 02E0     		b	.L34
 458              	.L35:
 228:aneta.c       ****             vTaskDelay(0);
 459              		.loc 1 228 0
 460 000e 0020     		movs	r0, #0
 461 0010 FFF7FEFF 		bl	vTaskDelay
 462              	.LVL72:
 463              	.L34:
 227:aneta.c       ****             vTaskDelay(0);
 464              		.loc 1 227 0
 465 0014 FFF7FEFF 		bl	SW1_Read
 466              	.LVL73:
 467 0018 0128     		cmp	r0, #1
 468 001a F8D0     		beq	.L35
 229:aneta.c       ****         }
 230:aneta.c       ****         btn1Time = xTaskGetTickCount();         //when button is pressed for the first time
 469              		.loc 1 230 0
 470 001c FFF7FEFF 		bl	xTaskGetTickCount
 471              	.LVL74:
 472 0020 0546     		mov	r5, r0
 473              	.LVL75:
 474 0022 02E0     		b	.L36
 475              	.LVL76:
 476              	.L37:
 231:aneta.c       ****         
 232:aneta.c       ****         
 233:aneta.c       ****     while (true){    
 234:aneta.c       ****         
 235:aneta.c       ****         while (SW1_Read() == RELEASED){         //wait for the button to be pressed
 236:aneta.c       ****             vTaskDelay(0);
 477              		.loc 1 236 0
 478 0024 0020     		movs	r0, #0
 479 0026 FFF7FEFF 		bl	vTaskDelay
 480              	.LVL77:
 481              	.L36:
 235:aneta.c       ****             vTaskDelay(0);
 482              		.loc 1 235 0
 483 002a FFF7FEFF 		bl	SW1_Read
 484              	.LVL78:
 485 002e 0128     		cmp	r0, #1
 486 0030 F8D0     		beq	.L37
 237:aneta.c       ****         }
 238:aneta.c       ****         btn2Time = xTaskGetTickCount();         //get time of the press
 487              		.loc 1 238 0
 488 0032 FFF7FEFF 		bl	xTaskGetTickCount
 489              	.LVL79:
 490 0036 0446     		mov	r4, r0
 491              	.LVL80:
 239:aneta.c       ****         
 240:aneta.c       ****         while (SW1_Read() == PRESSED){          //wait for the button to be released
ARM GAS  C:\Users\aneta\AppData\Local\Temp\ccpNq59h.s 			page 14


 492              		.loc 1 240 0
 493 0038 02E0     		b	.L38
 494              	.LVL81:
 495              	.L39:
 241:aneta.c       ****             vTaskDelay(0);        
 496              		.loc 1 241 0
 497 003a 0020     		movs	r0, #0
 498 003c FFF7FEFF 		bl	vTaskDelay
 499              	.LVL82:
 500              	.L38:
 240:aneta.c       ****             vTaskDelay(0);        
 501              		.loc 1 240 0
 502 0040 FFF7FEFF 		bl	SW1_Read
 503              	.LVL83:
 504 0044 0028     		cmp	r0, #0
 505 0046 F8D0     		beq	.L39
 506              	.LVL84:
 242:aneta.c       ****         }
 243:aneta.c       ****         
 244:aneta.c       ****         time = btn2Time - btn1Time;             //find the time betweeen presses
 245:aneta.c       ****         print_mqtt("zumo6/button", "Time: %d ms\n", time );
 507              		.loc 1 245 0
 508 0048 621B     		subs	r2, r4, r5
 509              	.LVL85:
 510 004a 0449     		ldr	r1, .L42+4
 511 004c 0448     		ldr	r0, .L42+8
 512 004e FFF7FEFF 		bl	print_mqtt
 513              	.LVL86:
 246:aneta.c       ****         btn1Time = btn2Time;
 514              		.loc 1 246 0
 515 0052 2546     		mov	r5, r4
 516              	.LVL87:
 247:aneta.c       ****         
 248:aneta.c       ****     }
 517              		.loc 1 248 0
 518 0054 E9E7     		b	.L36
 519              	.L43:
 520 0056 00BF     		.align	2
 521              	.L42:
 522 0058 00000000 		.word	.LC0
 523 005c 40000000 		.word	.LC4
 524 0060 50000000 		.word	.LC5
 525              		.cfi_endproc
 526              	.LFE91:
 527              		.size	aneta_w5a1, .-aneta_w5a1
 528              		.section	.text.aneta_w5a3,"ax",%progbits
 529              		.align	2
 530              		.global	aneta_w5a3
 531              		.thumb
 532              		.thumb_func
 533              		.type	aneta_w5a3, %function
 534              	aneta_w5a3:
 535              	.LFB93:
 249:aneta.c       ****     motor_stop();
 250:aneta.c       **** 
 251:aneta.c       **** }
 252:aneta.c       **** 
ARM GAS  C:\Users\aneta\AppData\Local\Temp\ccpNq59h.s 			page 15


 253:aneta.c       **** //WEEK 5 ASSIGNMENT 2 *****************************************************************************
 254:aneta.c       **** void aneta_w5a2(void){
 255:aneta.c       ****     
 256:aneta.c       ****     int obsD;           // how far the obstacle is
 257:aneta.c       ****     int myD = 10;       // how far should obstacle be when robot should turn
 258:aneta.c       ****     int delay = 290;    // delay for motors; if delay is 290 and speed of motors is X, then robot t
 259:aneta.c       ****     int degreeTurn;     // how many degrees robot turns
 260:aneta.c       ****     bool move = true;   // if true robot keeps moving
 261:aneta.c       ****     bool turnRight;     // if true robot turns right, else turns left
 262:aneta.c       ****     
 263:aneta.c       ****     printf("ASSIGNMENT 2\n");
 264:aneta.c       ****     motor_start();
 265:aneta.c       ****     Ultra_Start();
 266:aneta.c       **** 
 267:aneta.c       ****     while(move){
 268:aneta.c       ****         motor_forward(50, 100);
 269:aneta.c       ****         obsD = Ultra_GetDistance();
 270:aneta.c       ****        
 271:aneta.c       ****         if(obsD < myD){
 272:aneta.c       ****             motor_forward(0,0);         
 273:aneta.c       ****             motor_backward(50,100);
 274:aneta.c       ****             turnRight = rand() % 2;  
 275:aneta.c       ****             
 276:aneta.c       ****             if (turnRight){
 277:aneta.c       ****                 print_mqtt("zumo6/turn", "Right turn\n" );
 278:aneta.c       ****                 aneta_tankTurnRight(90,delay);              //90 deg turn right
 279:aneta.c       ****             } else {
 280:aneta.c       ****                 print_mqtt("zumo6/turn", "Left turn\n" );
 281:aneta.c       ****                 aneta_tankTurnLeft(90,delay);               //90 deg turn left
 282:aneta.c       ****             }
 283:aneta.c       ****             
 284:aneta.c       ****         }
 285:aneta.c       ****         
 286:aneta.c       ****         if(!SW1_Read()){        //robot stops moving when the user button is pressed
 287:aneta.c       ****              move = false;
 288:aneta.c       ****         }
 289:aneta.c       ****     
 290:aneta.c       ****     }
 291:aneta.c       **** 
 292:aneta.c       **** 
 293:aneta.c       ****     motor_stop();
 294:aneta.c       **** 
 295:aneta.c       **** }
 296:aneta.c       **** 
 297:aneta.c       **** //WEEK 5 ASSIGNMENT 3 *****************************************************************************
 298:aneta.c       **** void aneta_w5a3(void){
 536              		.loc 1 298 0
 537              		.cfi_startproc
 538              		@ args = 0, pretend = 0, frame = 0
 539              		@ frame_needed = 0, uses_anonymous_args = 0
 540 0000 08B5     		push	{r3, lr}
 541              		.cfi_def_cfa_offset 8
 542              		.cfi_offset 3, -8
 543              		.cfi_offset 14, -4
 299:aneta.c       ****     
 300:aneta.c       ****     printf("ASSIGNMENT 3\n");
 544              		.loc 1 300 0
ARM GAS  C:\Users\aneta\AppData\Local\Temp\ccpNq59h.s 			page 16


 545 0002 0448     		ldr	r0, .L46
 546 0004 FFF7FEFF 		bl	puts
 547              	.LVL88:
 301:aneta.c       ****     motor_start();
 548              		.loc 1 301 0
 549 0008 FFF7FEFF 		bl	motor_start
 550              	.LVL89:
 302:aneta.c       ****     
 303:aneta.c       **** 
 304:aneta.c       ****     motor_stop();
 551              		.loc 1 304 0
 552 000c FFF7FEFF 		bl	motor_stop
 553              	.LVL90:
 554 0010 08BD     		pop	{r3, pc}
 555              	.L47:
 556 0012 00BF     		.align	2
 557              	.L46:
 558 0014 30000000 		.word	.LC3
 559              		.cfi_endproc
 560              	.LFE93:
 561              		.size	aneta_w5a3, .-aneta_w5a3
 562              		.section	.text.aneta_tankTurnRight,"ax",%progbits
 563              		.align	2
 564              		.global	aneta_tankTurnRight
 565              		.thumb
 566              		.thumb_func
 567              		.type	aneta_tankTurnRight, %function
 568              	aneta_tankTurnRight:
 569              	.LFB94:
 305:aneta.c       **** 
 306:aneta.c       **** }
 307:aneta.c       **** 
 308:aneta.c       **** 
 309:aneta.c       **** 
 310:aneta.c       **** 
 311:aneta.c       **** 
 312:aneta.c       **** //OTHER FUNCTIONS *********************************************************************************
 313:aneta.c       **** 
 314:aneta.c       **** void aneta_tankTurnRight(uint8_t speed, uint32_t delay){
 570              		.loc 1 314 0
 571              		.cfi_startproc
 572              		@ args = 0, pretend = 0, frame = 0
 573              		@ frame_needed = 0, uses_anonymous_args = 0
 574              	.LVL91:
 575 0000 00B5     		push	{lr}
 576              		.cfi_def_cfa_offset 4
 577              		.cfi_offset 14, -4
 578 0002 83B0     		sub	sp, sp, #12
 579              		.cfi_def_cfa_offset 16
 580 0004 0246     		mov	r2, r0
 315:aneta.c       ****     SetMotors(0, 1, speed, speed, delay);
 581              		.loc 1 315 0
 582 0006 0091     		str	r1, [sp]
 583 0008 0346     		mov	r3, r0
 584 000a 0121     		movs	r1, #1
 585              	.LVL92:
 586 000c 0020     		movs	r0, #0
ARM GAS  C:\Users\aneta\AppData\Local\Temp\ccpNq59h.s 			page 17


 587              	.LVL93:
 588 000e FFF7FEFF 		bl	SetMotors
 589              	.LVL94:
 316:aneta.c       **** }
 590              		.loc 1 316 0
 591 0012 03B0     		add	sp, sp, #12
 592              		.cfi_def_cfa_offset 4
 593              		@ sp needed
 594 0014 5DF804FB 		ldr	pc, [sp], #4
 595              		.cfi_endproc
 596              	.LFE94:
 597              		.size	aneta_tankTurnRight, .-aneta_tankTurnRight
 598              		.section	.text.aneta_tankTurnLeft,"ax",%progbits
 599              		.align	2
 600              		.global	aneta_tankTurnLeft
 601              		.thumb
 602              		.thumb_func
 603              		.type	aneta_tankTurnLeft, %function
 604              	aneta_tankTurnLeft:
 605              	.LFB95:
 317:aneta.c       **** 
 318:aneta.c       **** void aneta_tankTurnLeft(uint8_t speed, uint32_t delay){
 606              		.loc 1 318 0
 607              		.cfi_startproc
 608              		@ args = 0, pretend = 0, frame = 0
 609              		@ frame_needed = 0, uses_anonymous_args = 0
 610              	.LVL95:
 611 0000 00B5     		push	{lr}
 612              		.cfi_def_cfa_offset 4
 613              		.cfi_offset 14, -4
 614 0002 83B0     		sub	sp, sp, #12
 615              		.cfi_def_cfa_offset 16
 616 0004 0246     		mov	r2, r0
 319:aneta.c       ****     SetMotors(1, 0, speed, speed, delay);
 617              		.loc 1 319 0
 618 0006 0091     		str	r1, [sp]
 619 0008 0346     		mov	r3, r0
 620 000a 0021     		movs	r1, #0
 621              	.LVL96:
 622 000c 0120     		movs	r0, #1
 623              	.LVL97:
 624 000e FFF7FEFF 		bl	SetMotors
 625              	.LVL98:
 320:aneta.c       **** }
 626              		.loc 1 320 0
 627 0012 03B0     		add	sp, sp, #12
 628              		.cfi_def_cfa_offset 4
 629              		@ sp needed
 630 0014 5DF804FB 		ldr	pc, [sp], #4
 631              		.cfi_endproc
 632              	.LFE95:
 633              		.size	aneta_tankTurnLeft, .-aneta_tankTurnLeft
 634              		.section	.text.aneta_w3a3,"ax",%progbits
 635              		.align	2
 636              		.global	aneta_w3a3
 637              		.thumb
 638              		.thumb_func
ARM GAS  C:\Users\aneta\AppData\Local\Temp\ccpNq59h.s 			page 18


 639              		.type	aneta_w3a3, %function
 640              	aneta_w3a3:
 641              	.LFB87:
 101:aneta.c       ****     int obsD;           // how far the obstacle is
 642              		.loc 1 101 0
 643              		.cfi_startproc
 644              		@ args = 0, pretend = 0, frame = 0
 645              		@ frame_needed = 0, uses_anonymous_args = 0
 646 0000 70B5     		push	{r4, r5, r6, lr}
 647              		.cfi_def_cfa_offset 16
 648              		.cfi_offset 4, -16
 649              		.cfi_offset 5, -12
 650              		.cfi_offset 6, -8
 651              		.cfi_offset 14, -4
 652              	.LVL99:
 109:aneta.c       ****     Ultra_Start();
 653              		.loc 1 109 0
 654 0002 2B48     		ldr	r0, .L61
 655 0004 FFF7FEFF 		bl	puts
 656              	.LVL100:
 110:aneta.c       ****     motor_start();
 657              		.loc 1 110 0
 658 0008 FFF7FEFF 		bl	Ultra_Start
 659              	.LVL101:
 111:aneta.c       ****     
 660              		.loc 1 111 0
 661 000c FFF7FEFF 		bl	motor_start
 662              	.LVL102:
 106:aneta.c       ****     bool turnRight;     // if true robot turns right, else turns left
 663              		.loc 1 106 0
 664 0010 0126     		movs	r6, #1
 113:aneta.c       ****         motor_forward(50, 100);
 665              		.loc 1 113 0
 666 0012 47E0     		b	.L53
 667              	.LVL103:
 668              	.L58:
 114:aneta.c       ****         obsD = Ultra_GetDistance();
 669              		.loc 1 114 0
 670 0014 6421     		movs	r1, #100
 671 0016 3220     		movs	r0, #50
 672 0018 FFF7FEFF 		bl	motor_forward
 673              	.LVL104:
 115:aneta.c       ****        
 674              		.loc 1 115 0
 675 001c FFF7FEFF 		bl	Ultra_GetDistance
 676              	.LVL105:
 117:aneta.c       ****             motor_forward(0,0);         
 677              		.loc 1 117 0
 678 0020 0928     		cmp	r0, #9
 679 0022 3BDC     		bgt	.L54
 118:aneta.c       ****             motor_backward(50,100);
 680              		.loc 1 118 0
 681 0024 0021     		movs	r1, #0
 682 0026 0846     		mov	r0, r1
 683              	.LVL106:
 684 0028 FFF7FEFF 		bl	motor_forward
 685              	.LVL107:
ARM GAS  C:\Users\aneta\AppData\Local\Temp\ccpNq59h.s 			page 19


 119:aneta.c       ****             turnRight = rand() % 2;
 686              		.loc 1 119 0
 687 002c 6421     		movs	r1, #100
 688 002e 3220     		movs	r0, #50
 689 0030 FFF7FEFF 		bl	motor_backward
 690              	.LVL108:
 120:aneta.c       ****             
 691              		.loc 1 120 0
 692 0034 FFF7FEFF 		bl	rand
 693              	.LVL109:
 694 0038 1E4D     		ldr	r5, .L61+4
 695 003a 0540     		ands	r5, r0, r5
 696 003c 03D5     		bpl	.L55
 697 003e 013D     		subs	r5, r5, #1
 698 0040 65F00105 		orn	r5, r5, #1
 699 0044 0135     		adds	r5, r5, #1
 700              	.L55:
 701              	.LVL110:
 122:aneta.c       ****             
 702              		.loc 1 122 0
 703 0046 FFF7FEFF 		bl	rand
 704              	.LVL111:
 705 004a 1B4C     		ldr	r4, .L61+8
 706 004c 84FB0034 		smull	r3, r4, r4, r0
 707 0050 C317     		asrs	r3, r0, #31
 708 0052 C3EB6414 		rsb	r4, r3, r4, asr #5
 709 0056 B523     		movs	r3, #181
 710 0058 03FB1404 		mls	r4, r3, r4, r0
 711              	.LVL112:
 124:aneta.c       ****                 printf("Right turn %d\n", (degreeTurn+90));
 712              		.loc 1 124 0
 713 005c 7DB1     		cbz	r5, .L56
 125:aneta.c       ****                 aneta_tankTurnRight(90,delay);              //90 deg turn
 714              		.loc 1 125 0
 715 005e 04F15A01 		add	r1, r4, #90
 716 0062 1648     		ldr	r0, .L61+12
 717 0064 FFF7FEFF 		bl	printf
 718              	.LVL113:
 126:aneta.c       ****                 aneta_tankTurnRight(degreeTurn,delay);      //plus 0 to 180 turn
 719              		.loc 1 126 0
 720 0068 4FF49171 		mov	r1, #290
 721 006c 5A20     		movs	r0, #90
 722 006e FFF7FEFF 		bl	aneta_tankTurnRight
 723              	.LVL114:
 127:aneta.c       ****             } else {
 724              		.loc 1 127 0
 725 0072 4FF49171 		mov	r1, #290
 726 0076 E0B2     		uxtb	r0, r4
 727 0078 FFF7FEFF 		bl	aneta_tankTurnRight
 728              	.LVL115:
 729 007c 0EE0     		b	.L54
 730              	.L56:
 129:aneta.c       ****                 aneta_tankTurnLeft(90,delay);
 731              		.loc 1 129 0
 732 007e 04F15A01 		add	r1, r4, #90
 733 0082 0F48     		ldr	r0, .L61+16
 734 0084 FFF7FEFF 		bl	printf
ARM GAS  C:\Users\aneta\AppData\Local\Temp\ccpNq59h.s 			page 20


 735              	.LVL116:
 130:aneta.c       ****                 aneta_tankTurnLeft(degreeTurn,delay);
 736              		.loc 1 130 0
 737 0088 4FF49171 		mov	r1, #290
 738 008c 5A20     		movs	r0, #90
 739 008e FFF7FEFF 		bl	aneta_tankTurnLeft
 740              	.LVL117:
 131:aneta.c       ****             }
 741              		.loc 1 131 0
 742 0092 4FF49171 		mov	r1, #290
 743 0096 E0B2     		uxtb	r0, r4
 744 0098 FFF7FEFF 		bl	aneta_tankTurnLeft
 745              	.LVL118:
 746              	.L54:
 136:aneta.c       ****              move = false;
 747              		.loc 1 136 0
 748 009c FFF7FEFF 		bl	SW1_Read
 749              	.LVL119:
 750 00a0 00B9     		cbnz	r0, .L53
 137:aneta.c       ****         }
 751              		.loc 1 137 0
 752 00a2 0026     		movs	r6, #0
 753              	.LVL120:
 754              	.L53:
 113:aneta.c       ****         motor_forward(50, 100);
 755              		.loc 1 113 0
 756 00a4 002E     		cmp	r6, #0
 757 00a6 B5D1     		bne	.L58
 142:aneta.c       **** 
 758              		.loc 1 142 0
 759 00a8 FFF7FEFF 		bl	motor_stop
 760              	.LVL121:
 761 00ac 70BD     		pop	{r4, r5, r6, pc}
 762              	.LVL122:
 763              	.L62:
 764 00ae 00BF     		.align	2
 765              	.L61:
 766 00b0 30000000 		.word	.LC3
 767 00b4 01000080 		.word	-2147483647
 768 00b8 A379422D 		.word	759331235
 769 00bc 60000000 		.word	.LC6
 770 00c0 70000000 		.word	.LC7
 771              		.cfi_endproc
 772              	.LFE87:
 773              		.size	aneta_w3a3, .-aneta_w3a3
 774              		.section	.text.aneta_w5a2,"ax",%progbits
 775              		.align	2
 776              		.global	aneta_w5a2
 777              		.thumb
 778              		.thumb_func
 779              		.type	aneta_w5a2, %function
 780              	aneta_w5a2:
 781              	.LFB92:
 254:aneta.c       ****     
 782              		.loc 1 254 0
 783              		.cfi_startproc
 784              		@ args = 0, pretend = 0, frame = 0
ARM GAS  C:\Users\aneta\AppData\Local\Temp\ccpNq59h.s 			page 21


 785              		@ frame_needed = 0, uses_anonymous_args = 0
 786 0000 10B5     		push	{r4, lr}
 787              		.cfi_def_cfa_offset 8
 788              		.cfi_offset 4, -8
 789              		.cfi_offset 14, -4
 790              	.LVL123:
 263:aneta.c       ****     motor_start();
 791              		.loc 1 263 0
 792 0002 1F48     		ldr	r0, .L72
 793 0004 FFF7FEFF 		bl	puts
 794              	.LVL124:
 264:aneta.c       ****     Ultra_Start();
 795              		.loc 1 264 0
 796 0008 FFF7FEFF 		bl	motor_start
 797              	.LVL125:
 265:aneta.c       **** 
 798              		.loc 1 265 0
 799 000c FFF7FEFF 		bl	Ultra_Start
 800              	.LVL126:
 260:aneta.c       ****     bool turnRight;     // if true robot turns right, else turns left
 801              		.loc 1 260 0
 802 0010 0124     		movs	r4, #1
 267:aneta.c       ****         motor_forward(50, 100);
 803              		.loc 1 267 0
 804 0012 30E0     		b	.L64
 805              	.LVL127:
 806              	.L69:
 268:aneta.c       ****         obsD = Ultra_GetDistance();
 807              		.loc 1 268 0
 808 0014 6421     		movs	r1, #100
 809 0016 3220     		movs	r0, #50
 810 0018 FFF7FEFF 		bl	motor_forward
 811              	.LVL128:
 269:aneta.c       ****        
 812              		.loc 1 269 0
 813 001c FFF7FEFF 		bl	Ultra_GetDistance
 814              	.LVL129:
 271:aneta.c       ****             motor_forward(0,0);         
 815              		.loc 1 271 0
 816 0020 0928     		cmp	r0, #9
 817 0022 24DC     		bgt	.L65
 272:aneta.c       ****             motor_backward(50,100);
 818              		.loc 1 272 0
 819 0024 0021     		movs	r1, #0
 820 0026 0846     		mov	r0, r1
 821              	.LVL130:
 822 0028 FFF7FEFF 		bl	motor_forward
 823              	.LVL131:
 273:aneta.c       ****             turnRight = rand() % 2;  
 824              		.loc 1 273 0
 825 002c 6421     		movs	r1, #100
 826 002e 3220     		movs	r0, #50
 827 0030 FFF7FEFF 		bl	motor_backward
 828              	.LVL132:
 274:aneta.c       ****             
 829              		.loc 1 274 0
 830 0034 FFF7FEFF 		bl	rand
ARM GAS  C:\Users\aneta\AppData\Local\Temp\ccpNq59h.s 			page 22


 831              	.LVL133:
 832 0038 124B     		ldr	r3, .L72+4
 833 003a 1840     		ands	r0, r0, r3
 834 003c 03D5     		bpl	.L66
 835 003e 0138     		subs	r0, r0, #1
 836 0040 60F00100 		orn	r0, r0, #1
 837 0044 0130     		adds	r0, r0, #1
 838              	.L66:
 839              	.LVL134:
 276:aneta.c       ****                 print_mqtt("zumo6/turn", "Right turn\n" );
 840              		.loc 1 276 0
 841 0046 48B1     		cbz	r0, .L67
 277:aneta.c       ****                 aneta_tankTurnRight(90,delay);              //90 deg turn right
 842              		.loc 1 277 0
 843 0048 0F49     		ldr	r1, .L72+8
 844 004a 1048     		ldr	r0, .L72+12
 845              	.LVL135:
 846 004c FFF7FEFF 		bl	print_mqtt
 847              	.LVL136:
 278:aneta.c       ****             } else {
 848              		.loc 1 278 0
 849 0050 4FF49171 		mov	r1, #290
 850 0054 5A20     		movs	r0, #90
 851 0056 FFF7FEFF 		bl	aneta_tankTurnRight
 852              	.LVL137:
 853 005a 08E0     		b	.L65
 854              	.LVL138:
 855              	.L67:
 280:aneta.c       ****                 aneta_tankTurnLeft(90,delay);               //90 deg turn left
 856              		.loc 1 280 0
 857 005c 0C49     		ldr	r1, .L72+16
 858 005e 0B48     		ldr	r0, .L72+12
 859              	.LVL139:
 860 0060 FFF7FEFF 		bl	print_mqtt
 861              	.LVL140:
 281:aneta.c       ****             }
 862              		.loc 1 281 0
 863 0064 4FF49171 		mov	r1, #290
 864 0068 5A20     		movs	r0, #90
 865 006a FFF7FEFF 		bl	aneta_tankTurnLeft
 866              	.LVL141:
 867              	.L65:
 286:aneta.c       ****              move = false;
 868              		.loc 1 286 0
 869 006e FFF7FEFF 		bl	SW1_Read
 870              	.LVL142:
 871 0072 00B9     		cbnz	r0, .L64
 287:aneta.c       ****         }
 872              		.loc 1 287 0
 873 0074 0024     		movs	r4, #0
 874              	.LVL143:
 875              	.L64:
 267:aneta.c       ****         motor_forward(50, 100);
 876              		.loc 1 267 0
 877 0076 002C     		cmp	r4, #0
 878 0078 CCD1     		bne	.L69
 293:aneta.c       **** 
ARM GAS  C:\Users\aneta\AppData\Local\Temp\ccpNq59h.s 			page 23


 879              		.loc 1 293 0
 880 007a FFF7FEFF 		bl	motor_stop
 881              	.LVL144:
 882 007e 10BD     		pop	{r4, pc}
 883              	.LVL145:
 884              	.L73:
 885              		.align	2
 886              	.L72:
 887 0080 10000000 		.word	.LC1
 888 0084 01000080 		.word	-2147483647
 889 0088 80000000 		.word	.LC8
 890 008c 8C000000 		.word	.LC9
 891 0090 98000000 		.word	.LC10
 892              		.cfi_endproc
 893              	.LFE92:
 894              		.size	aneta_w5a2, .-aneta_w5a2
 895              		.section	.rodata.str1.4,"aMS",%progbits,1
 896              		.align	2
 897              	.LC0:
 898 0000 41535349 		.ascii	"ASSIGNMENT 1\000"
 898      474E4D45 
 898      4E542031 
 898      00
 899 000d 000000   		.space	3
 900              	.LC1:
 901 0010 41535349 		.ascii	"ASSIGNMENT 2\000"
 901      474E4D45 
 901      4E542032 
 901      00
 902 001d 000000   		.space	3
 903              	.LC2:
 904 0020 4D79206A 		.ascii	"My job is done \000"
 904      6F622069 
 904      7320646F 
 904      6E652000 
 905              	.LC3:
 906 0030 41535349 		.ascii	"ASSIGNMENT 3\000"
 906      474E4D45 
 906      4E542033 
 906      00
 907 003d 000000   		.space	3
 908              	.LC4:
 909 0040 54696D65 		.ascii	"Time: %d ms\012\000"
 909      3A202564 
 909      206D730A 
 909      00
 910 004d 000000   		.space	3
 911              	.LC5:
 912 0050 7A756D6F 		.ascii	"zumo6/button\000"
 912      362F6275 
 912      74746F6E 
 912      00
 913 005d 000000   		.space	3
 914              	.LC6:
 915 0060 52696768 		.ascii	"Right turn %d\012\000"
 915      74207475 
 915      726E2025 
ARM GAS  C:\Users\aneta\AppData\Local\Temp\ccpNq59h.s 			page 24


 915      640A00
 916 006f 00       		.space	1
 917              	.LC7:
 918 0070 4C656674 		.ascii	"Left turn %d\012\000"
 918      20747572 
 918      6E202564 
 918      0A00
 919 007e 0000     		.space	2
 920              	.LC8:
 921 0080 52696768 		.ascii	"Right turn\012\000"
 921      74207475 
 921      726E0A00 
 922              	.LC9:
 923 008c 7A756D6F 		.ascii	"zumo6/turn\000"
 923      362F7475 
 923      726E00
 924 0097 00       		.space	1
 925              	.LC10:
 926 0098 4C656674 		.ascii	"Left turn\012\000"
 926      20747572 
 926      6E0A00
 927              		.text
 928              	.Letext0:
 929              		.file 2 "d:\\program files\\psoc creator\\4.2\\psoc creator\\import\\gnu\\arm\\5.4.1\\arm-none-eab
 930              		.file 3 "d:\\program files\\psoc creator\\4.2\\psoc creator\\import\\gnu\\arm\\5.4.1\\arm-none-eab
 931              		.file 4 ".\\ZumoLibrary/Motor.h"
 932              		.file 5 "..\\FreeRTOS\\Source\\include/task.h"
 933              		.file 6 ".\\ZumoLibrary/Ultra.h"
 934              		.file 7 "Generated_Source\\PSoC5/SW1.h"
 935              		.file 8 ".\\ZumoLibrary/IR.h"
 936              		.file 9 ".\\ZumoLibrary/mqtt_sender.h"
 937              		.file 10 "d:\\program files\\psoc creator\\4.2\\psoc creator\\import\\gnu\\arm\\5.4.1\\arm-none-ea
 938              		.file 11 "d:\\program files\\psoc creator\\4.2\\psoc creator\\import\\gnu\\arm\\5.4.1\\arm-none-ea
 939              		.file 12 "Generated_Source\\PSoC5/core_cm3.h"
 940              		.file 13 "<built-in>"