ARM GAS  C:\Users\EVGENY~1\AppData\Local\Temp\ccojex88.s 			page 1


   1              		.syntax unified
   2              		.cpu cortex-m3
   3              		.fpu softvfp
   4              		.eabi_attribute 20, 1
   5              		.eabi_attribute 21, 1
   6              		.eabi_attribute 23, 3
   7              		.eabi_attribute 24, 1
   8              		.eabi_attribute 25, 1
   9              		.eabi_attribute 26, 1
  10              		.eabi_attribute 30, 1
  11              		.eabi_attribute 34, 1
  12              		.eabi_attribute 18, 4
  13              		.thumb
  14              		.syntax unified
  15              		.file	"custom.c"
  16              		.text
  17              	.Ltext0:
  18              		.cfi_sections	.debug_frame
  19              		.section	.text.progEnd,"ax",%progbits
  20              		.align	2
  21              		.global	progEnd
  22              		.thumb
  23              		.thumb_func
  24              		.type	progEnd, %function
  25              	progEnd:
  26              	.LFB85:
  27              		.file 1 "custom.c"
   1:custom.c      **** /* ========================================
   2:custom.c      ****  *
   3:custom.c      ****  * Copyright YOUR COMPANY, THE YEAR
   4:custom.c      ****  * All Rights Reserved
   5:custom.c      ****  * UNPUBLISHED, LICENSED SOFTWARE.
   6:custom.c      ****  *
   7:custom.c      ****  * CONFIDENTIAL AND PROPRIETARY INFORMATION
   8:custom.c      ****  * WHICH IS THE PROPERTY OF your company.
   9:custom.c      ****  *
  10:custom.c      ****  * ========================================
  11:custom.c      **** */
  12:custom.c      **** 
  13:custom.c      **** 
  14:custom.c      **** #include <project.h>
  15:custom.c      **** #include <stdio.h>
  16:custom.c      **** #include "FreeRTOS.h"
  17:custom.c      **** #include "task.h"
  18:custom.c      **** #include "Motor.h"
  19:custom.c      **** #include "Ultra.h"
  20:custom.c      **** #include "Nunchuk.h"
  21:custom.c      **** #include "Reflectance.h"
  22:custom.c      **** #include "Gyro.h"
  23:custom.c      **** #include "Accel_magnet.h"
  24:custom.c      **** #include "LSM303D.h"
  25:custom.c      **** #include "IR.h"
  26:custom.c      **** #include "Beep.h"
  27:custom.c      **** #include "mqtt_sender.h"
  28:custom.c      **** #include <time.h>
  29:custom.c      **** #include <sys/time.h>
  30:custom.c      **** #include "serial1.h"
ARM GAS  C:\Users\EVGENY~1\AppData\Local\Temp\ccojex88.s 			page 2


  31:custom.c      **** #include <unistd.h>
  32:custom.c      **** 
  33:custom.c      **** 
  34:custom.c      **** 
  35:custom.c      **** void progEnd(uint32_t delay) {
  28              		.loc 1 35 0
  29              		.cfi_startproc
  30              		@ args = 0, pretend = 0, frame = 0
  31              		@ frame_needed = 0, uses_anonymous_args = 0
  32              	.LVL0:
  33 0000 38B5     		push	{r3, r4, r5, lr}
  34              		.cfi_def_cfa_offset 16
  35              		.cfi_offset 3, -16
  36              		.cfi_offset 4, -12
  37              		.cfi_offset 5, -8
  38              		.cfi_offset 14, -4
  39 0002 0546     		mov	r5, r0
  40              	.LVL1:
  36:custom.c      ****     bool led = false;
  41              		.loc 1 36 0
  42 0004 0024     		movs	r4, #0
  43              	.LVL2:
  44              	.L2:
  37:custom.c      ****     while(true){
  38:custom.c      ****      BatteryLed_Write(led^=1);
  45              		.loc 1 38 0 discriminator 1
  46 0006 84F00104 		eor	r4, r4, #1
  47              	.LVL3:
  48 000a 2046     		mov	r0, r4
  49 000c FFF7FEFF 		bl	BatteryLed_Write
  50              	.LVL4:
  39:custom.c      ****      vTaskDelay(delay);   
  51              		.loc 1 39 0 discriminator 1
  52 0010 2846     		mov	r0, r5
  53 0012 FFF7FEFF 		bl	vTaskDelay
  54              	.LVL5:
  55 0016 F6E7     		b	.L2
  56              		.cfi_endproc
  57              	.LFE85:
  58              		.size	progEnd, .-progEnd
  59              		.section	.text.tankTL,"ax",%progbits
  60              		.align	2
  61              		.global	tankTL
  62              		.thumb
  63              		.thumb_func
  64              		.type	tankTL, %function
  65              	tankTL:
  66              	.LFB86:
  40:custom.c      ****     }
  41:custom.c      **** }
  42:custom.c      **** void tankTL(uint8_t speed, uint32_t delay) {
  67              		.loc 1 42 0
  68              		.cfi_startproc
  69              		@ args = 0, pretend = 0, frame = 0
  70              		@ frame_needed = 0, uses_anonymous_args = 0
  71              	.LVL6:
  72 0000 00B5     		push	{lr}
ARM GAS  C:\Users\EVGENY~1\AppData\Local\Temp\ccojex88.s 			page 3


  73              		.cfi_def_cfa_offset 4
  74              		.cfi_offset 14, -4
  75 0002 83B0     		sub	sp, sp, #12
  76              		.cfi_def_cfa_offset 16
  77 0004 0246     		mov	r2, r0
  43:custom.c      ****     SetMotors(1, 0, speed, speed, delay);
  78              		.loc 1 43 0
  79 0006 0091     		str	r1, [sp]
  80 0008 0346     		mov	r3, r0
  81 000a 0021     		movs	r1, #0
  82              	.LVL7:
  83 000c 0120     		movs	r0, #1
  84              	.LVL8:
  85 000e FFF7FEFF 		bl	SetMotors
  86              	.LVL9:
  44:custom.c      **** }
  87              		.loc 1 44 0
  88 0012 03B0     		add	sp, sp, #12
  89              		.cfi_def_cfa_offset 4
  90              		@ sp needed
  91 0014 5DF804FB 		ldr	pc, [sp], #4
  92              		.cfi_endproc
  93              	.LFE86:
  94              		.size	tankTL, .-tankTL
  95              		.section	.text.tankTR,"ax",%progbits
  96              		.align	2
  97              		.global	tankTR
  98              		.thumb
  99              		.thumb_func
 100              		.type	tankTR, %function
 101              	tankTR:
 102              	.LFB87:
  45:custom.c      **** 
  46:custom.c      **** void tankTR(uint8_t speed, uint32_t delay) {
 103              		.loc 1 46 0
 104              		.cfi_startproc
 105              		@ args = 0, pretend = 0, frame = 0
 106              		@ frame_needed = 0, uses_anonymous_args = 0
 107              	.LVL10:
 108 0000 00B5     		push	{lr}
 109              		.cfi_def_cfa_offset 4
 110              		.cfi_offset 14, -4
 111 0002 83B0     		sub	sp, sp, #12
 112              		.cfi_def_cfa_offset 16
 113 0004 0246     		mov	r2, r0
  47:custom.c      ****     SetMotors(0, 1, speed, speed, delay);
 114              		.loc 1 47 0
 115 0006 0091     		str	r1, [sp]
 116 0008 0346     		mov	r3, r0
 117 000a 0121     		movs	r1, #1
 118              	.LVL11:
 119 000c 0020     		movs	r0, #0
 120              	.LVL12:
 121 000e FFF7FEFF 		bl	SetMotors
 122              	.LVL13:
  48:custom.c      **** }
 123              		.loc 1 48 0
ARM GAS  C:\Users\EVGENY~1\AppData\Local\Temp\ccojex88.s 			page 4


 124 0012 03B0     		add	sp, sp, #12
 125              		.cfi_def_cfa_offset 4
 126              		@ sp needed
 127 0014 5DF804FB 		ldr	pc, [sp], #4
 128              		.cfi_endproc
 129              	.LFE87:
 130              		.size	tankTR, .-tankTR
 131              		.text
 132              	.Letext0:
 133              		.file 2 "c:\\program files (x86)\\cypress\\psoc creator\\4.2\\psoc creator\\import\\gnu\\arm\\5.4.
 134              		.file 3 "c:\\program files (x86)\\cypress\\psoc creator\\4.2\\psoc creator\\import\\gnu\\arm\\5.4.
 135              		.file 4 "Generated_Source\\PSoC5/BatteryLed.h"
 136              		.file 5 "..\\FreeRTOS\\Source\\include/task.h"
 137              		.file 6 ".\\ZumoLibrary/Motor.h"
 138              		.file 7 "Generated_Source\\PSoC5/core_cm3.h"