ARM GAS  C:\Users\EVGENY~1\AppData\Local\Temp\ccHog4Pd.s 			page 1


   1              		.syntax unified
   2              		.cpu cortex-m3
   3              		.fpu softvfp
   4              		.eabi_attribute 20, 1
   5              		.eabi_attribute 21, 1
   6              		.eabi_attribute 23, 3
   7              		.eabi_attribute 24, 1
   8              		.eabi_attribute 25, 1
   9              		.eabi_attribute 26, 1
  10              		.eabi_attribute 30, 1
  11              		.eabi_attribute 34, 1
  12              		.eabi_attribute 18, 4
  13              		.thumb
  14              		.syntax unified
  15              		.file	"debug_uart.c"
  16              		.text
  17              	.Ltext0:
  18              		.cfi_sections	.debug_frame
  19              		.section	.text.process_command,"ax",%progbits
  20              		.align	2
  21              		.thumb
  22              		.thumb_func
  23              		.type	process_command, %function
  24              	process_command:
  25              	.LFB80:
  26              		.file 1 "ZumoLibrary\\debug_uart.c"
   1:ZumoLibrary/debug_uart.c **** /* ========================================
   2:ZumoLibrary/debug_uart.c ****  *
   3:ZumoLibrary/debug_uart.c ****  * Copyright YOUR COMPANY, THE YEAR
   4:ZumoLibrary/debug_uart.c ****  * All Rights Reserved
   5:ZumoLibrary/debug_uart.c ****  * UNPUBLISHED, LICENSED SOFTWARE.
   6:ZumoLibrary/debug_uart.c ****  *
   7:ZumoLibrary/debug_uart.c ****  * CONFIDENTIAL AND PROPRIETARY INFORMATION
   8:ZumoLibrary/debug_uart.c ****  * WHICH IS THE PROPERTY OF your company.
   9:ZumoLibrary/debug_uart.c ****  *
  10:ZumoLibrary/debug_uart.c ****  * ========================================
  11:ZumoLibrary/debug_uart.c **** */
  12:ZumoLibrary/debug_uart.c **** #include <project.h>
  13:ZumoLibrary/debug_uart.c **** #include <stdio.h>
  14:ZumoLibrary/debug_uart.c **** #include <stdbool.h>
  15:ZumoLibrary/debug_uart.c **** /* RTOS includes. */
  16:ZumoLibrary/debug_uart.c **** #include "FreeRTOS.h"
  17:ZumoLibrary/debug_uart.c **** #include "task.h"
  18:ZumoLibrary/debug_uart.c **** #include "queue.h"
  19:ZumoLibrary/debug_uart.c **** #include "semphr.h"
  20:ZumoLibrary/debug_uart.c **** #include "debug_uart.h"
  21:ZumoLibrary/debug_uart.c **** #include "zumo_config.h"
  22:ZumoLibrary/debug_uart.c **** #include "serial1.h"
  23:ZumoLibrary/debug_uart.c **** 
  24:ZumoLibrary/debug_uart.c **** #include "esp8266_socket.h"
  25:ZumoLibrary/debug_uart.c **** 
  26:ZumoLibrary/debug_uart.c **** static int process_command(char *cmd);
  27:ZumoLibrary/debug_uart.c **** static int cmd_help(char *arg);
  28:ZumoLibrary/debug_uart.c **** static int cmd_socket(char *cmd);
  29:ZumoLibrary/debug_uart.c **** static int cmd_connect(char *cmd);
  30:ZumoLibrary/debug_uart.c **** static int cmd_close(char *cmd);
  31:ZumoLibrary/debug_uart.c **** static int cmd_read(char *cmd);
ARM GAS  C:\Users\EVGENY~1\AppData\Local\Temp\ccHog4Pd.s 			page 2


  32:ZumoLibrary/debug_uart.c **** static int cmd_write(char *cmd);
  33:ZumoLibrary/debug_uart.c **** static int cmd_tasklist(char *cmd);
  34:ZumoLibrary/debug_uart.c **** static int cmd_stats(char *cmd);
  35:ZumoLibrary/debug_uart.c **** 
  36:ZumoLibrary/debug_uart.c **** static const struct cmdtable_ {
  37:ZumoLibrary/debug_uart.c ****   char *name;
  38:ZumoLibrary/debug_uart.c ****   int (*cmd)(char *);
  39:ZumoLibrary/debug_uart.c ****   const char *help;
  40:ZumoLibrary/debug_uart.c **** } cmdtable[] = {
  41:ZumoLibrary/debug_uart.c ****   { "?",     cmd_help, "help [command]\n" },
  42:ZumoLibrary/debug_uart.c ****   { "help",  cmd_help, "help [command]\n" },
  43:ZumoLibrary/debug_uart.c ****   { "socket",  cmd_socket, "socket - starts ESP8266 socket task\n" },
  44:ZumoLibrary/debug_uart.c ****   { "connect",  cmd_connect, "connect - connect to a server\n" },
  45:ZumoLibrary/debug_uart.c ****   { "close",  cmd_close, "close - close connection\n" },
  46:ZumoLibrary/debug_uart.c ****   { "read",  cmd_read, "read from socket\n" },
  47:ZumoLibrary/debug_uart.c ****   { "write",  cmd_write, "write <data> - writes <data> to socket\n" },
  48:ZumoLibrary/debug_uart.c ****   { "list",  cmd_tasklist, "list - list currently running tasks\n" },
  49:ZumoLibrary/debug_uart.c ****   { "stat",  cmd_stats, "stat - print runtime statistics\n" },
  50:ZumoLibrary/debug_uart.c **** 
  51:ZumoLibrary/debug_uart.c ****   { "", NULL, "" } /* terminating entry - do not remove */
  52:ZumoLibrary/debug_uart.c **** };
  53:ZumoLibrary/debug_uart.c **** 
  54:ZumoLibrary/debug_uart.c **** 
  55:ZumoLibrary/debug_uart.c **** static QueueHandle_t xSerialTxQueue = NULL;
  56:ZumoLibrary/debug_uart.c **** static const int uxQueueLength = 256;
  57:ZumoLibrary/debug_uart.c **** static SemaphoreHandle_t u1_mutex = NULL;
  58:ZumoLibrary/debug_uart.c **** 
  59:ZumoLibrary/debug_uart.c **** void DebugUartTask( void *pvParameters )
  60:ZumoLibrary/debug_uart.c **** {
  61:ZumoLibrary/debug_uart.c ****     (void) pvParameters; //quiet the compiler warning
  62:ZumoLibrary/debug_uart.c ****     char c;
  63:ZumoLibrary/debug_uart.c ****     //while(1) vTaskDelay(100);
  64:ZumoLibrary/debug_uart.c ****     
  65:ZumoLibrary/debug_uart.c ****     while(true) {
  66:ZumoLibrary/debug_uart.c ****     	if( pdTRUE == xQueueReceive( xSerialTxQueue, &c, portMAX_DELAY ) )
  67:ZumoLibrary/debug_uart.c ****     	{
  68:ZumoLibrary/debug_uart.c ****     		/* Picked up a character. */
  69:ZumoLibrary/debug_uart.c ****             xSemaphoreTake(u1_mutex, portMAX_DELAY);
  70:ZumoLibrary/debug_uart.c ****             UART_1_PutChar(c);
  71:ZumoLibrary/debug_uart.c ****             xSemaphoreGive(u1_mutex);
  72:ZumoLibrary/debug_uart.c ****     	}
  73:ZumoLibrary/debug_uart.c ****     }
  74:ZumoLibrary/debug_uart.c ****     
  75:ZumoLibrary/debug_uart.c **** }
  76:ZumoLibrary/debug_uart.c **** 
  77:ZumoLibrary/debug_uart.c **** 
  78:ZumoLibrary/debug_uart.c **** void DebugUartTaskInit(void)
  79:ZumoLibrary/debug_uart.c **** {
  80:ZumoLibrary/debug_uart.c **** 	/* Configure Tx */
  81:ZumoLibrary/debug_uart.c **** 	xSerialTxQueue = xQueueCreate( uxQueueLength, sizeof( signed char ) );
  82:ZumoLibrary/debug_uart.c ****     u1_mutex = xSemaphoreCreateMutex();
  83:ZumoLibrary/debug_uart.c **** }    
  84:ZumoLibrary/debug_uart.c **** 
  85:ZumoLibrary/debug_uart.c **** #if 0
  86:ZumoLibrary/debug_uart.c **** int _write(int file, const char *ptr, int len)
  87:ZumoLibrary/debug_uart.c **** {
  88:ZumoLibrary/debug_uart.c ****     (void)file; /* Parameter is not used, suppress unused argument warning */
ARM GAS  C:\Users\EVGENY~1\AppData\Local\Temp\ccHog4Pd.s 			page 3


  89:ZumoLibrary/debug_uart.c **** 	int n;
  90:ZumoLibrary/debug_uart.c **** 	for(n = 0; n < len; n++) {
  91:ZumoLibrary/debug_uart.c ****         if(*ptr == '\n') {
  92:ZumoLibrary/debug_uart.c ****             const char cr = '\r';
  93:ZumoLibrary/debug_uart.c ****     		xQueueSend( xSerialTxQueue, &cr, portMAX_DELAY); //UART_1_PutChar('\r');
  94:ZumoLibrary/debug_uart.c ****         }
  95:ZumoLibrary/debug_uart.c **** 		xQueueSend( xSerialTxQueue, ptr++, portMAX_DELAY); //UART_1_PutChar(*ptr++);
  96:ZumoLibrary/debug_uart.c **** 	}
  97:ZumoLibrary/debug_uart.c **** 	return len;
  98:ZumoLibrary/debug_uart.c **** 
  99:ZumoLibrary/debug_uart.c **** }
 100:ZumoLibrary/debug_uart.c **** #endif
 101:ZumoLibrary/debug_uart.c **** 
 102:ZumoLibrary/debug_uart.c **** void ds(const char *s) 
 103:ZumoLibrary/debug_uart.c **** {
 104:ZumoLibrary/debug_uart.c **** 	while(*s) {
 105:ZumoLibrary/debug_uart.c ****         if(*s == '\n') {
 106:ZumoLibrary/debug_uart.c ****             const char cr = '\r';
 107:ZumoLibrary/debug_uart.c ****     		xQueueSend( xSerialTxQueue, &cr, portMAX_DELAY); //UART_1_PutChar('\r');
 108:ZumoLibrary/debug_uart.c ****         }
 109:ZumoLibrary/debug_uart.c **** 		xQueueSend( xSerialTxQueue, s++, portMAX_DELAY); //UART_1_PutChar(*ptr++);
 110:ZumoLibrary/debug_uart.c **** 	}
 111:ZumoLibrary/debug_uart.c **** }
 112:ZumoLibrary/debug_uart.c **** 
 113:ZumoLibrary/debug_uart.c **** #define CMD_MAX_SIZE 64
 114:ZumoLibrary/debug_uart.c **** void DebugCommandTask( void *pvParameters )
 115:ZumoLibrary/debug_uart.c **** {
 116:ZumoLibrary/debug_uart.c ****     (void) pvParameters; //quiet the compiler warning
 117:ZumoLibrary/debug_uart.c ****     char c;
 118:ZumoLibrary/debug_uart.c ****     char cmd[CMD_MAX_SIZE];
 119:ZumoLibrary/debug_uart.c ****     int pos = 0;
 120:ZumoLibrary/debug_uart.c **** 
 121:ZumoLibrary/debug_uart.c ****     while(true) {
 122:ZumoLibrary/debug_uart.c ****         xSerial1GetChar(&c,portMAX_DELAY);
 123:ZumoLibrary/debug_uart.c ****         if(c != 0) {
 124:ZumoLibrary/debug_uart.c ****             if(c == '\n' || c == '\r') {
 125:ZumoLibrary/debug_uart.c ****                 if(pos > 0) {
 126:ZumoLibrary/debug_uart.c **** 		            xQueueSend( xSerialTxQueue, &c, portMAX_DELAY);
 127:ZumoLibrary/debug_uart.c ****                     pos = 0;
 128:ZumoLibrary/debug_uart.c ****                     process_command(cmd);
 129:ZumoLibrary/debug_uart.c ****                 }
 130:ZumoLibrary/debug_uart.c ****             }
 131:ZumoLibrary/debug_uart.c ****             else if(pos < CMD_MAX_SIZE - 1) {
 132:ZumoLibrary/debug_uart.c ****                 cmd[pos++] = c;
 133:ZumoLibrary/debug_uart.c ****                 cmd[pos] = 0;
 134:ZumoLibrary/debug_uart.c **** 		        xQueueSend( xSerialTxQueue, &c, portMAX_DELAY);
 135:ZumoLibrary/debug_uart.c ****             }
 136:ZumoLibrary/debug_uart.c ****         }
 137:ZumoLibrary/debug_uart.c ****         else {
 138:ZumoLibrary/debug_uart.c ****             vTaskDelay(1);
 139:ZumoLibrary/debug_uart.c ****         }
 140:ZumoLibrary/debug_uart.c ****     }
 141:ZumoLibrary/debug_uart.c ****     
 142:ZumoLibrary/debug_uart.c **** }
 143:ZumoLibrary/debug_uart.c **** 
 144:ZumoLibrary/debug_uart.c **** static int cmd_socket(char *cmd)
 145:ZumoLibrary/debug_uart.c **** {
ARM GAS  C:\Users\EVGENY~1\AppData\Local\Temp\ccHog4Pd.s 			page 4


 146:ZumoLibrary/debug_uart.c ****     (void) cmd;
 147:ZumoLibrary/debug_uart.c ****     
 148:ZumoLibrary/debug_uart.c ****     esp_socket(NETWORK_SSID, NETWORK_PASSWORD);
 149:ZumoLibrary/debug_uart.c ****     
 150:ZumoLibrary/debug_uart.c ****     return 0;
 151:ZumoLibrary/debug_uart.c **** }
 152:ZumoLibrary/debug_uart.c **** 
 153:ZumoLibrary/debug_uart.c **** static int cmd_connect(char *cmd)
 154:ZumoLibrary/debug_uart.c **** {
 155:ZumoLibrary/debug_uart.c ****     (void) cmd;
 156:ZumoLibrary/debug_uart.c ****     
 157:ZumoLibrary/debug_uart.c ****     esp_connect(0, MQTT_BROKER, 5000); // connect to echo server
 158:ZumoLibrary/debug_uart.c ****     
 159:ZumoLibrary/debug_uart.c ****     return 0;
 160:ZumoLibrary/debug_uart.c **** }
 161:ZumoLibrary/debug_uart.c **** 
 162:ZumoLibrary/debug_uart.c **** static int cmd_close(char *cmd)
 163:ZumoLibrary/debug_uart.c **** {
 164:ZumoLibrary/debug_uart.c ****     (void) cmd;
 165:ZumoLibrary/debug_uart.c ****     
 166:ZumoLibrary/debug_uart.c ****     esp_close(0);
 167:ZumoLibrary/debug_uart.c ****     
 168:ZumoLibrary/debug_uart.c ****     return 0;
 169:ZumoLibrary/debug_uart.c **** }
 170:ZumoLibrary/debug_uart.c **** 
 171:ZumoLibrary/debug_uart.c **** static int cmd_read(char *cmd)
 172:ZumoLibrary/debug_uart.c **** {
 173:ZumoLibrary/debug_uart.c ****     (void) cmd;
 174:ZumoLibrary/debug_uart.c ****     static char buffer[64];
 175:ZumoLibrary/debug_uart.c ****     
 176:ZumoLibrary/debug_uart.c ****     int count = esp_read(0, buffer, 63);
 177:ZumoLibrary/debug_uart.c ****     if(count > 0) {
 178:ZumoLibrary/debug_uart.c ****         buffer[count] = '\0';
 179:ZumoLibrary/debug_uart.c ****         ds(buffer);
 180:ZumoLibrary/debug_uart.c ****     }
 181:ZumoLibrary/debug_uart.c ****     
 182:ZumoLibrary/debug_uart.c ****     return 0;    
 183:ZumoLibrary/debug_uart.c **** }
 184:ZumoLibrary/debug_uart.c **** 
 185:ZumoLibrary/debug_uart.c **** static int cmd_write(char *cmd)
 186:ZumoLibrary/debug_uart.c **** {
 187:ZumoLibrary/debug_uart.c ****     esp_write(0, cmd, strlen(cmd));
 188:ZumoLibrary/debug_uart.c ****     return 0;    
 189:ZumoLibrary/debug_uart.c **** }
 190:ZumoLibrary/debug_uart.c **** 
 191:ZumoLibrary/debug_uart.c **** static char prt_buffer[1024];
 192:ZumoLibrary/debug_uart.c **** 
 193:ZumoLibrary/debug_uart.c **** static int cmd_tasklist(char *cmd)
 194:ZumoLibrary/debug_uart.c **** {
 195:ZumoLibrary/debug_uart.c ****     (void) cmd;
 196:ZumoLibrary/debug_uart.c **** 
 197:ZumoLibrary/debug_uart.c ****     vTaskList(prt_buffer);
 198:ZumoLibrary/debug_uart.c ****     ds(prt_buffer);
 199:ZumoLibrary/debug_uart.c ****     
 200:ZumoLibrary/debug_uart.c ****     return 0;
 201:ZumoLibrary/debug_uart.c **** }
 202:ZumoLibrary/debug_uart.c **** 
ARM GAS  C:\Users\EVGENY~1\AppData\Local\Temp\ccHog4Pd.s 			page 5


 203:ZumoLibrary/debug_uart.c **** static int cmd_stats(char *cmd)
 204:ZumoLibrary/debug_uart.c **** {
 205:ZumoLibrary/debug_uart.c ****     (void) cmd;
 206:ZumoLibrary/debug_uart.c **** 
 207:ZumoLibrary/debug_uart.c ****     vTaskGetRunTimeStats(prt_buffer);
 208:ZumoLibrary/debug_uart.c ****     ds(prt_buffer);
 209:ZumoLibrary/debug_uart.c ****     
 210:ZumoLibrary/debug_uart.c ****     return 0;
 211:ZumoLibrary/debug_uart.c **** }
 212:ZumoLibrary/debug_uart.c **** 
 213:ZumoLibrary/debug_uart.c **** static int process_command(char *cmd)
 214:ZumoLibrary/debug_uart.c **** {
  27              		.loc 1 214 0
  28              		.cfi_startproc
  29              		@ args = 0, pretend = 0, frame = 0
  30              		@ frame_needed = 0, uses_anonymous_args = 0
  31              	.LVL0:
  32 0000 F8B5     		push	{r3, r4, r5, r6, r7, lr}
  33              		.cfi_def_cfa_offset 24
  34              		.cfi_offset 3, -24
  35              		.cfi_offset 4, -20
  36              		.cfi_offset 5, -16
  37              		.cfi_offset 6, -12
  38              		.cfi_offset 7, -8
  39              		.cfi_offset 14, -4
 215:ZumoLibrary/debug_uart.c ****   int i;
 216:ZumoLibrary/debug_uart.c ****   char *args, *cmdend;
 217:ZumoLibrary/debug_uart.c **** 
 218:ZumoLibrary/debug_uart.c ****   /* skip white space in the beginning */
 219:ZumoLibrary/debug_uart.c ****   while((*cmd != '\0') && (*cmd == ' ')) {
  40              		.loc 1 219 0
  41 0002 00E0     		b	.L2
  42              	.L3:
 220:ZumoLibrary/debug_uart.c ****     cmd++;
  43              		.loc 1 220 0
  44 0004 0130     		adds	r0, r0, #1
  45              	.LVL1:
  46              	.L2:
 219:ZumoLibrary/debug_uart.c ****     cmd++;
  47              		.loc 1 219 0
  48 0006 0378     		ldrb	r3, [r0]	@ zero_extendqisi2
  49 0008 202B     		cmp	r3, #32
  50 000a FBD0     		beq	.L3
  51 000c 0346     		mov	r3, r0
  52 000e 00E0     		b	.L4
  53              	.LVL2:
  54              	.L6:
 221:ZumoLibrary/debug_uart.c ****   }
 222:ZumoLibrary/debug_uart.c ****   cmdend = cmd;
 223:ZumoLibrary/debug_uart.c ****   /* skip command */
 224:ZumoLibrary/debug_uart.c ****   while((*cmdend != '\0') && (*cmdend != ' ')) {
 225:ZumoLibrary/debug_uart.c ****     cmdend++;
  55              		.loc 1 225 0
  56 0010 0133     		adds	r3, r3, #1
  57              	.LVL3:
  58              	.L4:
 224:ZumoLibrary/debug_uart.c ****     cmdend++;
ARM GAS  C:\Users\EVGENY~1\AppData\Local\Temp\ccHog4Pd.s 			page 6


  59              		.loc 1 224 0
  60 0012 1A78     		ldrb	r2, [r3]	@ zero_extendqisi2
  61 0014 0AB1     		cbz	r2, .L5
 224:ZumoLibrary/debug_uart.c ****     cmdend++;
  62              		.loc 1 224 0 is_stmt 0 discriminator 1
  63 0016 202A     		cmp	r2, #32
  64 0018 FAD1     		bne	.L6
  65              	.L5:
  66              	.LVL4:
 226:ZumoLibrary/debug_uart.c ****   }
 227:ZumoLibrary/debug_uart.c ****   args = cmdend;
 228:ZumoLibrary/debug_uart.c ****   if(*args != '\0') {
  67              		.loc 1 228 0 is_stmt 1
  68 001a 22B9     		cbnz	r2, .L16
 227:ZumoLibrary/debug_uart.c ****   if(*args != '\0') {
  69              		.loc 1 227 0
  70 001c 9E46     		mov	lr, r3
  71 001e 07E0     		b	.L8
  72              	.LVL5:
  73              	.L9:
 229:ZumoLibrary/debug_uart.c ****     /* skip white space */
 230:ZumoLibrary/debug_uart.c ****     while((*args != '\0') && (*args == ' ')) {
 231:ZumoLibrary/debug_uart.c ****       args++;
  74              		.loc 1 231 0
  75 0020 0EF1010E 		add	lr, lr, #1
  76              	.LVL6:
  77 0024 00E0     		b	.L7
  78              	.LVL7:
  79              	.L16:
  80 0026 9E46     		mov	lr, r3
  81              	.LVL8:
  82              	.L7:
 230:ZumoLibrary/debug_uart.c ****       args++;
  83              		.loc 1 230 0
  84 0028 9EF80020 		ldrb	r2, [lr]	@ zero_extendqisi2
  85 002c 202A     		cmp	r2, #32
  86 002e F7D0     		beq	.L9
  87              	.L8:
 232:ZumoLibrary/debug_uart.c ****     }
 233:ZumoLibrary/debug_uart.c ****   }
 234:ZumoLibrary/debug_uart.c ****   *cmdend = '\0';
  88              		.loc 1 234 0
  89 0030 0022     		movs	r2, #0
  90 0032 1A70     		strb	r2, [r3]
 235:ZumoLibrary/debug_uart.c **** 
 236:ZumoLibrary/debug_uart.c ****   if(cmd[0] == '\0') return 0;
  91              		.loc 1 236 0
  92 0034 0378     		ldrb	r3, [r0]	@ zero_extendqisi2
  93              	.LVL9:
  94 0036 3BB3     		cbz	r3, .L17
  95 0038 1546     		mov	r5, r2
  96 003a 1BE0     		b	.L11
  97              	.LVL10:
  98              	.L13:
  99              	.LBB2:
 237:ZumoLibrary/debug_uart.c **** 
 238:ZumoLibrary/debug_uart.c ****   for(i=0; cmdtable[i].cmd != NULL; i++) {
ARM GAS  C:\Users\EVGENY~1\AppData\Local\Temp\ccHog4Pd.s 			page 7


 239:ZumoLibrary/debug_uart.c ****     int k;
 240:ZumoLibrary/debug_uart.c ****     for(k = 0; cmd[k] != '\0' && cmdtable[i].name[k] != '\0'; k++) {
 241:ZumoLibrary/debug_uart.c ****       if(cmdtable[i].name[k] != cmd[k]) break;
 100              		.loc 1 241 0
 101 003c 8A42     		cmp	r2, r1
 102 003e 0DD1     		bne	.L12
 240:ZumoLibrary/debug_uart.c ****       if(cmdtable[i].name[k] != cmd[k]) break;
 103              		.loc 1 240 0 discriminator 2
 104 0040 0133     		adds	r3, r3, #1
 105              	.LVL11:
 106 0042 00E0     		b	.L15
 107              	.LVL12:
 108              	.L18:
 109              	.LBE2:
 110 0044 0023     		movs	r3, #0
 111              	.L15:
 112              	.LVL13:
 113              	.LBB3:
 240:ZumoLibrary/debug_uart.c ****       if(cmdtable[i].name[k] != cmd[k]) break;
 114              		.loc 1 240 0 is_stmt 0 discriminator 1
 115 0046 1E46     		mov	r6, r3
 116 0048 C25C     		ldrb	r2, [r0, r3]	@ zero_extendqisi2
 117 004a 3AB1     		cbz	r2, .L12
 240:ZumoLibrary/debug_uart.c ****       if(cmdtable[i].name[k] != cmd[k]) break;
 118              		.loc 1 240 0 discriminator 3
 119 004c 05EB4504 		add	r4, r5, r5, lsl #1
 120 0050 A100     		lsls	r1, r4, #2
 121 0052 0E4C     		ldr	r4, .L20
 122 0054 6158     		ldr	r1, [r4, r1]
 123 0056 C95C     		ldrb	r1, [r1, r3]	@ zero_extendqisi2
 124 0058 0029     		cmp	r1, #0
 125 005a EFD1     		bne	.L13
 126              	.L12:
 242:ZumoLibrary/debug_uart.c ****     }
 243:ZumoLibrary/debug_uart.c ****     if(cmd[k] == '\0' && cmdtable[i].name[k] == '\0') {
 127              		.loc 1 243 0 is_stmt 1
 128 005c 4AB9     		cbnz	r2, .L14
 129              		.loc 1 243 0 is_stmt 0 discriminator 1
 130 005e 05EB4502 		add	r2, r5, r5, lsl #1
 131 0062 9300     		lsls	r3, r2, #2
 132              	.LVL14:
 133 0064 094A     		ldr	r2, .L20
 134 0066 D358     		ldr	r3, [r2, r3]
 135 0068 9B5D     		ldrb	r3, [r3, r6]	@ zero_extendqisi2
 136 006a 13B9     		cbnz	r3, .L14
 244:ZumoLibrary/debug_uart.c ****       return (*cmdtable[i].cmd)(args);
 137              		.loc 1 244 0 is_stmt 1
 138 006c 7046     		mov	r0, lr
 139              	.LVL15:
 140 006e B847     		blx	r7
 141              	.LVL16:
 142 0070 F8BD     		pop	{r3, r4, r5, r6, r7, pc}
 143              	.LVL17:
 144              	.L14:
 145              	.LBE3:
 238:ZumoLibrary/debug_uart.c ****     int k;
 146              		.loc 1 238 0 discriminator 2
ARM GAS  C:\Users\EVGENY~1\AppData\Local\Temp\ccHog4Pd.s 			page 8


 147 0072 0135     		adds	r5, r5, #1
 148              	.LVL18:
 149              	.L11:
 238:ZumoLibrary/debug_uart.c ****     int k;
 150              		.loc 1 238 0 is_stmt 0 discriminator 1
 151 0074 05EB4502 		add	r2, r5, r5, lsl #1
 152 0078 9300     		lsls	r3, r2, #2
 153 007a 044A     		ldr	r2, .L20
 154 007c 1344     		add	r3, r3, r2
 155 007e 5F68     		ldr	r7, [r3, #4]
 156 0080 002F     		cmp	r7, #0
 157 0082 DFD1     		bne	.L18
 245:ZumoLibrary/debug_uart.c ****     }
 246:ZumoLibrary/debug_uart.c ****   }
 247:ZumoLibrary/debug_uart.c **** 
 248:ZumoLibrary/debug_uart.c ****   return 0;
 158              		.loc 1 248 0 is_stmt 1
 159 0084 0020     		movs	r0, #0
 160              	.LVL19:
 161 0086 F8BD     		pop	{r3, r4, r5, r6, r7, pc}
 162              	.LVL20:
 163              	.L17:
 236:ZumoLibrary/debug_uart.c **** 
 164              		.loc 1 236 0
 165 0088 0020     		movs	r0, #0
 166              	.LVL21:
 249:ZumoLibrary/debug_uart.c **** }
 167              		.loc 1 249 0
 168 008a F8BD     		pop	{r3, r4, r5, r6, r7, pc}
 169              	.L21:
 170              		.align	2
 171              	.L20:
 172 008c 00000000 		.word	.LANCHOR0
 173              		.cfi_endproc
 174              	.LFE80:
 175              		.size	process_command, .-process_command
 176              		.section	.text.cmd_write,"ax",%progbits
 177              		.align	2
 178              		.thumb
 179              		.thumb_func
 180              		.type	cmd_write, %function
 181              	cmd_write:
 182              	.LFB77:
 186:ZumoLibrary/debug_uart.c ****     esp_write(0, cmd, strlen(cmd));
 183              		.loc 1 186 0
 184              		.cfi_startproc
 185              		@ args = 0, pretend = 0, frame = 0
 186              		@ frame_needed = 0, uses_anonymous_args = 0
 187              	.LVL22:
 188 0000 10B5     		push	{r4, lr}
 189              		.cfi_def_cfa_offset 8
 190              		.cfi_offset 4, -8
 191              		.cfi_offset 14, -4
 192 0002 0446     		mov	r4, r0
 187:ZumoLibrary/debug_uart.c ****     return 0;    
 193              		.loc 1 187 0
 194 0004 FFF7FEFF 		bl	strlen
ARM GAS  C:\Users\EVGENY~1\AppData\Local\Temp\ccHog4Pd.s 			page 9


 195              	.LVL23:
 196 0008 0246     		mov	r2, r0
 197 000a 2146     		mov	r1, r4
 198 000c 0020     		movs	r0, #0
 199 000e FFF7FEFF 		bl	esp_write
 200              	.LVL24:
 189:ZumoLibrary/debug_uart.c **** 
 201              		.loc 1 189 0
 202 0012 0020     		movs	r0, #0
 203 0014 10BD     		pop	{r4, pc}
 204              		.cfi_endproc
 205              	.LFE77:
 206              		.size	cmd_write, .-cmd_write
 207 0016 00BF     		.section	.text.cmd_close,"ax",%progbits
 208              		.align	2
 209              		.thumb
 210              		.thumb_func
 211              		.type	cmd_close, %function
 212              	cmd_close:
 213              	.LFB75:
 163:ZumoLibrary/debug_uart.c ****     (void) cmd;
 214              		.loc 1 163 0
 215              		.cfi_startproc
 216              		@ args = 0, pretend = 0, frame = 0
 217              		@ frame_needed = 0, uses_anonymous_args = 0
 218              	.LVL25:
 219 0000 08B5     		push	{r3, lr}
 220              		.cfi_def_cfa_offset 8
 221              		.cfi_offset 3, -8
 222              		.cfi_offset 14, -4
 166:ZumoLibrary/debug_uart.c ****     
 223              		.loc 1 166 0
 224 0002 0020     		movs	r0, #0
 225              	.LVL26:
 226 0004 FFF7FEFF 		bl	esp_close
 227              	.LVL27:
 169:ZumoLibrary/debug_uart.c **** 
 228              		.loc 1 169 0
 229 0008 0020     		movs	r0, #0
 230 000a 08BD     		pop	{r3, pc}
 231              		.cfi_endproc
 232              	.LFE75:
 233              		.size	cmd_close, .-cmd_close
 234              		.section	.text.cmd_connect,"ax",%progbits
 235              		.align	2
 236              		.thumb
 237              		.thumb_func
 238              		.type	cmd_connect, %function
 239              	cmd_connect:
 240              	.LFB74:
 154:ZumoLibrary/debug_uart.c ****     (void) cmd;
 241              		.loc 1 154 0
 242              		.cfi_startproc
 243              		@ args = 0, pretend = 0, frame = 0
 244              		@ frame_needed = 0, uses_anonymous_args = 0
 245              	.LVL28:
 246 0000 08B5     		push	{r3, lr}
ARM GAS  C:\Users\EVGENY~1\AppData\Local\Temp\ccHog4Pd.s 			page 10


 247              		.cfi_def_cfa_offset 8
 248              		.cfi_offset 3, -8
 249              		.cfi_offset 14, -4
 157:ZumoLibrary/debug_uart.c ****     
 250              		.loc 1 157 0
 251 0002 41F28832 		movw	r2, #5000
 252 0006 0349     		ldr	r1, .L28
 253 0008 0020     		movs	r0, #0
 254              	.LVL29:
 255 000a FFF7FEFF 		bl	esp_connect
 256              	.LVL30:
 160:ZumoLibrary/debug_uart.c **** 
 257              		.loc 1 160 0
 258 000e 0020     		movs	r0, #0
 259 0010 08BD     		pop	{r3, pc}
 260              	.L29:
 261 0012 00BF     		.align	2
 262              	.L28:
 263 0014 00000000 		.word	.LC0
 264              		.cfi_endproc
 265              	.LFE74:
 266              		.size	cmd_connect, .-cmd_connect
 267              		.section	.text.cmd_socket,"ax",%progbits
 268              		.align	2
 269              		.thumb
 270              		.thumb_func
 271              		.type	cmd_socket, %function
 272              	cmd_socket:
 273              	.LFB73:
 145:ZumoLibrary/debug_uart.c ****     (void) cmd;
 274              		.loc 1 145 0
 275              		.cfi_startproc
 276              		@ args = 0, pretend = 0, frame = 0
 277              		@ frame_needed = 0, uses_anonymous_args = 0
 278              	.LVL31:
 279 0000 08B5     		push	{r3, lr}
 280              		.cfi_def_cfa_offset 8
 281              		.cfi_offset 3, -8
 282              		.cfi_offset 14, -4
 148:ZumoLibrary/debug_uart.c ****     
 283              		.loc 1 148 0
 284 0002 0349     		ldr	r1, .L32
 285 0004 0348     		ldr	r0, .L32+4
 286              	.LVL32:
 287 0006 FFF7FEFF 		bl	esp_socket
 288              	.LVL33:
 151:ZumoLibrary/debug_uart.c **** 
 289              		.loc 1 151 0
 290 000a 0020     		movs	r0, #0
 291 000c 08BD     		pop	{r3, pc}
 292              	.L33:
 293 000e 00BF     		.align	2
 294              	.L32:
 295 0010 10000000 		.word	.LC1
 296 0014 1C000000 		.word	.LC2
 297              		.cfi_endproc
 298              	.LFE73:
ARM GAS  C:\Users\EVGENY~1\AppData\Local\Temp\ccHog4Pd.s 			page 11


 299              		.size	cmd_socket, .-cmd_socket
 300              		.section	.text.DebugUartTask,"ax",%progbits
 301              		.align	2
 302              		.global	DebugUartTask
 303              		.thumb
 304              		.thumb_func
 305              		.type	DebugUartTask, %function
 306              	DebugUartTask:
 307              	.LFB69:
  60:ZumoLibrary/debug_uart.c ****     (void) pvParameters; //quiet the compiler warning
 308              		.loc 1 60 0
 309              		.cfi_startproc
 310              		@ args = 0, pretend = 0, frame = 8
 311              		@ frame_needed = 0, uses_anonymous_args = 0
 312              	.LVL34:
 313 0000 10B5     		push	{r4, lr}
 314              		.cfi_def_cfa_offset 8
 315              		.cfi_offset 4, -8
 316              		.cfi_offset 14, -4
 317 0002 82B0     		sub	sp, sp, #8
 318              		.cfi_def_cfa_offset 16
 319              	.LVL35:
 320              	.L35:
  66:ZumoLibrary/debug_uart.c ****     	{
 321              		.loc 1 66 0
 322 0004 4FF0FF32 		mov	r2, #-1
 323 0008 0DF10701 		add	r1, sp, #7
 324 000c 0B4B     		ldr	r3, .L38
 325 000e 1868     		ldr	r0, [r3]
 326 0010 FFF7FEFF 		bl	xQueueReceive
 327              	.LVL36:
 328 0014 0128     		cmp	r0, #1
 329 0016 F5D1     		bne	.L35
  69:ZumoLibrary/debug_uart.c ****             UART_1_PutChar(c);
 330              		.loc 1 69 0
 331 0018 084C     		ldr	r4, .L38
 332 001a 4FF0FF31 		mov	r1, #-1
 333 001e 6068     		ldr	r0, [r4, #4]
 334 0020 FFF7FEFF 		bl	xQueueSemaphoreTake
 335              	.LVL37:
  70:ZumoLibrary/debug_uart.c ****             xSemaphoreGive(u1_mutex);
 336              		.loc 1 70 0
 337 0024 9DF80700 		ldrb	r0, [sp, #7]	@ zero_extendqisi2
 338 0028 FFF7FEFF 		bl	UART_1_PutChar
 339              	.LVL38:
  71:ZumoLibrary/debug_uart.c ****     	}
 340              		.loc 1 71 0
 341 002c 0023     		movs	r3, #0
 342 002e 1A46     		mov	r2, r3
 343 0030 1946     		mov	r1, r3
 344 0032 6068     		ldr	r0, [r4, #4]
 345 0034 FFF7FEFF 		bl	xQueueGenericSend
 346              	.LVL39:
 347 0038 E4E7     		b	.L35
 348              	.L39:
 349 003a 00BF     		.align	2
 350              	.L38:
ARM GAS  C:\Users\EVGENY~1\AppData\Local\Temp\ccHog4Pd.s 			page 12


 351 003c 00000000 		.word	.LANCHOR1
 352              		.cfi_endproc
 353              	.LFE69:
 354              		.size	DebugUartTask, .-DebugUartTask
 355              		.section	.text.DebugUartTaskInit,"ax",%progbits
 356              		.align	2
 357              		.global	DebugUartTaskInit
 358              		.thumb
 359              		.thumb_func
 360              		.type	DebugUartTaskInit, %function
 361              	DebugUartTaskInit:
 362              	.LFB70:
  79:ZumoLibrary/debug_uart.c **** 	/* Configure Tx */
 363              		.loc 1 79 0
 364              		.cfi_startproc
 365              		@ args = 0, pretend = 0, frame = 0
 366              		@ frame_needed = 0, uses_anonymous_args = 0
 367 0000 10B5     		push	{r4, lr}
 368              		.cfi_def_cfa_offset 8
 369              		.cfi_offset 4, -8
 370              		.cfi_offset 14, -4
  81:ZumoLibrary/debug_uart.c ****     u1_mutex = xSemaphoreCreateMutex();
 371              		.loc 1 81 0
 372 0002 0022     		movs	r2, #0
 373 0004 0121     		movs	r1, #1
 374 0006 4FF48070 		mov	r0, #256
 375 000a FFF7FEFF 		bl	xQueueGenericCreate
 376              	.LVL40:
 377 000e 034C     		ldr	r4, .L42
 378 0010 2060     		str	r0, [r4]
  82:ZumoLibrary/debug_uart.c **** }    
 379              		.loc 1 82 0
 380 0012 0120     		movs	r0, #1
 381 0014 FFF7FEFF 		bl	xQueueCreateMutex
 382              	.LVL41:
 383 0018 6060     		str	r0, [r4, #4]
 384 001a 10BD     		pop	{r4, pc}
 385              	.L43:
 386              		.align	2
 387              	.L42:
 388 001c 00000000 		.word	.LANCHOR1
 389              		.cfi_endproc
 390              	.LFE70:
 391              		.size	DebugUartTaskInit, .-DebugUartTaskInit
 392              		.section	.text.ds,"ax",%progbits
 393              		.align	2
 394              		.global	ds
 395              		.thumb
 396              		.thumb_func
 397              		.type	ds, %function
 398              	ds:
 399              	.LFB71:
 103:ZumoLibrary/debug_uart.c **** 	while(*s) {
 400              		.loc 1 103 0
 401              		.cfi_startproc
 402              		@ args = 0, pretend = 0, frame = 8
 403              		@ frame_needed = 0, uses_anonymous_args = 0
ARM GAS  C:\Users\EVGENY~1\AppData\Local\Temp\ccHog4Pd.s 			page 13


 404              	.LVL42:
 405 0000 30B5     		push	{r4, r5, lr}
 406              		.cfi_def_cfa_offset 12
 407              		.cfi_offset 4, -12
 408              		.cfi_offset 5, -8
 409              		.cfi_offset 14, -4
 410 0002 83B0     		sub	sp, sp, #12
 411              		.cfi_def_cfa_offset 24
 412 0004 0446     		mov	r4, r0
 104:ZumoLibrary/debug_uart.c ****         if(*s == '\n') {
 413              		.loc 1 104 0
 414 0006 16E0     		b	.L45
 415              	.LVL43:
 416              	.L47:
 105:ZumoLibrary/debug_uart.c ****             const char cr = '\r';
 417              		.loc 1 105 0
 418 0008 0A2B     		cmp	r3, #10
 419 000a 0AD1     		bne	.L46
 420              	.LBB4:
 106:ZumoLibrary/debug_uart.c ****     		xQueueSend( xSerialTxQueue, &cr, portMAX_DELAY); //UART_1_PutChar('\r');
 421              		.loc 1 106 0
 422 000c 02A9     		add	r1, sp, #8
 423 000e 0D23     		movs	r3, #13
 424 0010 01F8013D 		strb	r3, [r1, #-1]!
 107:ZumoLibrary/debug_uart.c ****         }
 425              		.loc 1 107 0
 426 0014 0023     		movs	r3, #0
 427 0016 4FF0FF32 		mov	r2, #-1
 428 001a 0948     		ldr	r0, .L49
 429 001c 0068     		ldr	r0, [r0]
 430 001e FFF7FEFF 		bl	xQueueGenericSend
 431              	.LVL44:
 432              	.L46:
 433              	.LBE4:
 109:ZumoLibrary/debug_uart.c **** 	}
 434              		.loc 1 109 0
 435 0022 651C     		adds	r5, r4, #1
 436              	.LVL45:
 437 0024 0023     		movs	r3, #0
 438 0026 4FF0FF32 		mov	r2, #-1
 439 002a 2146     		mov	r1, r4
 440 002c 0448     		ldr	r0, .L49
 441 002e 0068     		ldr	r0, [r0]
 442 0030 FFF7FEFF 		bl	xQueueGenericSend
 443              	.LVL46:
 444 0034 2C46     		mov	r4, r5
 445              	.LVL47:
 446              	.L45:
 104:ZumoLibrary/debug_uart.c ****         if(*s == '\n') {
 447              		.loc 1 104 0
 448 0036 2378     		ldrb	r3, [r4]	@ zero_extendqisi2
 449 0038 002B     		cmp	r3, #0
 450 003a E5D1     		bne	.L47
 111:ZumoLibrary/debug_uart.c **** 
 451              		.loc 1 111 0
 452 003c 03B0     		add	sp, sp, #12
 453              		.cfi_def_cfa_offset 12
ARM GAS  C:\Users\EVGENY~1\AppData\Local\Temp\ccHog4Pd.s 			page 14


 454              		@ sp needed
 455 003e 30BD     		pop	{r4, r5, pc}
 456              	.LVL48:
 457              	.L50:
 458              		.align	2
 459              	.L49:
 460 0040 00000000 		.word	.LANCHOR1
 461              		.cfi_endproc
 462              	.LFE71:
 463              		.size	ds, .-ds
 464              		.section	.text.cmd_stats,"ax",%progbits
 465              		.align	2
 466              		.thumb
 467              		.thumb_func
 468              		.type	cmd_stats, %function
 469              	cmd_stats:
 470              	.LFB79:
 204:ZumoLibrary/debug_uart.c ****     (void) cmd;
 471              		.loc 1 204 0
 472              		.cfi_startproc
 473              		@ args = 0, pretend = 0, frame = 0
 474              		@ frame_needed = 0, uses_anonymous_args = 0
 475              	.LVL49:
 476 0000 10B5     		push	{r4, lr}
 477              		.cfi_def_cfa_offset 8
 478              		.cfi_offset 4, -8
 479              		.cfi_offset 14, -4
 207:ZumoLibrary/debug_uart.c ****     ds(prt_buffer);
 480              		.loc 1 207 0
 481 0002 044C     		ldr	r4, .L53
 482 0004 2046     		mov	r0, r4
 483              	.LVL50:
 484 0006 FFF7FEFF 		bl	vTaskGetRunTimeStats
 485              	.LVL51:
 208:ZumoLibrary/debug_uart.c ****     
 486              		.loc 1 208 0
 487 000a 2046     		mov	r0, r4
 488 000c FFF7FEFF 		bl	ds
 489              	.LVL52:
 211:ZumoLibrary/debug_uart.c **** 
 490              		.loc 1 211 0
 491 0010 0020     		movs	r0, #0
 492 0012 10BD     		pop	{r4, pc}
 493              	.L54:
 494              		.align	2
 495              	.L53:
 496 0014 08000000 		.word	.LANCHOR1+8
 497              		.cfi_endproc
 498              	.LFE79:
 499              		.size	cmd_stats, .-cmd_stats
 500              		.section	.text.cmd_tasklist,"ax",%progbits
 501              		.align	2
 502              		.thumb
 503              		.thumb_func
 504              		.type	cmd_tasklist, %function
 505              	cmd_tasklist:
 506              	.LFB78:
ARM GAS  C:\Users\EVGENY~1\AppData\Local\Temp\ccHog4Pd.s 			page 15


 194:ZumoLibrary/debug_uart.c ****     (void) cmd;
 507              		.loc 1 194 0
 508              		.cfi_startproc
 509              		@ args = 0, pretend = 0, frame = 0
 510              		@ frame_needed = 0, uses_anonymous_args = 0
 511              	.LVL53:
 512 0000 10B5     		push	{r4, lr}
 513              		.cfi_def_cfa_offset 8
 514              		.cfi_offset 4, -8
 515              		.cfi_offset 14, -4
 197:ZumoLibrary/debug_uart.c ****     ds(prt_buffer);
 516              		.loc 1 197 0
 517 0002 044C     		ldr	r4, .L57
 518 0004 2046     		mov	r0, r4
 519              	.LVL54:
 520 0006 FFF7FEFF 		bl	vTaskList
 521              	.LVL55:
 198:ZumoLibrary/debug_uart.c ****     
 522              		.loc 1 198 0
 523 000a 2046     		mov	r0, r4
 524 000c FFF7FEFF 		bl	ds
 525              	.LVL56:
 201:ZumoLibrary/debug_uart.c **** 
 526              		.loc 1 201 0
 527 0010 0020     		movs	r0, #0
 528 0012 10BD     		pop	{r4, pc}
 529              	.L58:
 530              		.align	2
 531              	.L57:
 532 0014 08000000 		.word	.LANCHOR1+8
 533              		.cfi_endproc
 534              	.LFE78:
 535              		.size	cmd_tasklist, .-cmd_tasklist
 536              		.section	.text.cmd_read,"ax",%progbits
 537              		.align	2
 538              		.thumb
 539              		.thumb_func
 540              		.type	cmd_read, %function
 541              	cmd_read:
 542              	.LFB76:
 172:ZumoLibrary/debug_uart.c ****     (void) cmd;
 543              		.loc 1 172 0
 544              		.cfi_startproc
 545              		@ args = 0, pretend = 0, frame = 0
 546              		@ frame_needed = 0, uses_anonymous_args = 0
 547              	.LVL57:
 548 0000 08B5     		push	{r3, lr}
 549              		.cfi_def_cfa_offset 8
 550              		.cfi_offset 3, -8
 551              		.cfi_offset 14, -4
 176:ZumoLibrary/debug_uart.c ****     if(count > 0) {
 552              		.loc 1 176 0
 553 0002 3F22     		movs	r2, #63
 554 0004 0849     		ldr	r1, .L62
 555 0006 0020     		movs	r0, #0
 556              	.LVL58:
 557 0008 FFF7FEFF 		bl	esp_read
ARM GAS  C:\Users\EVGENY~1\AppData\Local\Temp\ccHog4Pd.s 			page 16


 558              	.LVL59:
 177:ZumoLibrary/debug_uart.c ****         buffer[count] = '\0';
 559              		.loc 1 177 0
 560 000c 0028     		cmp	r0, #0
 561 000e 08DD     		ble	.L60
 178:ZumoLibrary/debug_uart.c ****         ds(buffer);
 562              		.loc 1 178 0
 563 0010 064B     		ldr	r3, .L62+4
 564 0012 1844     		add	r0, r0, r3
 565              	.LVL60:
 566 0014 0022     		movs	r2, #0
 567 0016 80F80824 		strb	r2, [r0, #1032]
 179:ZumoLibrary/debug_uart.c ****     }
 568              		.loc 1 179 0
 569 001a 03F58160 		add	r0, r3, #1032
 570              	.LVL61:
 571 001e FFF7FEFF 		bl	ds
 572              	.LVL62:
 573              	.L60:
 183:ZumoLibrary/debug_uart.c **** 
 574              		.loc 1 183 0
 575 0022 0020     		movs	r0, #0
 576 0024 08BD     		pop	{r3, pc}
 577              	.L63:
 578 0026 00BF     		.align	2
 579              	.L62:
 580 0028 08040000 		.word	.LANCHOR1+1032
 581 002c 00000000 		.word	.LANCHOR1
 582              		.cfi_endproc
 583              	.LFE76:
 584              		.size	cmd_read, .-cmd_read
 585              		.section	.text.print_command_list,"ax",%progbits
 586              		.align	2
 587              		.thumb
 588              		.thumb_func
 589              		.type	print_command_list, %function
 590              	print_command_list:
 591              	.LFB81:
 250:ZumoLibrary/debug_uart.c **** 
 251:ZumoLibrary/debug_uart.c **** 
 252:ZumoLibrary/debug_uart.c **** 
 253:ZumoLibrary/debug_uart.c **** 
 254:ZumoLibrary/debug_uart.c **** static void print_command_list(void)
 255:ZumoLibrary/debug_uart.c **** {
 592              		.loc 1 255 0
 593              		.cfi_startproc
 594              		@ args = 0, pretend = 0, frame = 0
 595              		@ frame_needed = 0, uses_anonymous_args = 0
 596 0000 10B5     		push	{r4, lr}
 597              		.cfi_def_cfa_offset 8
 598              		.cfi_offset 4, -8
 599              		.cfi_offset 14, -4
 256:ZumoLibrary/debug_uart.c ****   int i;
 257:ZumoLibrary/debug_uart.c **** 
 258:ZumoLibrary/debug_uart.c ****   ds("commands: \n");
 600              		.loc 1 258 0
 601 0002 1748     		ldr	r0, .L70
ARM GAS  C:\Users\EVGENY~1\AppData\Local\Temp\ccHog4Pd.s 			page 17


 602 0004 FFF7FEFF 		bl	ds
 603              	.LVL63:
 259:ZumoLibrary/debug_uart.c ****   for(i=0; cmdtable[i].cmd != NULL; i++) {
 604              		.loc 1 259 0
 605 0008 0024     		movs	r4, #0
 606 000a 1DE0     		b	.L65
 607              	.LVL64:
 608              	.L68:
 260:ZumoLibrary/debug_uart.c ****     ds(cmdtable[i].name);
 609              		.loc 1 260 0
 610 000c 04EB4402 		add	r2, r4, r4, lsl #1
 611 0010 9300     		lsls	r3, r2, #2
 612 0012 144A     		ldr	r2, .L70+4
 613 0014 D058     		ldr	r0, [r2, r3]
 614 0016 FFF7FEFF 		bl	ds
 615              	.LVL65:
 261:ZumoLibrary/debug_uart.c ****     if((i>0) && (i%5==0)) ds("\n");
 616              		.loc 1 261 0
 617 001a 002C     		cmp	r4, #0
 618 001c 0DDD     		ble	.L66
 619              		.loc 1 261 0 is_stmt 0 discriminator 1
 620 001e 124B     		ldr	r3, .L70+8
 621 0020 83FB0432 		smull	r3, r2, r3, r4
 622 0024 E317     		asrs	r3, r4, #31
 623 0026 C3EB6203 		rsb	r3, r3, r2, asr #1
 624 002a 03EB8303 		add	r3, r3, r3, lsl #2
 625 002e 9C42     		cmp	r4, r3
 626 0030 03D1     		bne	.L66
 627              		.loc 1 261 0 discriminator 2
 628 0032 0E48     		ldr	r0, .L70+12
 629 0034 FFF7FEFF 		bl	ds
 630              	.LVL66:
 631 0038 02E0     		b	.L67
 632              	.L66:
 262:ZumoLibrary/debug_uart.c ****     else ds(" ");
 633              		.loc 1 262 0 is_stmt 1
 634 003a 0D48     		ldr	r0, .L70+16
 635 003c FFF7FEFF 		bl	ds
 636              	.LVL67:
 637              	.L67:
 263:ZumoLibrary/debug_uart.c ****     vTaskDelay(5);
 638              		.loc 1 263 0 discriminator 2
 639 0040 0520     		movs	r0, #5
 640 0042 FFF7FEFF 		bl	vTaskDelay
 641              	.LVL68:
 259:ZumoLibrary/debug_uart.c ****     ds(cmdtable[i].name);
 642              		.loc 1 259 0 discriminator 2
 643 0046 0134     		adds	r4, r4, #1
 644              	.LVL69:
 645              	.L65:
 259:ZumoLibrary/debug_uart.c ****     ds(cmdtable[i].name);
 646              		.loc 1 259 0 is_stmt 0 discriminator 1
 647 0048 04EB4402 		add	r2, r4, r4, lsl #1
 648 004c 9300     		lsls	r3, r2, #2
 649 004e 054A     		ldr	r2, .L70+4
 650 0050 1344     		add	r3, r3, r2
 651 0052 5B68     		ldr	r3, [r3, #4]
ARM GAS  C:\Users\EVGENY~1\AppData\Local\Temp\ccHog4Pd.s 			page 18


 652 0054 002B     		cmp	r3, #0
 653 0056 D9D1     		bne	.L68
 264:ZumoLibrary/debug_uart.c ****   }
 265:ZumoLibrary/debug_uart.c ****   ds("\n");
 654              		.loc 1 265 0 is_stmt 1
 655 0058 0448     		ldr	r0, .L70+12
 656 005a FFF7FEFF 		bl	ds
 657              	.LVL70:
 658 005e 10BD     		pop	{r4, pc}
 659              	.LVL71:
 660              	.L71:
 661              		.align	2
 662              	.L70:
 663 0060 28000000 		.word	.LC3
 664 0064 00000000 		.word	.LANCHOR0
 665 0068 67666666 		.word	1717986919
 666 006c 34000000 		.word	.LC4
 667 0070 38000000 		.word	.LC5
 668              		.cfi_endproc
 669              	.LFE81:
 670              		.size	print_command_list, .-print_command_list
 671              		.section	.text.cmd_help,"ax",%progbits
 672              		.align	2
 673              		.thumb
 674              		.thumb_func
 675              		.type	cmd_help, %function
 676              	cmd_help:
 677              	.LFB82:
 266:ZumoLibrary/debug_uart.c **** }
 267:ZumoLibrary/debug_uart.c **** 
 268:ZumoLibrary/debug_uart.c **** static int cmd_help(char *arg)
 269:ZumoLibrary/debug_uart.c **** {
 678              		.loc 1 269 0
 679              		.cfi_startproc
 680              		@ args = 0, pretend = 0, frame = 0
 681              		@ frame_needed = 0, uses_anonymous_args = 0
 682              	.LVL72:
 683 0000 70B5     		push	{r4, r5, r6, lr}
 684              		.cfi_def_cfa_offset 16
 685              		.cfi_offset 4, -16
 686              		.cfi_offset 5, -12
 687              		.cfi_offset 6, -8
 688              		.cfi_offset 14, -4
 689 0002 0546     		mov	r5, r0
 690              	.LVL73:
 270:ZumoLibrary/debug_uart.c ****   int i;
 271:ZumoLibrary/debug_uart.c **** 
 272:ZumoLibrary/debug_uart.c ****   /* check argument */
 273:ZumoLibrary/debug_uart.c ****   for(i=0; arg[i] != '\0' && arg[i] != ' '; i++);
 691              		.loc 1 273 0
 692 0004 0023     		movs	r3, #0
 693 0006 00E0     		b	.L73
 694              	.LVL74:
 695              	.L75:
 696              		.loc 1 273 0 is_stmt 0 discriminator 4
 697 0008 0133     		adds	r3, r3, #1
 698              	.LVL75:
ARM GAS  C:\Users\EVGENY~1\AppData\Local\Temp\ccHog4Pd.s 			page 19


 699              	.L73:
 700              		.loc 1 273 0 discriminator 1
 701 000a E918     		adds	r1, r5, r3
 702 000c EA5C     		ldrb	r2, [r5, r3]	@ zero_extendqisi2
 703 000e 0AB1     		cbz	r2, .L74
 704              		.loc 1 273 0 discriminator 3
 705 0010 202A     		cmp	r2, #32
 706 0012 F9D1     		bne	.L75
 707              	.L74:
 274:ZumoLibrary/debug_uart.c ****   if(i != 0) {
 708              		.loc 1 274 0 is_stmt 1
 709 0014 7BB3     		cbz	r3, .L76
 275:ZumoLibrary/debug_uart.c ****     arg[i] = '\0';
 710              		.loc 1 275 0
 711 0016 0024     		movs	r4, #0
 712 0018 0C70     		strb	r4, [r1]
 713              	.LVL76:
 276:ZumoLibrary/debug_uart.c ****     for(i=0; cmdtable[i].cmd != NULL; i++) {
 714              		.loc 1 276 0
 715 001a 23E0     		b	.L77
 716              	.LVL77:
 717              	.L79:
 718              	.LBB5:
 277:ZumoLibrary/debug_uart.c ****       int k;
 278:ZumoLibrary/debug_uart.c ****       for(k = 0; arg[k] != '\0' && cmdtable[i].name[k] != '\0'; k++) {
 279:ZumoLibrary/debug_uart.c ****     	if(cmdtable[i].name[k] != arg[k]) break;
 719              		.loc 1 279 0
 720 001c 8A42     		cmp	r2, r1
 721 001e 0DD1     		bne	.L78
 278:ZumoLibrary/debug_uart.c ****     	if(cmdtable[i].name[k] != arg[k]) break;
 722              		.loc 1 278 0 discriminator 2
 723 0020 0133     		adds	r3, r3, #1
 724              	.LVL78:
 725 0022 00E0     		b	.L81
 726              	.LVL79:
 727              	.L83:
 728              	.LBE5:
 729 0024 0023     		movs	r3, #0
 730              	.L81:
 731              	.LVL80:
 732              	.LBB6:
 278:ZumoLibrary/debug_uart.c ****     	if(cmdtable[i].name[k] != arg[k]) break;
 733              		.loc 1 278 0 is_stmt 0 discriminator 1
 734 0026 1E46     		mov	r6, r3
 735 0028 EA5C     		ldrb	r2, [r5, r3]	@ zero_extendqisi2
 736 002a 3AB1     		cbz	r2, .L78
 278:ZumoLibrary/debug_uart.c ****     	if(cmdtable[i].name[k] != arg[k]) break;
 737              		.loc 1 278 0 discriminator 3
 738 002c 04EB4400 		add	r0, r4, r4, lsl #1
 739 0030 8100     		lsls	r1, r0, #2
 740 0032 1448     		ldr	r0, .L85
 741 0034 4158     		ldr	r1, [r0, r1]
 742 0036 C95C     		ldrb	r1, [r1, r3]	@ zero_extendqisi2
 743 0038 0029     		cmp	r1, #0
 744 003a EFD1     		bne	.L79
 745              	.L78:
 280:ZumoLibrary/debug_uart.c ****       }
ARM GAS  C:\Users\EVGENY~1\AppData\Local\Temp\ccHog4Pd.s 			page 20


 281:ZumoLibrary/debug_uart.c ****       if(arg[k] == '\0' && cmdtable[i].name[k] == '\0') {
 746              		.loc 1 281 0 is_stmt 1
 747 003c 8AB9     		cbnz	r2, .L80
 748              		.loc 1 281 0 is_stmt 0 discriminator 1
 749 003e 04EB4402 		add	r2, r4, r4, lsl #1
 750 0042 9300     		lsls	r3, r2, #2
 751              	.LVL81:
 752 0044 0F4A     		ldr	r2, .L85
 753 0046 D358     		ldr	r3, [r2, r3]
 754 0048 9B5D     		ldrb	r3, [r3, r6]	@ zero_extendqisi2
 755 004a 53B9     		cbnz	r3, .L80
 282:ZumoLibrary/debug_uart.c **** 	    ds(cmdtable[i].help);
 756              		.loc 1 282 0 is_stmt 1
 757 004c 04EB4402 		add	r2, r4, r4, lsl #1
 758 0050 9300     		lsls	r3, r2, #2
 759 0052 0C4A     		ldr	r2, .L85
 760 0054 1344     		add	r3, r3, r2
 761 0056 9868     		ldr	r0, [r3, #8]
 762 0058 FFF7FEFF 		bl	ds
 763              	.LVL82:
 283:ZumoLibrary/debug_uart.c **** 	    ds("\n");
 764              		.loc 1 283 0
 765 005c 0A48     		ldr	r0, .L85+4
 766 005e FFF7FEFF 		bl	ds
 767              	.LVL83:
 768              	.L80:
 769              	.LBE6:
 276:ZumoLibrary/debug_uart.c ****       int k;
 770              		.loc 1 276 0 discriminator 2
 771 0062 0134     		adds	r4, r4, #1
 772              	.LVL84:
 773              	.L77:
 276:ZumoLibrary/debug_uart.c ****       int k;
 774              		.loc 1 276 0 is_stmt 0 discriminator 1
 775 0064 04EB4402 		add	r2, r4, r4, lsl #1
 776 0068 9300     		lsls	r3, r2, #2
 777 006a 064A     		ldr	r2, .L85
 778 006c 1344     		add	r3, r3, r2
 779 006e 5B68     		ldr	r3, [r3, #4]
 780 0070 002B     		cmp	r3, #0
 781 0072 D7D1     		bne	.L83
 782 0074 04E0     		b	.L82
 783              	.LVL85:
 784              	.L76:
 284:ZumoLibrary/debug_uart.c ****       }
 285:ZumoLibrary/debug_uart.c ****     }
 286:ZumoLibrary/debug_uart.c ****   }
 287:ZumoLibrary/debug_uart.c ****   else {
 288:ZumoLibrary/debug_uart.c ****     ds("help [command]\n");
 785              		.loc 1 288 0 is_stmt 1
 786 0076 0548     		ldr	r0, .L85+8
 787              	.LVL86:
 788 0078 FFF7FEFF 		bl	ds
 789              	.LVL87:
 289:ZumoLibrary/debug_uart.c ****     print_command_list();
 790              		.loc 1 289 0
 791 007c FFF7FEFF 		bl	print_command_list
ARM GAS  C:\Users\EVGENY~1\AppData\Local\Temp\ccHog4Pd.s 			page 21


 792              	.LVL88:
 793              	.L82:
 290:ZumoLibrary/debug_uart.c ****   }
 291:ZumoLibrary/debug_uart.c **** 
 292:ZumoLibrary/debug_uart.c ****   return 0;
 293:ZumoLibrary/debug_uart.c **** }
 794              		.loc 1 293 0
 795 0080 0020     		movs	r0, #0
 796 0082 70BD     		pop	{r4, r5, r6, pc}
 797              	.LVL89:
 798              	.L86:
 799              		.align	2
 800              	.L85:
 801 0084 00000000 		.word	.LANCHOR0
 802 0088 34000000 		.word	.LC4
 803 008c 3C000000 		.word	.LC6
 804              		.cfi_endproc
 805              	.LFE82:
 806              		.size	cmd_help, .-cmd_help
 807              		.section	.text.DebugCommandTask,"ax",%progbits
 808              		.align	2
 809              		.global	DebugCommandTask
 810              		.thumb
 811              		.thumb_func
 812              		.type	DebugCommandTask, %function
 813              	DebugCommandTask:
 814              	.LFB72:
 115:ZumoLibrary/debug_uart.c ****     (void) pvParameters; //quiet the compiler warning
 815              		.loc 1 115 0
 816              		.cfi_startproc
 817              		@ args = 0, pretend = 0, frame = 72
 818              		@ frame_needed = 0, uses_anonymous_args = 0
 819              	.LVL90:
 820 0000 30B5     		push	{r4, r5, lr}
 821              		.cfi_def_cfa_offset 12
 822              		.cfi_offset 4, -12
 823              		.cfi_offset 5, -8
 824              		.cfi_offset 14, -4
 825 0002 93B0     		sub	sp, sp, #76
 826              		.cfi_def_cfa_offset 88
 827              	.LVL91:
 119:ZumoLibrary/debug_uart.c **** 
 828              		.loc 1 119 0
 829 0004 0024     		movs	r4, #0
 830              	.LVL92:
 831              	.L88:
 122:ZumoLibrary/debug_uart.c ****         if(c != 0) {
 832              		.loc 1 122 0
 833 0006 4FF0FF31 		mov	r1, #-1
 834 000a 0DF14700 		add	r0, sp, #71
 835 000e FFF7FEFF 		bl	xSerial1GetChar
 836              	.LVL93:
 123:ZumoLibrary/debug_uart.c ****             if(c == '\n' || c == '\r') {
 837              		.loc 1 123 0
 838 0012 9DF84730 		ldrb	r3, [sp, #71]	@ zero_extendqisi2
 839 0016 43B3     		cbz	r3, .L89
 124:ZumoLibrary/debug_uart.c ****                 if(pos > 0) {
ARM GAS  C:\Users\EVGENY~1\AppData\Local\Temp\ccHog4Pd.s 			page 22


 840              		.loc 1 124 0
 841 0018 0A2B     		cmp	r3, #10
 842 001a 01D0     		beq	.L90
 124:ZumoLibrary/debug_uart.c ****                 if(pos > 0) {
 843              		.loc 1 124 0 is_stmt 0 discriminator 1
 844 001c 0D2B     		cmp	r3, #13
 845 001e 0FD1     		bne	.L91
 846              	.L90:
 125:ZumoLibrary/debug_uart.c **** 		            xQueueSend( xSerialTxQueue, &c, portMAX_DELAY);
 847              		.loc 1 125 0 is_stmt 1
 848 0020 002C     		cmp	r4, #0
 849 0022 F0DD     		ble	.L88
 126:ZumoLibrary/debug_uart.c ****                     pos = 0;
 850              		.loc 1 126 0
 851 0024 0023     		movs	r3, #0
 852 0026 4FF0FF32 		mov	r2, #-1
 853 002a 0DF14701 		add	r1, sp, #71
 854 002e 1148     		ldr	r0, .L94
 855 0030 0068     		ldr	r0, [r0]
 856 0032 FFF7FEFF 		bl	xQueueGenericSend
 857              	.LVL94:
 128:ZumoLibrary/debug_uart.c ****                 }
 858              		.loc 1 128 0
 859 0036 01A8     		add	r0, sp, #4
 860 0038 FFF7FEFF 		bl	process_command
 861              	.LVL95:
 127:ZumoLibrary/debug_uart.c ****                     process_command(cmd);
 862              		.loc 1 127 0
 863 003c 0024     		movs	r4, #0
 864 003e E2E7     		b	.L88
 865              	.LVL96:
 866              	.L91:
 131:ZumoLibrary/debug_uart.c ****                 cmd[pos++] = c;
 867              		.loc 1 131 0
 868 0040 3E2C     		cmp	r4, #62
 869 0042 E0DC     		bgt	.L88
 132:ZumoLibrary/debug_uart.c ****                 cmd[pos] = 0;
 870              		.loc 1 132 0
 871 0044 651C     		adds	r5, r4, #1
 872              	.LVL97:
 873 0046 12AA     		add	r2, sp, #72
 874 0048 1444     		add	r4, r4, r2
 875 004a 04F8443C 		strb	r3, [r4, #-68]
 133:ZumoLibrary/debug_uart.c **** 		        xQueueSend( xSerialTxQueue, &c, portMAX_DELAY);
 876              		.loc 1 133 0
 877 004e 2A44     		add	r2, r2, r5
 878 0050 0023     		movs	r3, #0
 879 0052 02F8443C 		strb	r3, [r2, #-68]
 134:ZumoLibrary/debug_uart.c ****             }
 880              		.loc 1 134 0
 881 0056 4FF0FF32 		mov	r2, #-1
 882 005a 0DF14701 		add	r1, sp, #71
 883 005e 0548     		ldr	r0, .L94
 884 0060 0068     		ldr	r0, [r0]
 885 0062 FFF7FEFF 		bl	xQueueGenericSend
 886              	.LVL98:
 132:ZumoLibrary/debug_uart.c ****                 cmd[pos] = 0;
ARM GAS  C:\Users\EVGENY~1\AppData\Local\Temp\ccHog4Pd.s 			page 23


 887              		.loc 1 132 0
 888 0066 2C46     		mov	r4, r5
 889 0068 CDE7     		b	.L88
 890              	.LVL99:
 891              	.L89:
 138:ZumoLibrary/debug_uart.c ****         }
 892              		.loc 1 138 0
 893 006a 0120     		movs	r0, #1
 894 006c FFF7FEFF 		bl	vTaskDelay
 895              	.LVL100:
 896 0070 C9E7     		b	.L88
 897              	.L95:
 898 0072 00BF     		.align	2
 899              	.L94:
 900 0074 00000000 		.word	.LANCHOR1
 901              		.cfi_endproc
 902              	.LFE72:
 903              		.size	DebugCommandTask, .-DebugCommandTask
 904              		.section	.rodata
 905              		.align	2
 906              		.set	.LANCHOR0,. + 0
 907              		.type	cmdtable, %object
 908              		.size	cmdtable, 120
 909              	cmdtable:
 910 0000 4C000000 		.word	.LC7
 911 0004 00000000 		.word	cmd_help
 912 0008 3C000000 		.word	.LC6
 913 000c 50000000 		.word	.LC8
 914 0010 00000000 		.word	cmd_help
 915 0014 3C000000 		.word	.LC6
 916 0018 58000000 		.word	.LC9
 917 001c 00000000 		.word	cmd_socket
 918 0020 60000000 		.word	.LC10
 919 0024 88000000 		.word	.LC11
 920 0028 00000000 		.word	cmd_connect
 921 002c 90000000 		.word	.LC12
 922 0030 B0000000 		.word	.LC13
 923 0034 00000000 		.word	cmd_close
 924 0038 B8000000 		.word	.LC14
 925 003c D4000000 		.word	.LC15
 926 0040 00000000 		.word	cmd_read
 927 0044 DC000000 		.word	.LC16
 928 0048 F0000000 		.word	.LC17
 929 004c 00000000 		.word	cmd_write
 930 0050 F8000000 		.word	.LC18
 931 0054 20010000 		.word	.LC19
 932 0058 00000000 		.word	cmd_tasklist
 933 005c 28010000 		.word	.LC20
 934 0060 50010000 		.word	.LC21
 935 0064 00000000 		.word	cmd_stats
 936 0068 58010000 		.word	.LC22
 937 006c 7C010000 		.word	.LC23
 938 0070 00000000 		.word	0
 939 0074 7C010000 		.word	.LC23
 940              		.section	.rodata.str1.4,"aMS",%progbits,1
 941              		.align	2
 942              	.LC0:
ARM GAS  C:\Users\EVGENY~1\AppData\Local\Temp\ccHog4Pd.s 			page 24


 943 0000 3139322E 		.ascii	"192.168.1.179\000"
 943      3136382E 
 943      312E3137 
 943      3900
 944 000e 0000     		.space	2
 945              	.LC1:
 946 0010 70617373 		.ascii	"password\000"
 946      776F7264 
 946      00
 947 0019 000000   		.space	3
 948              	.LC2:
 949 001c 4D595F4E 		.ascii	"MY_NETWORK\000"
 949      4554574F 
 949      524B00
 950 0027 00       		.space	1
 951              	.LC3:
 952 0028 636F6D6D 		.ascii	"commands: \012\000"
 952      616E6473 
 952      3A200A00 
 953              	.LC4:
 954 0034 0A00     		.ascii	"\012\000"
 955 0036 0000     		.space	2
 956              	.LC5:
 957 0038 2000     		.ascii	" \000"
 958 003a 0000     		.space	2
 959              	.LC6:
 960 003c 68656C70 		.ascii	"help [command]\012\000"
 960      205B636F 
 960      6D6D616E 
 960      645D0A00 
 961              	.LC7:
 962 004c 3F00     		.ascii	"?\000"
 963 004e 0000     		.space	2
 964              	.LC8:
 965 0050 68656C70 		.ascii	"help\000"
 965      00
 966 0055 000000   		.space	3
 967              	.LC9:
 968 0058 736F636B 		.ascii	"socket\000"
 968      657400
 969 005f 00       		.space	1
 970              	.LC10:
 971 0060 736F636B 		.ascii	"socket - starts ESP8266 socket task\012\000"
 971      6574202D 
 971      20737461 
 971      72747320 
 971      45535038 
 972 0085 000000   		.space	3
 973              	.LC11:
 974 0088 636F6E6E 		.ascii	"connect\000"
 974      65637400 
 975              	.LC12:
 976 0090 636F6E6E 		.ascii	"connect - connect to a server\012\000"
 976      65637420 
 976      2D20636F 
 976      6E6E6563 
 976      7420746F 
ARM GAS  C:\Users\EVGENY~1\AppData\Local\Temp\ccHog4Pd.s 			page 25


 977 00af 00       		.space	1
 978              	.LC13:
 979 00b0 636C6F73 		.ascii	"close\000"
 979      6500
 980 00b6 0000     		.space	2
 981              	.LC14:
 982 00b8 636C6F73 		.ascii	"close - close connection\012\000"
 982      65202D20 
 982      636C6F73 
 982      6520636F 
 982      6E6E6563 
 983 00d2 0000     		.space	2
 984              	.LC15:
 985 00d4 72656164 		.ascii	"read\000"
 985      00
 986 00d9 000000   		.space	3
 987              	.LC16:
 988 00dc 72656164 		.ascii	"read from socket\012\000"
 988      2066726F 
 988      6D20736F 
 988      636B6574 
 988      0A00
 989 00ee 0000     		.space	2
 990              	.LC17:
 991 00f0 77726974 		.ascii	"write\000"
 991      6500
 992 00f6 0000     		.space	2
 993              	.LC18:
 994 00f8 77726974 		.ascii	"write <data> - writes <data> to socket\012\000"
 994      65203C64 
 994      6174613E 
 994      202D2077 
 994      72697465 
 995              	.LC19:
 996 0120 6C697374 		.ascii	"list\000"
 996      00
 997 0125 000000   		.space	3
 998              	.LC20:
 999 0128 6C697374 		.ascii	"list - list currently running tasks\012\000"
 999      202D206C 
 999      69737420 
 999      63757272 
 999      656E746C 
 1000 014d 000000   		.space	3
 1001              	.LC21:
 1002 0150 73746174 		.ascii	"stat\000"
 1002      00
 1003 0155 000000   		.space	3
 1004              	.LC22:
 1005 0158 73746174 		.ascii	"stat - print runtime statistics\012\000"
 1005      202D2070 
 1005      72696E74 
 1005      2072756E 
 1005      74696D65 
 1006 0179 000000   		.space	3
 1007              	.LC23:
 1008 017c 00       		.ascii	"\000"
ARM GAS  C:\Users\EVGENY~1\AppData\Local\Temp\ccHog4Pd.s 			page 26


 1009              		.bss
 1010              		.align	2
 1011              		.set	.LANCHOR1,. + 0
 1012              		.type	xSerialTxQueue, %object
 1013              		.size	xSerialTxQueue, 4
 1014              	xSerialTxQueue:
 1015 0000 00000000 		.space	4
 1016              		.type	u1_mutex, %object
 1017              		.size	u1_mutex, 4
 1018              	u1_mutex:
 1019 0004 00000000 		.space	4
 1020              		.type	prt_buffer, %object
 1021              		.size	prt_buffer, 1024
 1022              	prt_buffer:
 1023 0008 00000000 		.space	1024
 1023      00000000 
 1023      00000000 
 1023      00000000 
 1023      00000000 
 1024              		.type	buffer.8496, %object
 1025              		.size	buffer.8496, 64
 1026              	buffer.8496:
 1027 0408 00000000 		.space	64
 1027      00000000 
 1027      00000000 
 1027      00000000 
 1027      00000000 
 1028              		.text
 1029              	.Letext0:
 1030              		.file 2 "c:\\program files (x86)\\cypress\\psoc creator\\4.2\\psoc creator\\import\\gnu\\arm\\5.4.
 1031              		.file 3 "c:\\program files (x86)\\cypress\\psoc creator\\4.2\\psoc creator\\import\\gnu\\arm\\5.4.
 1032              		.file 4 "..\\FreeRTOS\\Source\\portable\\GCC\\ARM_CM3/portmacro.h"
 1033              		.file 5 "..\\FreeRTOS\\Source\\include/queue.h"
 1034              		.file 6 "..\\FreeRTOS\\Source\\include/semphr.h"
 1035              		.file 7 "c:\\program files (x86)\\cypress\\psoc creator\\4.2\\psoc creator\\import\\gnu\\arm\\5.4.
 1036              		.file 8 "ZumoLibrary\\esp8266_socket.h"
 1037              		.file 9 "Generated_Source\\PSoC5/UART_1.h"
 1038              		.file 10 "..\\FreeRTOS\\Source\\include/task.h"
 1039              		.file 11 "ZumoLibrary\\serial1.h"
 1040              		.file 12 "Generated_Source\\PSoC5/core_cm3.h"