ARM GAS  C:\Users\DBY\AppData\Local\Temp\ccJ3URFe.s 			page 1


   1              		.syntax unified
   2              		.cpu cortex-m3
   3              		.fpu softvfp
   4              		.eabi_attribute 20, 1
   5              		.eabi_attribute 21, 1
   6              		.eabi_attribute 23, 3
   7              		.eabi_attribute 24, 1
   8              		.eabi_attribute 25, 1
   9              		.eabi_attribute 26, 1
  10              		.eabi_attribute 30, 1
  11              		.eabi_attribute 34, 1
  12              		.eabi_attribute 18, 4
  13              		.thumb
  14              		.syntax unified
  15              		.file	"Dongbin.c"
  16              		.text
  17              	.Ltext0:
  18              		.cfi_sections	.debug_frame
  19              		.section	.text.progEnd_DB,"ax",%progbits
  20              		.align	2
  21              		.global	progEnd_DB
  22              		.thumb
  23              		.thumb_func
  24              		.type	progEnd_DB, %function
  25              	progEnd_DB:
  26              	.LFB89:
  27              		.file 1 "Dongbin.c"
   1:Dongbin.c     **** /* ========================================
   2:Dongbin.c     ****  *
   3:Dongbin.c     ****  * Copyright YOUR COMPANY, THE YEAR
   4:Dongbin.c     ****  * All Rights Reserved
   5:Dongbin.c     ****  * UNPUBLISHED, LICENSED SOFTWARE.
   6:Dongbin.c     ****  *
   7:Dongbin.c     ****  * CONFIDENTIAL AND PROPRIETARY INFORMATION
   8:Dongbin.c     ****  * WHICH IS THE PROPERTY OF your company.
   9:Dongbin.c     ****  *
  10:Dongbin.c     ****  * ========================================
  11:Dongbin.c     **** */
  12:Dongbin.c     **** #include <project.h>
  13:Dongbin.c     **** #include <stdio.h>
  14:Dongbin.c     **** #include "FreeRTOS.h"
  15:Dongbin.c     **** #include "task.h"
  16:Dongbin.c     **** #include "Motor.h"
  17:Dongbin.c     **** #include "Ultra.h"
  18:Dongbin.c     **** #include "Nunchuk.h"
  19:Dongbin.c     **** #include "Reflectance.h"
  20:Dongbin.c     **** #include "Gyro.h"
  21:Dongbin.c     **** #include "Accel_magnet.h"
  22:Dongbin.c     **** #include "LSM303D.h"
  23:Dongbin.c     **** #include "IR.h"
  24:Dongbin.c     **** #include "Beep.h"
  25:Dongbin.c     **** #include "mqtt_sender.h"
  26:Dongbin.c     **** #include <time.h>
  27:Dongbin.c     **** #include <sys/time.h>
  28:Dongbin.c     **** #include "serial1.h"
  29:Dongbin.c     **** #include <unistd.h>
  30:Dongbin.c     **** #include "Dongbin.h"
ARM GAS  C:\Users\DBY\AppData\Local\Temp\ccJ3URFe.s 			page 2


  31:Dongbin.c     **** 
  32:Dongbin.c     **** 
  33:Dongbin.c     **** /************************ week3 Assignment 1 *******************/
  34:Dongbin.c     **** 
  35:Dongbin.c     **** void week3_1_DB(void){
  36:Dongbin.c     ****     motor_start();              // enable motor controller
  37:Dongbin.c     ****     motor_forward(0,0);         // set speed to zero to stop motors
  38:Dongbin.c     ****    
  39:Dongbin.c     ****     while(SW1_Read());
  40:Dongbin.c     ****     BatteryLed_Write(true);
  41:Dongbin.c     ****    
  42:Dongbin.c     ****     vTaskDelay(500);
  43:Dongbin.c     ****    
  44:Dongbin.c     ****     BatteryLed_Write(false);
  45:Dongbin.c     ****     motor_forward(125,2800);     //moving forward
  46:Dongbin.c     ****     tankTR_DB(255,103);             //turn left
  47:Dongbin.c     ****     motor_forward(125,2350);    //continue moving forward
  48:Dongbin.c     ****     tankTR_DB(255,103);
  49:Dongbin.c     ****     motor_forward(125,2500);
  50:Dongbin.c     ****     tankTR_DB(255,123);
  51:Dongbin.c     ****     
  52:Dongbin.c     ****     int i = 0;
  53:Dongbin.c     ****     while(i < 22){
  54:Dongbin.c     ****         motor_forward(125,85);
  55:Dongbin.c     ****         softTR_DB(1+i);
  56:Dongbin.c     ****         i++;
  57:Dongbin.c     ****         if(i == 22){
  58:Dongbin.c     ****           softTR_DB(6);   
  59:Dongbin.c     ****         }
  60:Dongbin.c     ****     }
  61:Dongbin.c     ****     motor_forward(125,728);
  62:Dongbin.c     ****     motor_forward(0,0);         // stop motors
  63:Dongbin.c     ****     motor_stop();               // disable motor controller
  64:Dongbin.c     ****     
  65:Dongbin.c     ****     progEnd_DB(500);
  66:Dongbin.c     **** }
  67:Dongbin.c     **** 
  68:Dongbin.c     **** 
  69:Dongbin.c     **** /******************* week 3 Assignment 2 ***************************/
  70:Dongbin.c     **** 
  71:Dongbin.c     **** void week3_2_DB(void){
  72:Dongbin.c     ****     motor_start();              // enable motor controller
  73:Dongbin.c     ****     motor_forward(0,0);         // set speed to zero to stop motors
  74:Dongbin.c     ****     
  75:Dongbin.c     ****     while(SW1_Read());
  76:Dongbin.c     ****     BatteryLed_Write(true);
  77:Dongbin.c     ****     vTaskDelay(500); 
  78:Dongbin.c     ****     BatteryLed_Write(false);
  79:Dongbin.c     ****     Ultra_Start();              // Ultra Sonic Start function
  80:Dongbin.c     ****     int i = 0;
  81:Dongbin.c     ****     while(i < 10) {
  82:Dongbin.c     ****         int d = Ultra_GetDistance();
  83:Dongbin.c     ****         // Print the detected distance (centimeters)
  84:Dongbin.c     ****         printf("distance = %d\r\n", d);
  85:Dongbin.c     ****         vTaskDelay(300);
  86:Dongbin.c     ****         motor_forward(100,200);
  87:Dongbin.c     ****         if(d > 0 && d < 20){
ARM GAS  C:\Users\DBY\AppData\Local\Temp\ccJ3URFe.s 			page 3


  88:Dongbin.c     ****            motor_forward(0,0);
  89:Dongbin.c     ****            vTaskDelay(300);
  90:Dongbin.c     ****            motor_backward(125, 500);
  91:Dongbin.c     ****            tankTL120_DB(600);
  92:Dongbin.c     ****            i++;
  93:Dongbin.c     ****            printf("%d time(s)\n", i);
  94:Dongbin.c     ****         }
  95:Dongbin.c     ****     }
  96:Dongbin.c     ****     motor_forward(0,0);         // stop motors
  97:Dongbin.c     ****     motor_stop();               // disable motor controller
  98:Dongbin.c     ****     
  99:Dongbin.c     ****     progEnd_DB(500);
 100:Dongbin.c     **** }
 101:Dongbin.c     **** 
 102:Dongbin.c     **** /********************* week 3 Assignment 3 *************************************/
 103:Dongbin.c     **** void week3_3_DB(void){
 104:Dongbin.c     ****     Ultra_Start();              // Ultra Sonic Start function
 105:Dongbin.c     ****     motor_start();              // enable motor controller
 106:Dongbin.c     ****     motor_forward(0,0);         // set speed to zero to stop motors
 107:Dongbin.c     ****     
 108:Dongbin.c     ****     while(SW1_Read());
 109:Dongbin.c     ****     BatteryLed_Write(true);
 110:Dongbin.c     **** 	vTaskDelay(200); 
 111:Dongbin.c     ****     BatteryLed_Write(false);
 112:Dongbin.c     ****     
 113:Dongbin.c     ****     while(true) {
 114:Dongbin.c     ****         int d = Ultra_GetDistance();     
 115:Dongbin.c     ****         //printf("distance = %d\r\n", d);   // Print the detected distance (centimeters)
 116:Dongbin.c     ****         vTaskDelay(300);
 117:Dongbin.c     ****         
 118:Dongbin.c     ****         motor_forward(80,200);
 119:Dongbin.c     ****         if(d < 10){
 120:Dongbin.c     ****            motor_forward(0,0);
 121:Dongbin.c     ****            vTaskDelay(100);
 122:Dongbin.c     ****            motor_backward(125, 1000);
 123:Dongbin.c     ****            if(randTurnLR_DB() == 1){
 124:Dongbin.c     ****                 tankRandTR_DB(randTurnDeg_DB());
 125:Dongbin.c     ****                 printf("random turn %d\n", randTurnLR_DB());
 126:Dongbin.c     ****                 printf("random turning delay %d\n", randTurnDeg_DB()); 
 127:Dongbin.c     ****             }else{
 128:Dongbin.c     ****                 tankRandTL_DB(randTurnDeg_DB()); 
 129:Dongbin.c     ****                 printf("random turn %d\n", randTurnLR_DB());
 130:Dongbin.c     ****                 printf("random turning delay %d\n", randTurnDeg_DB());
 131:Dongbin.c     ****             }
 132:Dongbin.c     ****         }
 133:Dongbin.c     ****         
 134:Dongbin.c     ****         if(!SW1_Read ()){
 135:Dongbin.c     ****             break;   
 136:Dongbin.c     ****         }
 137:Dongbin.c     ****     }
 138:Dongbin.c     ****     motor_forward(0,0);         // stop motors
 139:Dongbin.c     ****     motor_stop();               // disable motor controller
 140:Dongbin.c     ****     
 141:Dongbin.c     ****     
 142:Dongbin.c     ****     progEnd_DB(500);
 143:Dongbin.c     **** }
 144:Dongbin.c     **** 
ARM GAS  C:\Users\DBY\AppData\Local\Temp\ccJ3URFe.s 			page 4


 145:Dongbin.c     **** /****************************** week 4 Assignment 1 ****************************************/
 146:Dongbin.c     **** void week4_1_DB(void){
 147:Dongbin.c     ****     
 148:Dongbin.c     ****     IR_Start();
 149:Dongbin.c     ****     onYourMark_DB();    //move the motor to first line
 150:Dongbin.c     ****     
 151:Dongbin.c     ****     struct sensors_ dig;
 152:Dongbin.c     ****     reflectance_start();
 153:Dongbin.c     ****     reflectance_set_threshold(13000, 13000, 11000, 11000, 13000, 13000);
 154:Dongbin.c     ****     
 155:Dongbin.c     ****     IR_wait();
 156:Dongbin.c     ****     motor_forward(125,0);
 157:Dongbin.c     ****     for(int i = 0; i < 4; i++){
 158:Dongbin.c     ****         while(!(dig.L3 == 0 && dig.L2 == 0 && dig.R2 == 0 && dig.R3 == 0)){
 159:Dongbin.c     ****             reflectance_digital(&dig);
 160:Dongbin.c     ****         }
 161:Dongbin.c     ****         motor_forward(0,0);
 162:Dongbin.c     ****         vTaskDelay(1000);
 163:Dongbin.c     ****         while(!(dig.L3 == 1 && dig.L2 == 1 && dig.R2 == 1 && dig.R3 == 1)){
 164:Dongbin.c     ****             reflectance_digital(&dig);
 165:Dongbin.c     ****             motor_forward(125,0);
 166:Dongbin.c     ****         }
 167:Dongbin.c     ****         printf("loop i = %d\n",i); 
 168:Dongbin.c     ****     }
 169:Dongbin.c     ****     motor_forward(0,0);
 170:Dongbin.c     ****     motor_stop();
 171:Dongbin.c     ****   
 172:Dongbin.c     ****     progEnd_DB(500);
 173:Dongbin.c     ****     
 174:Dongbin.c     **** }
 175:Dongbin.c     **** 
 176:Dongbin.c     **** 
 177:Dongbin.c     **** 
 178:Dongbin.c     **** 
 179:Dongbin.c     **** 
 180:Dongbin.c     **** 
 181:Dongbin.c     **** 
 182:Dongbin.c     **** 
 183:Dongbin.c     **** 
 184:Dongbin.c     **** 
 185:Dongbin.c     **** 
 186:Dongbin.c     **** 
 187:Dongbin.c     **** 
 188:Dongbin.c     **** 
 189:Dongbin.c     **** 
 190:Dongbin.c     **** 
 191:Dongbin.c     **** 
 192:Dongbin.c     **** 
 193:Dongbin.c     **** 
 194:Dongbin.c     **** 
 195:Dongbin.c     **** 
 196:Dongbin.c     **** 
 197:Dongbin.c     **** 
 198:Dongbin.c     **** 
 199:Dongbin.c     **** 
 200:Dongbin.c     **** 
 201:Dongbin.c     **** 
ARM GAS  C:\Users\DBY\AppData\Local\Temp\ccJ3URFe.s 			page 5


 202:Dongbin.c     **** 
 203:Dongbin.c     **** 
 204:Dongbin.c     **** 
 205:Dongbin.c     **** 
 206:Dongbin.c     **** 
 207:Dongbin.c     **** 
 208:Dongbin.c     **** 
 209:Dongbin.c     **** 
 210:Dongbin.c     **** 
 211:Dongbin.c     **** 
 212:Dongbin.c     **** 
 213:Dongbin.c     **** 
 214:Dongbin.c     **** 
 215:Dongbin.c     **** 
 216:Dongbin.c     **** 
 217:Dongbin.c     **** 
 218:Dongbin.c     **** 
 219:Dongbin.c     **** 
 220:Dongbin.c     **** 
 221:Dongbin.c     **** 
 222:Dongbin.c     **** 
 223:Dongbin.c     **** 
 224:Dongbin.c     **** 
 225:Dongbin.c     **** 
 226:Dongbin.c     **** 
 227:Dongbin.c     **** 
 228:Dongbin.c     **** 
 229:Dongbin.c     **** 
 230:Dongbin.c     **** 
 231:Dongbin.c     **** 
 232:Dongbin.c     **** void progEnd_DB(uint32_t delay){
  28              		.loc 1 232 0
  29              		.cfi_startproc
  30              		@ args = 0, pretend = 0, frame = 0
  31              		@ frame_needed = 0, uses_anonymous_args = 0
  32              	.LVL0:
  33 0000 38B5     		push	{r3, r4, r5, lr}
  34              		.cfi_def_cfa_offset 16
  35              		.cfi_offset 3, -16
  36              		.cfi_offset 4, -12
  37              		.cfi_offset 5, -8
  38              		.cfi_offset 14, -4
  39 0002 0546     		mov	r5, r0
  40              	.LVL1:
 233:Dongbin.c     ****     bool led = false;
  41              		.loc 1 233 0
  42 0004 0024     		movs	r4, #0
  43              	.LVL2:
  44              	.L2:
 234:Dongbin.c     ****     while(true){
 235:Dongbin.c     ****         BatteryLed_Write(led^=1);
  45              		.loc 1 235 0 discriminator 1
  46 0006 84F00104 		eor	r4, r4, #1
  47              	.LVL3:
  48 000a 2046     		mov	r0, r4
  49 000c FFF7FEFF 		bl	BatteryLed_Write
  50              	.LVL4:
ARM GAS  C:\Users\DBY\AppData\Local\Temp\ccJ3URFe.s 			page 6


 236:Dongbin.c     ****         vTaskDelay(delay);
  51              		.loc 1 236 0 discriminator 1
  52 0010 2846     		mov	r0, r5
  53 0012 FFF7FEFF 		bl	vTaskDelay
  54              	.LVL5:
  55 0016 F6E7     		b	.L2
  56              		.cfi_endproc
  57              	.LFE89:
  58              		.size	progEnd_DB, .-progEnd_DB
  59              		.section	.text.tankTL_DB,"ax",%progbits
  60              		.align	2
  61              		.global	tankTL_DB
  62              		.thumb
  63              		.thumb_func
  64              		.type	tankTL_DB, %function
  65              	tankTL_DB:
  66              	.LFB90:
 237:Dongbin.c     ****     }
 238:Dongbin.c     **** }
 239:Dongbin.c     **** void tankTL_DB(uint8_t speed, uint32_t delay){
  67              		.loc 1 239 0
  68              		.cfi_startproc
  69              		@ args = 0, pretend = 0, frame = 0
  70              		@ frame_needed = 0, uses_anonymous_args = 0
  71              	.LVL6:
  72 0000 00B5     		push	{lr}
  73              		.cfi_def_cfa_offset 4
  74              		.cfi_offset 14, -4
  75 0002 83B0     		sub	sp, sp, #12
  76              		.cfi_def_cfa_offset 16
  77 0004 0246     		mov	r2, r0
 240:Dongbin.c     ****     SetMotors(1,0,speed,speed,delay);
  78              		.loc 1 240 0
  79 0006 0091     		str	r1, [sp]
  80 0008 0346     		mov	r3, r0
  81 000a 0021     		movs	r1, #0
  82              	.LVL7:
  83 000c 0120     		movs	r0, #1
  84              	.LVL8:
  85 000e FFF7FEFF 		bl	SetMotors
  86              	.LVL9:
 241:Dongbin.c     **** }
  87              		.loc 1 241 0
  88 0012 03B0     		add	sp, sp, #12
  89              		.cfi_def_cfa_offset 4
  90              		@ sp needed
  91 0014 5DF804FB 		ldr	pc, [sp], #4
  92              		.cfi_endproc
  93              	.LFE90:
  94              		.size	tankTL_DB, .-tankTL_DB
  95              		.section	.text.tankTR_DB,"ax",%progbits
  96              		.align	2
  97              		.global	tankTR_DB
  98              		.thumb
  99              		.thumb_func
 100              		.type	tankTR_DB, %function
 101              	tankTR_DB:
ARM GAS  C:\Users\DBY\AppData\Local\Temp\ccJ3URFe.s 			page 7


 102              	.LFB91:
 242:Dongbin.c     **** void tankTR_DB(uint8_t speed, uint32_t delay){
 103              		.loc 1 242 0
 104              		.cfi_startproc
 105              		@ args = 0, pretend = 0, frame = 0
 106              		@ frame_needed = 0, uses_anonymous_args = 0
 107              	.LVL10:
 108 0000 00B5     		push	{lr}
 109              		.cfi_def_cfa_offset 4
 110              		.cfi_offset 14, -4
 111 0002 83B0     		sub	sp, sp, #12
 112              		.cfi_def_cfa_offset 16
 113 0004 0246     		mov	r2, r0
 243:Dongbin.c     ****     SetMotors(0,1,speed,speed,delay);
 114              		.loc 1 243 0
 115 0006 0091     		str	r1, [sp]
 116 0008 0346     		mov	r3, r0
 117 000a 0121     		movs	r1, #1
 118              	.LVL11:
 119 000c 0020     		movs	r0, #0
 120              	.LVL12:
 121 000e FFF7FEFF 		bl	SetMotors
 122              	.LVL13:
 244:Dongbin.c     **** }
 123              		.loc 1 244 0
 124 0012 03B0     		add	sp, sp, #12
 125              		.cfi_def_cfa_offset 4
 126              		@ sp needed
 127 0014 5DF804FB 		ldr	pc, [sp], #4
 128              		.cfi_endproc
 129              	.LFE91:
 130              		.size	tankTR_DB, .-tankTR_DB
 131              		.section	.text.softTR_DB,"ax",%progbits
 132              		.align	2
 133              		.global	softTR_DB
 134              		.thumb
 135              		.thumb_func
 136              		.type	softTR_DB, %function
 137              	softTR_DB:
 138              	.LFB92:
 245:Dongbin.c     **** void softTR_DB(uint32_t delay){
 139              		.loc 1 245 0
 140              		.cfi_startproc
 141              		@ args = 0, pretend = 0, frame = 0
 142              		@ frame_needed = 0, uses_anonymous_args = 0
 143              	.LVL14:
 144 0000 00B5     		push	{lr}
 145              		.cfi_def_cfa_offset 4
 146              		.cfi_offset 14, -4
 147 0002 83B0     		sub	sp, sp, #12
 148              		.cfi_def_cfa_offset 16
 246:Dongbin.c     ****     SetMotors(0,1,80,80,delay); 
 149              		.loc 1 246 0
 150 0004 0090     		str	r0, [sp]
 151 0006 5023     		movs	r3, #80
 152 0008 1A46     		mov	r2, r3
 153 000a 0121     		movs	r1, #1
ARM GAS  C:\Users\DBY\AppData\Local\Temp\ccJ3URFe.s 			page 8


 154 000c 0020     		movs	r0, #0
 155              	.LVL15:
 156 000e FFF7FEFF 		bl	SetMotors
 157              	.LVL16:
 247:Dongbin.c     **** }
 158              		.loc 1 247 0
 159 0012 03B0     		add	sp, sp, #12
 160              		.cfi_def_cfa_offset 4
 161              		@ sp needed
 162 0014 5DF804FB 		ldr	pc, [sp], #4
 163              		.cfi_endproc
 164              	.LFE92:
 165              		.size	softTR_DB, .-softTR_DB
 166              		.section	.text.week3_1_DB,"ax",%progbits
 167              		.align	2
 168              		.global	week3_1_DB
 169              		.thumb
 170              		.thumb_func
 171              		.type	week3_1_DB, %function
 172              	week3_1_DB:
 173              	.LFB85:
  35:Dongbin.c     ****     motor_start();              // enable motor controller
 174              		.loc 1 35 0
 175              		.cfi_startproc
 176              		@ args = 0, pretend = 0, frame = 0
 177              		@ frame_needed = 0, uses_anonymous_args = 0
 178 0000 10B5     		push	{r4, lr}
 179              		.cfi_def_cfa_offset 8
 180              		.cfi_offset 4, -8
 181              		.cfi_offset 14, -4
  36:Dongbin.c     ****     motor_forward(0,0);         // set speed to zero to stop motors
 182              		.loc 1 36 0
 183 0002 FFF7FEFF 		bl	motor_start
 184              	.LVL17:
  37:Dongbin.c     ****    
 185              		.loc 1 37 0
 186 0006 0021     		movs	r1, #0
 187 0008 0846     		mov	r0, r1
 188 000a FFF7FEFF 		bl	motor_forward
 189              	.LVL18:
 190              	.L11:
  39:Dongbin.c     ****     BatteryLed_Write(true);
 191              		.loc 1 39 0 discriminator 1
 192 000e FFF7FEFF 		bl	SW1_Read
 193              	.LVL19:
 194 0012 0028     		cmp	r0, #0
 195 0014 FBD1     		bne	.L11
  40:Dongbin.c     ****    
 196              		.loc 1 40 0
 197 0016 0120     		movs	r0, #1
 198 0018 FFF7FEFF 		bl	BatteryLed_Write
 199              	.LVL20:
  42:Dongbin.c     ****    
 200              		.loc 1 42 0
 201 001c 4FF4FA70 		mov	r0, #500
 202 0020 FFF7FEFF 		bl	vTaskDelay
 203              	.LVL21:
ARM GAS  C:\Users\DBY\AppData\Local\Temp\ccJ3URFe.s 			page 9


  44:Dongbin.c     ****     motor_forward(125,2800);     //moving forward
 204              		.loc 1 44 0
 205 0024 0020     		movs	r0, #0
 206 0026 FFF7FEFF 		bl	BatteryLed_Write
 207              	.LVL22:
  45:Dongbin.c     ****     tankTR_DB(255,103);             //turn left
 208              		.loc 1 45 0
 209 002a 4FF42F61 		mov	r1, #2800
 210 002e 7D20     		movs	r0, #125
 211 0030 FFF7FEFF 		bl	motor_forward
 212              	.LVL23:
  46:Dongbin.c     ****     motor_forward(125,2350);    //continue moving forward
 213              		.loc 1 46 0
 214 0034 6721     		movs	r1, #103
 215 0036 FF20     		movs	r0, #255
 216 0038 FFF7FEFF 		bl	tankTR_DB
 217              	.LVL24:
  47:Dongbin.c     ****     tankTR_DB(255,103);
 218              		.loc 1 47 0
 219 003c 40F62E11 		movw	r1, #2350
 220 0040 7D20     		movs	r0, #125
 221 0042 FFF7FEFF 		bl	motor_forward
 222              	.LVL25:
  48:Dongbin.c     ****     motor_forward(125,2500);
 223              		.loc 1 48 0
 224 0046 6721     		movs	r1, #103
 225 0048 FF20     		movs	r0, #255
 226 004a FFF7FEFF 		bl	tankTR_DB
 227              	.LVL26:
  49:Dongbin.c     ****     tankTR_DB(255,123);
 228              		.loc 1 49 0
 229 004e 40F6C411 		movw	r1, #2500
 230 0052 7D20     		movs	r0, #125
 231 0054 FFF7FEFF 		bl	motor_forward
 232              	.LVL27:
  50:Dongbin.c     ****     
 233              		.loc 1 50 0
 234 0058 7B21     		movs	r1, #123
 235 005a FF20     		movs	r0, #255
 236 005c FFF7FEFF 		bl	tankTR_DB
 237              	.LVL28:
  52:Dongbin.c     ****     while(i < 22){
 238              		.loc 1 52 0
 239 0060 0024     		movs	r4, #0
  53:Dongbin.c     ****         motor_forward(125,85);
 240              		.loc 1 53 0
 241 0062 0CE0     		b	.L12
 242              	.LVL29:
 243              	.L14:
  54:Dongbin.c     ****         softTR_DB(1+i);
 244              		.loc 1 54 0
 245 0064 5521     		movs	r1, #85
 246 0066 7D20     		movs	r0, #125
 247 0068 FFF7FEFF 		bl	motor_forward
 248              	.LVL30:
  55:Dongbin.c     ****         i++;
 249              		.loc 1 55 0
ARM GAS  C:\Users\DBY\AppData\Local\Temp\ccJ3URFe.s 			page 10


 250 006c 0134     		adds	r4, r4, #1
 251              	.LVL31:
 252 006e 2046     		mov	r0, r4
 253 0070 FFF7FEFF 		bl	softTR_DB
 254              	.LVL32:
  57:Dongbin.c     ****           softTR_DB(6);   
 255              		.loc 1 57 0
 256 0074 162C     		cmp	r4, #22
 257 0076 02D1     		bne	.L12
  58:Dongbin.c     ****         }
 258              		.loc 1 58 0
 259 0078 0620     		movs	r0, #6
 260 007a FFF7FEFF 		bl	softTR_DB
 261              	.LVL33:
 262              	.L12:
  53:Dongbin.c     ****         motor_forward(125,85);
 263              		.loc 1 53 0
 264 007e 152C     		cmp	r4, #21
 265 0080 F0DD     		ble	.L14
  61:Dongbin.c     ****     motor_forward(0,0);         // stop motors
 266              		.loc 1 61 0
 267 0082 4FF43671 		mov	r1, #728
 268 0086 7D20     		movs	r0, #125
 269 0088 FFF7FEFF 		bl	motor_forward
 270              	.LVL34:
  62:Dongbin.c     ****     motor_stop();               // disable motor controller
 271              		.loc 1 62 0
 272 008c 0021     		movs	r1, #0
 273 008e 0846     		mov	r0, r1
 274 0090 FFF7FEFF 		bl	motor_forward
 275              	.LVL35:
  63:Dongbin.c     ****     
 276              		.loc 1 63 0
 277 0094 FFF7FEFF 		bl	motor_stop
 278              	.LVL36:
  65:Dongbin.c     **** }
 279              		.loc 1 65 0
 280 0098 4FF4FA70 		mov	r0, #500
 281 009c FFF7FEFF 		bl	progEnd_DB
 282              	.LVL37:
 283              		.cfi_endproc
 284              	.LFE85:
 285              		.size	week3_1_DB, .-week3_1_DB
 286              		.section	.text.tankTL120_DB,"ax",%progbits
 287              		.align	2
 288              		.global	tankTL120_DB
 289              		.thumb
 290              		.thumb_func
 291              		.type	tankTL120_DB, %function
 292              	tankTL120_DB:
 293              	.LFB93:
 248:Dongbin.c     **** 
 249:Dongbin.c     **** void tankTL120_DB(uint32_t delay){
 294              		.loc 1 249 0
 295              		.cfi_startproc
 296              		@ args = 0, pretend = 0, frame = 0
 297              		@ frame_needed = 0, uses_anonymous_args = 0
ARM GAS  C:\Users\DBY\AppData\Local\Temp\ccJ3URFe.s 			page 11


 298              	.LVL38:
 299 0000 00B5     		push	{lr}
 300              		.cfi_def_cfa_offset 4
 301              		.cfi_offset 14, -4
 302 0002 83B0     		sub	sp, sp, #12
 303              		.cfi_def_cfa_offset 16
 250:Dongbin.c     ****     SetMotors(0,0,25,125,delay);
 304              		.loc 1 250 0
 305 0004 0090     		str	r0, [sp]
 306 0006 7D23     		movs	r3, #125
 307 0008 1922     		movs	r2, #25
 308 000a 0021     		movs	r1, #0
 309 000c 0846     		mov	r0, r1
 310              	.LVL39:
 311 000e FFF7FEFF 		bl	SetMotors
 312              	.LVL40:
 251:Dongbin.c     **** }
 313              		.loc 1 251 0
 314 0012 03B0     		add	sp, sp, #12
 315              		.cfi_def_cfa_offset 4
 316              		@ sp needed
 317 0014 5DF804FB 		ldr	pc, [sp], #4
 318              		.cfi_endproc
 319              	.LFE93:
 320              		.size	tankTL120_DB, .-tankTL120_DB
 321              		.section	.text.week3_2_DB,"ax",%progbits
 322              		.align	2
 323              		.global	week3_2_DB
 324              		.thumb
 325              		.thumb_func
 326              		.type	week3_2_DB, %function
 327              	week3_2_DB:
 328              	.LFB86:
  71:Dongbin.c     ****     motor_start();              // enable motor controller
 329              		.loc 1 71 0
 330              		.cfi_startproc
 331              		@ args = 0, pretend = 0, frame = 0
 332              		@ frame_needed = 0, uses_anonymous_args = 0
 333 0000 38B5     		push	{r3, r4, r5, lr}
 334              		.cfi_def_cfa_offset 16
 335              		.cfi_offset 3, -16
 336              		.cfi_offset 4, -12
 337              		.cfi_offset 5, -8
 338              		.cfi_offset 14, -4
  72:Dongbin.c     ****     motor_forward(0,0);         // set speed to zero to stop motors
 339              		.loc 1 72 0
 340 0002 FFF7FEFF 		bl	motor_start
 341              	.LVL41:
  73:Dongbin.c     ****     
 342              		.loc 1 73 0
 343 0006 0021     		movs	r1, #0
 344 0008 0846     		mov	r0, r1
 345 000a FFF7FEFF 		bl	motor_forward
 346              	.LVL42:
 347              	.L19:
  75:Dongbin.c     ****     BatteryLed_Write(true);
 348              		.loc 1 75 0 discriminator 1
ARM GAS  C:\Users\DBY\AppData\Local\Temp\ccJ3URFe.s 			page 12


 349 000e FFF7FEFF 		bl	SW1_Read
 350              	.LVL43:
 351 0012 0028     		cmp	r0, #0
 352 0014 FBD1     		bne	.L19
  76:Dongbin.c     ****     vTaskDelay(500); 
 353              		.loc 1 76 0
 354 0016 0120     		movs	r0, #1
 355 0018 FFF7FEFF 		bl	BatteryLed_Write
 356              	.LVL44:
  77:Dongbin.c     ****     BatteryLed_Write(false);
 357              		.loc 1 77 0
 358 001c 4FF4FA70 		mov	r0, #500
 359 0020 FFF7FEFF 		bl	vTaskDelay
 360              	.LVL45:
  78:Dongbin.c     ****     Ultra_Start();              // Ultra Sonic Start function
 361              		.loc 1 78 0
 362 0024 0020     		movs	r0, #0
 363 0026 FFF7FEFF 		bl	BatteryLed_Write
 364              	.LVL46:
  79:Dongbin.c     ****     int i = 0;
 365              		.loc 1 79 0
 366 002a FFF7FEFF 		bl	Ultra_Start
 367              	.LVL47:
  80:Dongbin.c     ****     while(i < 10) {
 368              		.loc 1 80 0
 369 002e 0025     		movs	r5, #0
  81:Dongbin.c     ****         int d = Ultra_GetDistance();
 370              		.loc 1 81 0
 371 0030 27E0     		b	.L21
 372              	.LVL48:
 373              	.L22:
 374              	.LBB2:
  82:Dongbin.c     ****         // Print the detected distance (centimeters)
 375              		.loc 1 82 0
 376 0032 FFF7FEFF 		bl	Ultra_GetDistance
 377              	.LVL49:
 378 0036 0446     		mov	r4, r0
 379              	.LVL50:
  84:Dongbin.c     ****         vTaskDelay(300);
 380              		.loc 1 84 0
 381 0038 0146     		mov	r1, r0
 382 003a 1848     		ldr	r0, .L24
 383              	.LVL51:
 384 003c FFF7FEFF 		bl	printf
 385              	.LVL52:
  85:Dongbin.c     ****         motor_forward(100,200);
 386              		.loc 1 85 0
 387 0040 4FF49670 		mov	r0, #300
 388 0044 FFF7FEFF 		bl	vTaskDelay
 389              	.LVL53:
  86:Dongbin.c     ****         if(d > 0 && d < 20){
 390              		.loc 1 86 0
 391 0048 C821     		movs	r1, #200
 392 004a 6420     		movs	r0, #100
 393 004c FFF7FEFF 		bl	motor_forward
 394              	.LVL54:
  87:Dongbin.c     ****            motor_forward(0,0);
ARM GAS  C:\Users\DBY\AppData\Local\Temp\ccJ3URFe.s 			page 13


 395              		.loc 1 87 0
 396 0050 013C     		subs	r4, r4, #1
 397              	.LVL55:
 398 0052 122C     		cmp	r4, #18
 399 0054 15D8     		bhi	.L21
  88:Dongbin.c     ****            vTaskDelay(300);
 400              		.loc 1 88 0
 401 0056 0021     		movs	r1, #0
 402 0058 0846     		mov	r0, r1
 403 005a FFF7FEFF 		bl	motor_forward
 404              	.LVL56:
  89:Dongbin.c     ****            motor_backward(125, 500);
 405              		.loc 1 89 0
 406 005e 4FF49670 		mov	r0, #300
 407 0062 FFF7FEFF 		bl	vTaskDelay
 408              	.LVL57:
  90:Dongbin.c     ****            tankTL120_DB(600);
 409              		.loc 1 90 0
 410 0066 4FF4FA71 		mov	r1, #500
 411 006a 7D20     		movs	r0, #125
 412 006c FFF7FEFF 		bl	motor_backward
 413              	.LVL58:
  91:Dongbin.c     ****            i++;
 414              		.loc 1 91 0
 415 0070 4FF41670 		mov	r0, #600
 416 0074 FFF7FEFF 		bl	tankTL120_DB
 417              	.LVL59:
  92:Dongbin.c     ****            printf("%d time(s)\n", i);
 418              		.loc 1 92 0
 419 0078 0135     		adds	r5, r5, #1
 420              	.LVL60:
  93:Dongbin.c     ****         }
 421              		.loc 1 93 0
 422 007a 2946     		mov	r1, r5
 423 007c 0848     		ldr	r0, .L24+4
 424 007e FFF7FEFF 		bl	printf
 425              	.LVL61:
 426              	.L21:
 427              	.LBE2:
  81:Dongbin.c     ****         int d = Ultra_GetDistance();
 428              		.loc 1 81 0
 429 0082 092D     		cmp	r5, #9
 430 0084 D5DD     		ble	.L22
  96:Dongbin.c     ****     motor_stop();               // disable motor controller
 431              		.loc 1 96 0
 432 0086 0021     		movs	r1, #0
 433 0088 0846     		mov	r0, r1
 434 008a FFF7FEFF 		bl	motor_forward
 435              	.LVL62:
  97:Dongbin.c     ****     
 436              		.loc 1 97 0
 437 008e FFF7FEFF 		bl	motor_stop
 438              	.LVL63:
  99:Dongbin.c     **** }
 439              		.loc 1 99 0
 440 0092 4FF4FA70 		mov	r0, #500
 441 0096 FFF7FEFF 		bl	progEnd_DB
ARM GAS  C:\Users\DBY\AppData\Local\Temp\ccJ3URFe.s 			page 14


 442              	.LVL64:
 443              	.L25:
 444 009a 00BF     		.align	2
 445              	.L24:
 446 009c 00000000 		.word	.LC0
 447 00a0 10000000 		.word	.LC1
 448              		.cfi_endproc
 449              	.LFE86:
 450              		.size	week3_2_DB, .-week3_2_DB
 451              		.section	.text.tankRandTL_DB,"ax",%progbits
 452              		.align	2
 453              		.global	tankRandTL_DB
 454              		.thumb
 455              		.thumb_func
 456              		.type	tankRandTL_DB, %function
 457              	tankRandTL_DB:
 458              	.LFB94:
 252:Dongbin.c     **** 
 253:Dongbin.c     **** void tankRandTL_DB(uint32_t delay){
 459              		.loc 1 253 0
 460              		.cfi_startproc
 461              		@ args = 0, pretend = 0, frame = 0
 462              		@ frame_needed = 0, uses_anonymous_args = 0
 463              	.LVL65:
 464 0000 00B5     		push	{lr}
 465              		.cfi_def_cfa_offset 4
 466              		.cfi_offset 14, -4
 467 0002 83B0     		sub	sp, sp, #12
 468              		.cfi_def_cfa_offset 16
 254:Dongbin.c     ****     SetMotors(1,0,0,200,delay);   
 469              		.loc 1 254 0
 470 0004 0090     		str	r0, [sp]
 471 0006 C823     		movs	r3, #200
 472 0008 0022     		movs	r2, #0
 473 000a 1146     		mov	r1, r2
 474 000c 0120     		movs	r0, #1
 475              	.LVL66:
 476 000e FFF7FEFF 		bl	SetMotors
 477              	.LVL67:
 255:Dongbin.c     **** }
 478              		.loc 1 255 0
 479 0012 03B0     		add	sp, sp, #12
 480              		.cfi_def_cfa_offset 4
 481              		@ sp needed
 482 0014 5DF804FB 		ldr	pc, [sp], #4
 483              		.cfi_endproc
 484              	.LFE94:
 485              		.size	tankRandTL_DB, .-tankRandTL_DB
 486              		.section	.text.tankRandTR_DB,"ax",%progbits
 487              		.align	2
 488              		.global	tankRandTR_DB
 489              		.thumb
 490              		.thumb_func
 491              		.type	tankRandTR_DB, %function
 492              	tankRandTR_DB:
 493              	.LFB95:
 256:Dongbin.c     **** 
ARM GAS  C:\Users\DBY\AppData\Local\Temp\ccJ3URFe.s 			page 15


 257:Dongbin.c     **** void tankRandTR_DB(uint32_t delay){
 494              		.loc 1 257 0
 495              		.cfi_startproc
 496              		@ args = 0, pretend = 0, frame = 0
 497              		@ frame_needed = 0, uses_anonymous_args = 0
 498              	.LVL68:
 499 0000 00B5     		push	{lr}
 500              		.cfi_def_cfa_offset 4
 501              		.cfi_offset 14, -4
 502 0002 83B0     		sub	sp, sp, #12
 503              		.cfi_def_cfa_offset 16
 258:Dongbin.c     ****     SetMotors(0,1,200,0,delay);
 504              		.loc 1 258 0
 505 0004 0090     		str	r0, [sp]
 506 0006 0023     		movs	r3, #0
 507 0008 C822     		movs	r2, #200
 508 000a 0121     		movs	r1, #1
 509 000c 1846     		mov	r0, r3
 510              	.LVL69:
 511 000e FFF7FEFF 		bl	SetMotors
 512              	.LVL70:
 259:Dongbin.c     **** }
 513              		.loc 1 259 0
 514 0012 03B0     		add	sp, sp, #12
 515              		.cfi_def_cfa_offset 4
 516              		@ sp needed
 517 0014 5DF804FB 		ldr	pc, [sp], #4
 518              		.cfi_endproc
 519              	.LFE95:
 520              		.size	tankRandTR_DB, .-tankRandTR_DB
 521              		.section	.text.randTurnLR_DB,"ax",%progbits
 522              		.align	2
 523              		.global	randTurnLR_DB
 524              		.thumb
 525              		.thumb_func
 526              		.type	randTurnLR_DB, %function
 527              	randTurnLR_DB:
 528              	.LFB96:
 260:Dongbin.c     **** 
 261:Dongbin.c     **** int randTurnLR_DB(){
 529              		.loc 1 261 0
 530              		.cfi_startproc
 531              		@ args = 0, pretend = 0, frame = 0
 532              		@ frame_needed = 0, uses_anonymous_args = 0
 533 0000 08B5     		push	{r3, lr}
 534              		.cfi_def_cfa_offset 8
 535              		.cfi_offset 3, -8
 536              		.cfi_offset 14, -4
 262:Dongbin.c     ****     int TurnLR;
 263:Dongbin.c     ****     TickType_t rand = xTaskGetTickCount();
 537              		.loc 1 263 0
 538 0002 FFF7FEFF 		bl	xTaskGetTickCount
 539              	.LVL71:
 264:Dongbin.c     ****     TurnLR = rand % 2;
 265:Dongbin.c     ****     return TurnLR;
 266:Dongbin.c     **** }
 540              		.loc 1 266 0
ARM GAS  C:\Users\DBY\AppData\Local\Temp\ccJ3URFe.s 			page 16


 541 0006 00F00100 		and	r0, r0, #1
 542              	.LVL72:
 543 000a 08BD     		pop	{r3, pc}
 544              		.cfi_endproc
 545              	.LFE96:
 546              		.size	randTurnLR_DB, .-randTurnLR_DB
 547              		.section	.text.randTurnDeg_DB,"ax",%progbits
 548              		.align	2
 549              		.global	randTurnDeg_DB
 550              		.thumb
 551              		.thumb_func
 552              		.type	randTurnDeg_DB, %function
 553              	randTurnDeg_DB:
 554              	.LFB97:
 267:Dongbin.c     **** 
 268:Dongbin.c     **** int randTurnDeg_DB(){
 555              		.loc 1 268 0
 556              		.cfi_startproc
 557              		@ args = 0, pretend = 0, frame = 0
 558              		@ frame_needed = 0, uses_anonymous_args = 0
 559 0000 08B5     		push	{r3, lr}
 560              		.cfi_def_cfa_offset 8
 561              		.cfi_offset 3, -8
 562              		.cfi_offset 14, -4
 563              	.LVL73:
 269:Dongbin.c     ****     int deg = 0;
 270:Dongbin.c     ****     TickType_t rand = xTaskGetTickCount();
 564              		.loc 1 270 0
 565 0002 FFF7FEFF 		bl	xTaskGetTickCount
 566              	.LVL74:
 271:Dongbin.c     ****     deg = rand % 1000;
 567              		.loc 1 271 0
 568 0006 0A4A     		ldr	r2, .L37
 569 0008 A2FB0032 		umull	r3, r2, r2, r0
 570 000c 9209     		lsrs	r2, r2, #6
 571 000e 4FF47A73 		mov	r3, #1000
 572 0012 03FB1200 		mls	r0, r3, r2, r0
 573              	.LVL75:
 272:Dongbin.c     ****     if(deg < 263){
 574              		.loc 1 272 0
 575 0016 B0F5837F 		cmp	r0, #262
 576 001a 05DD     		ble	.L34
 273:Dongbin.c     ****         deg = 263; 
 274:Dongbin.c     ****         return deg;
 275:Dongbin.c     ****     }else if (deg > 789){
 577              		.loc 1 275 0
 578 001c 40F21533 		movw	r3, #789
 579 0020 9842     		cmp	r0, r3
 580 0022 03DD     		ble	.L33
 276:Dongbin.c     ****         deg = 789;
 277:Dongbin.c     ****         return deg;
 581              		.loc 1 277 0
 582 0024 1846     		mov	r0, r3
 583              	.LVL76:
 584 0026 08BD     		pop	{r3, pc}
 585              	.LVL77:
 586              	.L34:
ARM GAS  C:\Users\DBY\AppData\Local\Temp\ccJ3URFe.s 			page 17


 274:Dongbin.c     ****     }else if (deg > 789){
 587              		.loc 1 274 0
 588 0028 40F20710 		movw	r0, #263
 589              	.LVL78:
 590              	.L33:
 278:Dongbin.c     ****     }else{
 279:Dongbin.c     ****         return deg;
 280:Dongbin.c     ****     };
 281:Dongbin.c     **** }
 591              		.loc 1 281 0
 592 002c 08BD     		pop	{r3, pc}
 593              	.L38:
 594 002e 00BF     		.align	2
 595              	.L37:
 596 0030 D34D6210 		.word	274877907
 597              		.cfi_endproc
 598              	.LFE97:
 599              		.size	randTurnDeg_DB, .-randTurnDeg_DB
 600              		.section	.text.week3_3_DB,"ax",%progbits
 601              		.align	2
 602              		.global	week3_3_DB
 603              		.thumb
 604              		.thumb_func
 605              		.type	week3_3_DB, %function
 606              	week3_3_DB:
 607              	.LFB87:
 103:Dongbin.c     ****     Ultra_Start();              // Ultra Sonic Start function
 608              		.loc 1 103 0
 609              		.cfi_startproc
 610              		@ args = 0, pretend = 0, frame = 0
 611              		@ frame_needed = 0, uses_anonymous_args = 0
 612 0000 10B5     		push	{r4, lr}
 613              		.cfi_def_cfa_offset 8
 614              		.cfi_offset 4, -8
 615              		.cfi_offset 14, -4
 104:Dongbin.c     ****     motor_start();              // enable motor controller
 616              		.loc 1 104 0
 617 0002 FFF7FEFF 		bl	Ultra_Start
 618              	.LVL79:
 105:Dongbin.c     ****     motor_forward(0,0);         // set speed to zero to stop motors
 619              		.loc 1 105 0
 620 0006 FFF7FEFF 		bl	motor_start
 621              	.LVL80:
 106:Dongbin.c     ****     
 622              		.loc 1 106 0
 623 000a 0021     		movs	r1, #0
 624 000c 0846     		mov	r0, r1
 625 000e FFF7FEFF 		bl	motor_forward
 626              	.LVL81:
 627              	.L40:
 108:Dongbin.c     ****     BatteryLed_Write(true);
 628              		.loc 1 108 0 discriminator 1
 629 0012 FFF7FEFF 		bl	SW1_Read
 630              	.LVL82:
 631 0016 0028     		cmp	r0, #0
 632 0018 FBD1     		bne	.L40
 109:Dongbin.c     **** 	vTaskDelay(200); 
ARM GAS  C:\Users\DBY\AppData\Local\Temp\ccJ3URFe.s 			page 18


 633              		.loc 1 109 0
 634 001a 0120     		movs	r0, #1
 635 001c FFF7FEFF 		bl	BatteryLed_Write
 636              	.LVL83:
 110:Dongbin.c     ****     BatteryLed_Write(false);
 637              		.loc 1 110 0
 638 0020 C820     		movs	r0, #200
 639 0022 FFF7FEFF 		bl	vTaskDelay
 640              	.LVL84:
 111:Dongbin.c     ****     
 641              		.loc 1 111 0
 642 0026 0020     		movs	r0, #0
 643 0028 FFF7FEFF 		bl	BatteryLed_Write
 644              	.LVL85:
 645              	.L43:
 646              	.LBB3:
 114:Dongbin.c     ****         //printf("distance = %d\r\n", d);   // Print the detected distance (centimeters)
 647              		.loc 1 114 0
 648 002c FFF7FEFF 		bl	Ultra_GetDistance
 649              	.LVL86:
 650 0030 0446     		mov	r4, r0
 651              	.LVL87:
 116:Dongbin.c     ****         
 652              		.loc 1 116 0
 653 0032 4FF49670 		mov	r0, #300
 654              	.LVL88:
 655 0036 FFF7FEFF 		bl	vTaskDelay
 656              	.LVL89:
 118:Dongbin.c     ****         if(d < 10){
 657              		.loc 1 118 0
 658 003a C821     		movs	r1, #200
 659 003c 5020     		movs	r0, #80
 660 003e FFF7FEFF 		bl	motor_forward
 661              	.LVL90:
 119:Dongbin.c     ****            motor_forward(0,0);
 662              		.loc 1 119 0
 663 0042 092C     		cmp	r4, #9
 664 0044 30DC     		bgt	.L41
 120:Dongbin.c     ****            vTaskDelay(100);
 665              		.loc 1 120 0
 666 0046 0021     		movs	r1, #0
 667 0048 0846     		mov	r0, r1
 668 004a FFF7FEFF 		bl	motor_forward
 669              	.LVL91:
 121:Dongbin.c     ****            motor_backward(125, 1000);
 670              		.loc 1 121 0
 671 004e 6420     		movs	r0, #100
 672 0050 FFF7FEFF 		bl	vTaskDelay
 673              	.LVL92:
 122:Dongbin.c     ****            if(randTurnLR_DB() == 1){
 674              		.loc 1 122 0
 675 0054 4FF47A71 		mov	r1, #1000
 676 0058 7D20     		movs	r0, #125
 677 005a FFF7FEFF 		bl	motor_backward
 678              	.LVL93:
 123:Dongbin.c     ****                 tankRandTR_DB(randTurnDeg_DB());
 679              		.loc 1 123 0
ARM GAS  C:\Users\DBY\AppData\Local\Temp\ccJ3URFe.s 			page 19


 680 005e FFF7FEFF 		bl	randTurnLR_DB
 681              	.LVL94:
 682 0062 0128     		cmp	r0, #1
 683 0064 10D1     		bne	.L42
 124:Dongbin.c     ****                 printf("random turn %d\n", randTurnLR_DB());
 684              		.loc 1 124 0
 685 0066 FFF7FEFF 		bl	randTurnDeg_DB
 686              	.LVL95:
 687 006a FFF7FEFF 		bl	tankRandTR_DB
 688              	.LVL96:
 125:Dongbin.c     ****                 printf("random turning delay %d\n", randTurnDeg_DB()); 
 689              		.loc 1 125 0
 690 006e FFF7FEFF 		bl	randTurnLR_DB
 691              	.LVL97:
 692 0072 0146     		mov	r1, r0
 693 0074 1348     		ldr	r0, .L45
 694 0076 FFF7FEFF 		bl	printf
 695              	.LVL98:
 126:Dongbin.c     ****             }else{
 696              		.loc 1 126 0
 697 007a FFF7FEFF 		bl	randTurnDeg_DB
 698              	.LVL99:
 699 007e 0146     		mov	r1, r0
 700 0080 1148     		ldr	r0, .L45+4
 701 0082 FFF7FEFF 		bl	printf
 702              	.LVL100:
 703 0086 0FE0     		b	.L41
 704              	.L42:
 128:Dongbin.c     ****                 printf("random turn %d\n", randTurnLR_DB());
 705              		.loc 1 128 0
 706 0088 FFF7FEFF 		bl	randTurnDeg_DB
 707              	.LVL101:
 708 008c FFF7FEFF 		bl	tankRandTL_DB
 709              	.LVL102:
 129:Dongbin.c     ****                 printf("random turning delay %d\n", randTurnDeg_DB());
 710              		.loc 1 129 0
 711 0090 FFF7FEFF 		bl	randTurnLR_DB
 712              	.LVL103:
 713 0094 0146     		mov	r1, r0
 714 0096 0B48     		ldr	r0, .L45
 715 0098 FFF7FEFF 		bl	printf
 716              	.LVL104:
 130:Dongbin.c     ****             }
 717              		.loc 1 130 0
 718 009c FFF7FEFF 		bl	randTurnDeg_DB
 719              	.LVL105:
 720 00a0 0146     		mov	r1, r0
 721 00a2 0948     		ldr	r0, .L45+4
 722 00a4 FFF7FEFF 		bl	printf
 723              	.LVL106:
 724              	.L41:
 134:Dongbin.c     ****             break;   
 725              		.loc 1 134 0
 726 00a8 FFF7FEFF 		bl	SW1_Read
 727              	.LVL107:
 728 00ac 0028     		cmp	r0, #0
 729 00ae BDD1     		bne	.L43
ARM GAS  C:\Users\DBY\AppData\Local\Temp\ccJ3URFe.s 			page 20


 730              	.LBE3:
 138:Dongbin.c     ****     motor_stop();               // disable motor controller
 731              		.loc 1 138 0
 732 00b0 0021     		movs	r1, #0
 733 00b2 0846     		mov	r0, r1
 734 00b4 FFF7FEFF 		bl	motor_forward
 735              	.LVL108:
 139:Dongbin.c     ****     
 736              		.loc 1 139 0
 737 00b8 FFF7FEFF 		bl	motor_stop
 738              	.LVL109:
 142:Dongbin.c     **** }
 739              		.loc 1 142 0
 740 00bc 4FF4FA70 		mov	r0, #500
 741 00c0 FFF7FEFF 		bl	progEnd_DB
 742              	.LVL110:
 743              	.L46:
 744              		.align	2
 745              	.L45:
 746 00c4 1C000000 		.word	.LC2
 747 00c8 2C000000 		.word	.LC3
 748              		.cfi_endproc
 749              	.LFE87:
 750              		.size	week3_3_DB, .-week3_3_DB
 751              		.section	.text.onYourMark_DB,"ax",%progbits
 752              		.align	2
 753              		.global	onYourMark_DB
 754              		.thumb
 755              		.thumb_func
 756              		.type	onYourMark_DB, %function
 757              	onYourMark_DB:
 758              	.LFB98:
 282:Dongbin.c     **** 
 283:Dongbin.c     **** void onYourMark_DB(){
 759              		.loc 1 283 0
 760              		.cfi_startproc
 761              		@ args = 0, pretend = 0, frame = 16
 762              		@ frame_needed = 0, uses_anonymous_args = 0
 763 0000 00B5     		push	{lr}
 764              		.cfi_def_cfa_offset 4
 765              		.cfi_offset 14, -4
 766 0002 87B0     		sub	sp, sp, #28
 767              		.cfi_def_cfa_offset 32
 284:Dongbin.c     ****     struct sensors_ dig;
 285:Dongbin.c     ****     reflectance_start();
 768              		.loc 1 285 0
 769 0004 FFF7FEFF 		bl	reflectance_start
 770              	.LVL111:
 286:Dongbin.c     ****     reflectance_set_threshold(13000, 13000, 11000, 11000, 13000, 13000); 
 771              		.loc 1 286 0
 772 0008 43F2C820 		movw	r0, #13000
 773 000c 0190     		str	r0, [sp, #4]
 774 000e 0090     		str	r0, [sp]
 775 0010 42F6F823 		movw	r3, #11000
 776 0014 1A46     		mov	r2, r3
 777 0016 0146     		mov	r1, r0
 778 0018 FFF7FEFF 		bl	reflectance_set_threshold
ARM GAS  C:\Users\DBY\AppData\Local\Temp\ccJ3URFe.s 			page 21


 779              	.LVL112:
 287:Dongbin.c     ****     // set center sensor threshold to 11000 and others to 9000
 288:Dongbin.c     ****         
 289:Dongbin.c     ****     motor_start();              // enable motor controller
 780              		.loc 1 289 0
 781 001c FFF7FEFF 		bl	motor_start
 782              	.LVL113:
 290:Dongbin.c     ****     motor_forward(0,0);         // set speed to zero to stop motors
 783              		.loc 1 290 0
 784 0020 0021     		movs	r1, #0
 785 0022 0846     		mov	r0, r1
 786 0024 FFF7FEFF 		bl	motor_forward
 787              	.LVL114:
 788              	.L48:
 291:Dongbin.c     ****    
 292:Dongbin.c     ****     while(SW1_Read());
 789              		.loc 1 292 0 discriminator 1
 790 0028 FFF7FEFF 		bl	SW1_Read
 791              	.LVL115:
 792 002c 0028     		cmp	r0, #0
 793 002e FBD1     		bne	.L48
 293:Dongbin.c     ****     BatteryLed_Write(true);
 794              		.loc 1 293 0
 795 0030 0120     		movs	r0, #1
 796 0032 FFF7FEFF 		bl	BatteryLed_Write
 797              	.LVL116:
 294:Dongbin.c     ****     vTaskDelay(200);
 798              		.loc 1 294 0
 799 0036 C820     		movs	r0, #200
 800 0038 FFF7FEFF 		bl	vTaskDelay
 801              	.LVL117:
 295:Dongbin.c     ****     BatteryLed_Write(false);
 802              		.loc 1 295 0
 803 003c 0020     		movs	r0, #0
 804 003e FFF7FEFF 		bl	BatteryLed_Write
 805              	.LVL118:
 296:Dongbin.c     ****     reflectance_digital(&dig); 
 806              		.loc 1 296 0
 807 0042 03A8     		add	r0, sp, #12
 808 0044 FFF7FEFF 		bl	reflectance_digital
 809              	.LVL119:
 297:Dongbin.c     ****     motor_forward(125,0);
 810              		.loc 1 297 0
 811 0048 0021     		movs	r1, #0
 812 004a 7D20     		movs	r0, #125
 813 004c FFF7FEFF 		bl	motor_forward
 814              	.LVL120:
 298:Dongbin.c     ****     while(!(dig.L3 == 1 && dig.L2 == 1 && dig.R2 == 1 && dig.R3 == 1)){
 815              		.loc 1 298 0
 816 0050 02E0     		b	.L49
 817              	.L50:
 299:Dongbin.c     ****         reflectance_digital(&dig);
 818              		.loc 1 299 0
 819 0052 03A8     		add	r0, sp, #12
 820 0054 FFF7FEFF 		bl	reflectance_digital
 821              	.LVL121:
 822              	.L49:
ARM GAS  C:\Users\DBY\AppData\Local\Temp\ccJ3URFe.s 			page 22


 298:Dongbin.c     ****     while(!(dig.L3 == 1 && dig.L2 == 1 && dig.R2 == 1 && dig.R3 == 1)){
 823              		.loc 1 298 0
 824 0058 BDF80C30 		ldrh	r3, [sp, #12]
 825 005c 012B     		cmp	r3, #1
 826 005e F8D1     		bne	.L50
 298:Dongbin.c     ****     while(!(dig.L3 == 1 && dig.L2 == 1 && dig.R2 == 1 && dig.R3 == 1)){
 827              		.loc 1 298 0 is_stmt 0 discriminator 1
 828 0060 BDF80E30 		ldrh	r3, [sp, #14]
 829 0064 012B     		cmp	r3, #1
 830 0066 F4D1     		bne	.L50
 298:Dongbin.c     ****     while(!(dig.L3 == 1 && dig.L2 == 1 && dig.R2 == 1 && dig.R3 == 1)){
 831              		.loc 1 298 0 discriminator 2
 832 0068 BDF81430 		ldrh	r3, [sp, #20]
 833 006c 012B     		cmp	r3, #1
 834 006e F0D1     		bne	.L50
 298:Dongbin.c     ****     while(!(dig.L3 == 1 && dig.L2 == 1 && dig.R2 == 1 && dig.R3 == 1)){
 835              		.loc 1 298 0 discriminator 3
 836 0070 BDF81630 		ldrh	r3, [sp, #22]
 837 0074 012B     		cmp	r3, #1
 838 0076 ECD1     		bne	.L50
 300:Dongbin.c     ****     }
 301:Dongbin.c     ****     motor_forward(0,0);  
 839              		.loc 1 301 0 is_stmt 1
 840 0078 0021     		movs	r1, #0
 841 007a 0846     		mov	r0, r1
 842 007c FFF7FEFF 		bl	motor_forward
 843              	.LVL122:
 302:Dongbin.c     **** }
 844              		.loc 1 302 0
 845 0080 07B0     		add	sp, sp, #28
 846              		.cfi_def_cfa_offset 4
 847              		@ sp needed
 848 0082 5DF804FB 		ldr	pc, [sp], #4
 849              		.cfi_endproc
 850              	.LFE98:
 851              		.size	onYourMark_DB, .-onYourMark_DB
 852 0086 00BF     		.section	.text.week4_1_DB,"ax",%progbits
 853              		.align	2
 854              		.global	week4_1_DB
 855              		.thumb
 856              		.thumb_func
 857              		.type	week4_1_DB, %function
 858              	week4_1_DB:
 859              	.LFB88:
 146:Dongbin.c     ****     
 860              		.loc 1 146 0
 861              		.cfi_startproc
 862              		@ args = 0, pretend = 0, frame = 16
 863              		@ frame_needed = 0, uses_anonymous_args = 0
 864 0000 10B5     		push	{r4, lr}
 865              		.cfi_def_cfa_offset 8
 866              		.cfi_offset 4, -8
 867              		.cfi_offset 14, -4
 868 0002 86B0     		sub	sp, sp, #24
 869              		.cfi_def_cfa_offset 32
 148:Dongbin.c     ****     onYourMark_DB();    //move the motor to first line
 870              		.loc 1 148 0
ARM GAS  C:\Users\DBY\AppData\Local\Temp\ccJ3URFe.s 			page 23


 871 0004 FFF7FEFF 		bl	IR_Start
 872              	.LVL123:
 149:Dongbin.c     ****     
 873              		.loc 1 149 0
 874 0008 FFF7FEFF 		bl	onYourMark_DB
 875              	.LVL124:
 152:Dongbin.c     ****     reflectance_set_threshold(13000, 13000, 11000, 11000, 13000, 13000);
 876              		.loc 1 152 0
 877 000c FFF7FEFF 		bl	reflectance_start
 878              	.LVL125:
 153:Dongbin.c     ****     
 879              		.loc 1 153 0
 880 0010 43F2C820 		movw	r0, #13000
 881 0014 0190     		str	r0, [sp, #4]
 882 0016 0090     		str	r0, [sp]
 883 0018 42F6F823 		movw	r3, #11000
 884 001c 1A46     		mov	r2, r3
 885 001e 0146     		mov	r1, r0
 886 0020 FFF7FEFF 		bl	reflectance_set_threshold
 887              	.LVL126:
 155:Dongbin.c     ****     motor_forward(125,0);
 888              		.loc 1 155 0
 889 0024 FFF7FEFF 		bl	IR_wait
 890              	.LVL127:
 156:Dongbin.c     ****     for(int i = 0; i < 4; i++){
 891              		.loc 1 156 0
 892 0028 0021     		movs	r1, #0
 893 002a 7D20     		movs	r0, #125
 894 002c FFF7FEFF 		bl	motor_forward
 895              	.LVL128:
 896              	.LBB4:
 157:Dongbin.c     ****         while(!(dig.L3 == 0 && dig.L2 == 0 && dig.R2 == 0 && dig.R3 == 0)){
 897              		.loc 1 157 0
 898 0030 0024     		movs	r4, #0
 899 0032 37E0     		b	.L53
 900              	.LVL129:
 901              	.L54:
 159:Dongbin.c     ****         }
 902              		.loc 1 159 0
 903 0034 03A8     		add	r0, sp, #12
 904 0036 FFF7FEFF 		bl	reflectance_digital
 905              	.LVL130:
 906              	.L57:
 158:Dongbin.c     ****             reflectance_digital(&dig);
 907              		.loc 1 158 0
 908 003a BDF80C30 		ldrh	r3, [sp, #12]
 909 003e 002B     		cmp	r3, #0
 910 0040 F8D1     		bne	.L54
 158:Dongbin.c     ****             reflectance_digital(&dig);
 911              		.loc 1 158 0 is_stmt 0 discriminator 1
 912 0042 BDF80E30 		ldrh	r3, [sp, #14]
 913 0046 002B     		cmp	r3, #0
 914 0048 F4D1     		bne	.L54
 158:Dongbin.c     ****             reflectance_digital(&dig);
 915              		.loc 1 158 0 discriminator 2
 916 004a BDF81430 		ldrh	r3, [sp, #20]
 917 004e 002B     		cmp	r3, #0
ARM GAS  C:\Users\DBY\AppData\Local\Temp\ccJ3URFe.s 			page 24


 918 0050 F0D1     		bne	.L54
 158:Dongbin.c     ****             reflectance_digital(&dig);
 919              		.loc 1 158 0 discriminator 3
 920 0052 BDF81630 		ldrh	r3, [sp, #22]
 921 0056 002B     		cmp	r3, #0
 922 0058 ECD1     		bne	.L54
 161:Dongbin.c     ****         vTaskDelay(1000);
 923              		.loc 1 161 0 is_stmt 1
 924 005a 0021     		movs	r1, #0
 925 005c 0846     		mov	r0, r1
 926 005e FFF7FEFF 		bl	motor_forward
 927              	.LVL131:
 162:Dongbin.c     ****         while(!(dig.L3 == 1 && dig.L2 == 1 && dig.R2 == 1 && dig.R3 == 1)){
 928              		.loc 1 162 0
 929 0062 4FF47A70 		mov	r0, #1000
 930 0066 FFF7FEFF 		bl	vTaskDelay
 931              	.LVL132:
 163:Dongbin.c     ****             reflectance_digital(&dig);
 932              		.loc 1 163 0
 933 006a 06E0     		b	.L55
 934              	.L56:
 164:Dongbin.c     ****             motor_forward(125,0);
 935              		.loc 1 164 0
 936 006c 03A8     		add	r0, sp, #12
 937 006e FFF7FEFF 		bl	reflectance_digital
 938              	.LVL133:
 165:Dongbin.c     ****         }
 939              		.loc 1 165 0
 940 0072 0021     		movs	r1, #0
 941 0074 7D20     		movs	r0, #125
 942 0076 FFF7FEFF 		bl	motor_forward
 943              	.LVL134:
 944              	.L55:
 163:Dongbin.c     ****             reflectance_digital(&dig);
 945              		.loc 1 163 0
 946 007a BDF80C30 		ldrh	r3, [sp, #12]
 947 007e 012B     		cmp	r3, #1
 948 0080 F4D1     		bne	.L56
 163:Dongbin.c     ****             reflectance_digital(&dig);
 949              		.loc 1 163 0 is_stmt 0 discriminator 1
 950 0082 BDF80E30 		ldrh	r3, [sp, #14]
 951 0086 012B     		cmp	r3, #1
 952 0088 F0D1     		bne	.L56
 163:Dongbin.c     ****             reflectance_digital(&dig);
 953              		.loc 1 163 0 discriminator 2
 954 008a BDF81430 		ldrh	r3, [sp, #20]
 955 008e 012B     		cmp	r3, #1
 956 0090 ECD1     		bne	.L56
 163:Dongbin.c     ****             reflectance_digital(&dig);
 957              		.loc 1 163 0 discriminator 3
 958 0092 BDF81630 		ldrh	r3, [sp, #22]
 959 0096 012B     		cmp	r3, #1
 960 0098 E8D1     		bne	.L56
 167:Dongbin.c     ****     }
 961              		.loc 1 167 0 is_stmt 1 discriminator 2
 962 009a 2146     		mov	r1, r4
 963 009c 0748     		ldr	r0, .L59
ARM GAS  C:\Users\DBY\AppData\Local\Temp\ccJ3URFe.s 			page 25


 964 009e FFF7FEFF 		bl	printf
 965              	.LVL135:
 157:Dongbin.c     ****         while(!(dig.L3 == 0 && dig.L2 == 0 && dig.R2 == 0 && dig.R3 == 0)){
 966              		.loc 1 157 0 discriminator 2
 967 00a2 0134     		adds	r4, r4, #1
 968              	.LVL136:
 969              	.L53:
 157:Dongbin.c     ****         while(!(dig.L3 == 0 && dig.L2 == 0 && dig.R2 == 0 && dig.R3 == 0)){
 970              		.loc 1 157 0 is_stmt 0 discriminator 1
 971 00a4 032C     		cmp	r4, #3
 972 00a6 C8DD     		ble	.L57
 973              	.LBE4:
 169:Dongbin.c     ****     motor_stop();
 974              		.loc 1 169 0 is_stmt 1
 975 00a8 0021     		movs	r1, #0
 976 00aa 0846     		mov	r0, r1
 977 00ac FFF7FEFF 		bl	motor_forward
 978              	.LVL137:
 170:Dongbin.c     ****   
 979              		.loc 1 170 0
 980 00b0 FFF7FEFF 		bl	motor_stop
 981              	.LVL138:
 172:Dongbin.c     ****     
 982              		.loc 1 172 0
 983 00b4 4FF4FA70 		mov	r0, #500
 984 00b8 FFF7FEFF 		bl	progEnd_DB
 985              	.LVL139:
 986              	.L60:
 987              		.align	2
 988              	.L59:
 989 00bc 48000000 		.word	.LC4
 990              		.cfi_endproc
 991              	.LFE88:
 992              		.size	week4_1_DB, .-week4_1_DB
 993              		.section	.rodata.str1.4,"aMS",%progbits,1
 994              		.align	2
 995              	.LC0:
 996 0000 64697374 		.ascii	"distance = %d\015\012\000"
 996      616E6365 
 996      203D2025 
 996      640D0A00 
 997              	.LC1:
 998 0010 25642074 		.ascii	"%d time(s)\012\000"
 998      696D6528 
 998      73290A00 
 999              	.LC2:
 1000 001c 72616E64 		.ascii	"random turn %d\012\000"
 1000      6F6D2074 
 1000      75726E20 
 1000      25640A00 
 1001              	.LC3:
 1002 002c 72616E64 		.ascii	"random turning delay %d\012\000"
 1002      6F6D2074 
 1002      75726E69 
 1002      6E672064 
 1002      656C6179 
 1003 0045 000000   		.space	3
ARM GAS  C:\Users\DBY\AppData\Local\Temp\ccJ3URFe.s 			page 26


 1004              	.LC4:
 1005 0048 6C6F6F70 		.ascii	"loop i = %d\012\000"
 1005      2069203D 
 1005      2025640A 
 1005      00
 1006              		.text
 1007              	.Letext0:
 1008              		.file 2 "c:\\program files (x86)\\cypress\\psoc creator\\4.2\\psoc creator\\import\\gnu\\arm\\5.4.
 1009              		.file 3 "c:\\program files (x86)\\cypress\\psoc creator\\4.2\\psoc creator\\import\\gnu\\arm\\5.4.
 1010              		.file 4 "..\\FreeRTOS\\Source\\portable\\GCC\\ARM_CM3/portmacro.h"
 1011              		.file 5 ".\\ZumoLibrary/Reflectance.h"
 1012              		.file 6 "Generated_Source\\PSoC5/BatteryLed.h"
 1013              		.file 7 "..\\FreeRTOS\\Source\\include/task.h"
 1014              		.file 8 ".\\ZumoLibrary/Motor.h"
 1015              		.file 9 "Generated_Source\\PSoC5/SW1.h"
 1016              		.file 10 ".\\ZumoLibrary/Ultra.h"
 1017              		.file 11 "c:\\program files (x86)\\cypress\\psoc creator\\4.2\\psoc creator\\import\\gnu\\arm\\5.4
 1018              		.file 12 ".\\ZumoLibrary/IR.h"
 1019              		.file 13 "Generated_Source\\PSoC5/core_cm3.h"