ARM GAS  C:\Users\EVGENY~1\AppData\Local\Temp\ccUd2T3k.s 			page 1


   1              		.syntax unified
   2              		.cpu cortex-m3
   3              		.fpu softvfp
   4              		.eabi_attribute 20, 1
   5              		.eabi_attribute 21, 1
   6              		.eabi_attribute 23, 3
   7              		.eabi_attribute 24, 1
   8              		.eabi_attribute 25, 1
   9              		.eabi_attribute 26, 1
  10              		.eabi_attribute 30, 1
  11              		.eabi_attribute 34, 1
  12              		.eabi_attribute 18, 4
  13              		.thumb
  14              		.syntax unified
  15              		.file	"evgenii.c"
  16              		.text
  17              	.Ltext0:
  18              		.cfi_sections	.debug_frame
  19              		.section	.text.week3_2_evg,"ax",%progbits
  20              		.align	2
  21              		.global	week3_2_evg
  22              		.thumb
  23              		.thumb_func
  24              		.type	week3_2_evg, %function
  25              	week3_2_evg:
  26              	.LFB86:
  27              		.file 1 "evgenii.c"
   1:evgenii.c     **** /* ========================================
   2:evgenii.c     ****  *
   3:evgenii.c     ****  * Copyright YOUR COMPANY, THE YEAR
   4:evgenii.c     ****  * All Rights Reserved
   5:evgenii.c     ****  * UNPUBLISHED, LICENSED SOFTWARE.
   6:evgenii.c     ****  *
   7:evgenii.c     ****  * CONFIDENTIAL AND PROPRIETARY INFORMATION
   8:evgenii.c     ****  * WHICH IS THE PROPERTY OF your company.
   9:evgenii.c     ****  *
  10:evgenii.c     ****  * ========================================
  11:evgenii.c     **** */
  12:evgenii.c     **** 
  13:evgenii.c     **** 
  14:evgenii.c     **** #include <project.h>
  15:evgenii.c     **** #include <stdio.h>
  16:evgenii.c     **** #include "FreeRTOS.h"
  17:evgenii.c     **** #include "task.h"
  18:evgenii.c     **** #include "Motor.h"
  19:evgenii.c     **** #include "Ultra.h"
  20:evgenii.c     **** #include "Nunchuk.h"
  21:evgenii.c     **** #include "Reflectance.h"
  22:evgenii.c     **** #include "Gyro.h"
  23:evgenii.c     **** #include "Accel_magnet.h"
  24:evgenii.c     **** #include "LSM303D.h"
  25:evgenii.c     **** #include "IR.h"
  26:evgenii.c     **** #include "Beep.h"
  27:evgenii.c     **** #include "mqtt_sender.h"
  28:evgenii.c     **** #include <time.h>
  29:evgenii.c     **** #include <sys/time.h>
  30:evgenii.c     **** #include "serial1.h"
ARM GAS  C:\Users\EVGENY~1\AppData\Local\Temp\ccUd2T3k.s 			page 2


  31:evgenii.c     **** #include <unistd.h>
  32:evgenii.c     **** #include "evgenii.h"
  33:evgenii.c     **** #include <stdlib.h>
  34:evgenii.c     **** 
  35:evgenii.c     **** 
  36:evgenii.c     **** /*******************************************************weekly assignments*************************
  37:evgenii.c     **** 
  38:evgenii.c     **** //week 3 Exercise 1
  39:evgenii.c     **** 
  40:evgenii.c     **** void week3_1_evg(void)
  41:evgenii.c     **** {
  42:evgenii.c     ****     
  43:evgenii.c     ****     motor_start();              // enable motor controller
  44:evgenii.c     ****     motor_forward(0,0);         // set speed to zero to stop motors
  45:evgenii.c     ****     IR_Start();
  46:evgenii.c     ****     IR_wait();
  47:evgenii.c     ****     motor_forward(125,2750);     // moving forward from starting point
  48:evgenii.c     ****     
  49:evgenii.c     ****     tankTREvg(255, 103);           // 1st turning right 
  50:evgenii.c     ****     motor_forward(125,2350);    // forward on horisontal line
  51:evgenii.c     ****     tankTREvg(255, 103);           // 2nd turn
  52:evgenii.c     ****     motor_forward(125,2550);
  53:evgenii.c     ****     tankTREvg(255, 103);           // 2nd turn
  54:evgenii.c     ****     tankTurnEvg(164,135,1780);
  55:evgenii.c     ****     motor_forward(125,570);     // moving forward from starting point
  56:evgenii.c     ****     motor_forward(0,0);         // stop motors
  57:evgenii.c     ****     motor_stop();               // disable motor controller
  58:evgenii.c     ****     
  59:evgenii.c     ****     progEndEvg(100);
  60:evgenii.c     **** }
  61:evgenii.c     **** 
  62:evgenii.c     **** //week 3 Exercise 2
  63:evgenii.c     **** 
  64:evgenii.c     **** void week3_2_evg(void) 
  65:evgenii.c     **** {
  28              		.loc 1 65 0
  29              		.cfi_startproc
  30              		@ args = 0, pretend = 0, frame = 0
  31              		@ frame_needed = 0, uses_anonymous_args = 0
  32 0000 10B5     		push	{r4, lr}
  33              		.cfi_def_cfa_offset 8
  34              		.cfi_offset 4, -8
  35              		.cfi_offset 14, -4
  66:evgenii.c     ****     printf("Press IR send to start and button on PSoC to stop");
  36              		.loc 1 66 0
  37 0002 1C48     		ldr	r0, .L5
  38 0004 FFF7FEFF 		bl	printf
  39              	.LVL0:
  67:evgenii.c     ****     Ultra_Start();              // Ultra Sonic Start function
  40              		.loc 1 67 0
  41 0008 FFF7FEFF 		bl	Ultra_Start
  42              	.LVL1:
  68:evgenii.c     ****     motor_start();              // enable motor controller
  43              		.loc 1 68 0
  44 000c FFF7FEFF 		bl	motor_start
  45              	.LVL2:
  69:evgenii.c     ****     motor_forward(0,0);         // set speed to zero to stop motors
ARM GAS  C:\Users\EVGENY~1\AppData\Local\Temp\ccUd2T3k.s 			page 3


  46              		.loc 1 69 0
  47 0010 0021     		movs	r1, #0
  48 0012 0846     		mov	r0, r1
  49 0014 FFF7FEFF 		bl	motor_forward
  50              	.LVL3:
  70:evgenii.c     ****     
  71:evgenii.c     ****     IR_Start();
  51              		.loc 1 71 0
  52 0018 FFF7FEFF 		bl	IR_Start
  53              	.LVL4:
  72:evgenii.c     ****     IR_wait();
  54              		.loc 1 72 0
  55 001c FFF7FEFF 		bl	IR_wait
  56              	.LVL5:
  57              	.L3:
  58              	.LBB2:
  73:evgenii.c     ****     while(true) {
  74:evgenii.c     ****         motor_forward(150, 50);
  59              		.loc 1 74 0
  60 0020 3221     		movs	r1, #50
  61 0022 9620     		movs	r0, #150
  62 0024 FFF7FEFF 		bl	motor_forward
  63              	.LVL6:
  75:evgenii.c     ****         int d = Ultra_GetDistance();
  64              		.loc 1 75 0
  65 0028 FFF7FEFF 		bl	Ultra_GetDistance
  66              	.LVL7:
  67 002c 0446     		mov	r4, r0
  68              	.LVL8:
  76:evgenii.c     ****         // Print the detected distance (centimeters)
  77:evgenii.c     ****         printf("distance = %d\r\n", d);
  69              		.loc 1 77 0
  70 002e 0146     		mov	r1, r0
  71 0030 1148     		ldr	r0, .L5+4
  72              	.LVL9:
  73 0032 FFF7FEFF 		bl	printf
  74              	.LVL10:
  78:evgenii.c     ****         vTaskDelay(100);
  75              		.loc 1 78 0
  76 0036 6420     		movs	r0, #100
  77 0038 FFF7FEFF 		bl	vTaskDelay
  78              	.LVL11:
  79:evgenii.c     ****         if(d < 10){
  79              		.loc 1 79 0
  80 003c 092C     		cmp	r4, #9
  81 003e 0DDC     		bgt	.L2
  80:evgenii.c     ****             motor_forward(0,10);         
  82              		.loc 1 80 0
  83 0040 0A21     		movs	r1, #10
  84 0042 0020     		movs	r0, #0
  85 0044 FFF7FEFF 		bl	motor_forward
  86              	.LVL12:
  81:evgenii.c     ****             motor_backward(100, 150);
  87              		.loc 1 81 0
  88 0048 9621     		movs	r1, #150
  89 004a 6420     		movs	r0, #100
  90 004c FFF7FEFF 		bl	motor_backward
ARM GAS  C:\Users\EVGENY~1\AppData\Local\Temp\ccUd2T3k.s 			page 4


  91              	.LVL13:
  82:evgenii.c     ****             motor_turn(0, 150, 462);
  92              		.loc 1 82 0
  93 0050 4FF4E772 		mov	r2, #462
  94 0054 9621     		movs	r1, #150
  95 0056 0020     		movs	r0, #0
  96 0058 FFF7FEFF 		bl	motor_turn
  97              	.LVL14:
  98              	.L2:
  83:evgenii.c     ****         }
  84:evgenii.c     ****         if(!SW1_Read()){
  99              		.loc 1 84 0
 100 005c FFF7FEFF 		bl	SW1_Read
 101              	.LVL15:
 102 0060 0028     		cmp	r0, #0
 103 0062 DDD1     		bne	.L3
 104              	.LBE2:
  85:evgenii.c     ****              break;
  86:evgenii.c     ****         }
  87:evgenii.c     ****     }
  88:evgenii.c     ****     motor_forward(0,0);         
 105              		.loc 1 88 0
 106 0064 0021     		movs	r1, #0
 107 0066 0846     		mov	r0, r1
 108 0068 FFF7FEFF 		bl	motor_forward
 109              	.LVL16:
  89:evgenii.c     ****     motor_stop();
 110              		.loc 1 89 0
 111 006c FFF7FEFF 		bl	motor_stop
 112              	.LVL17:
 113 0070 10BD     		pop	{r4, pc}
 114              	.LVL18:
 115              	.L6:
 116 0072 00BF     		.align	2
 117              	.L5:
 118 0074 00000000 		.word	.LC0
 119 0078 34000000 		.word	.LC1
 120              		.cfi_endproc
 121              	.LFE86:
 122              		.size	week3_2_evg, .-week3_2_evg
 123              		.section	.text.driveForward,"ax",%progbits
 124              		.align	2
 125              		.global	driveForward
 126              		.thumb
 127              		.thumb_func
 128              		.type	driveForward, %function
 129              	driveForward:
 130              	.LFB91:
  90:evgenii.c     **** 
  91:evgenii.c     **** }
  92:evgenii.c     **** 
  93:evgenii.c     **** //week 3 Exercise 3
  94:evgenii.c     **** 
  95:evgenii.c     **** void week3_3_evg(void) 
  96:evgenii.c     **** {
  97:evgenii.c     ****     printf("Press IR send to start and button on PSoC to stop");
  98:evgenii.c     ****     Ultra_Start();              // Ultra Sonic Start function
ARM GAS  C:\Users\EVGENY~1\AppData\Local\Temp\ccUd2T3k.s 			page 5


  99:evgenii.c     ****     motor_start();              // enable motor controller
 100:evgenii.c     ****     motor_forward(0,0);         // set speed to zero to stop motors
 101:evgenii.c     ****     IR_Start();
 102:evgenii.c     ****     IR_wait();
 103:evgenii.c     ****     while(true) {
 104:evgenii.c     ****         motor_forward(125, 50);
 105:evgenii.c     ****         int d = Ultra_GetDistance();
 106:evgenii.c     ****         // Print the detected distance (centimeters)
 107:evgenii.c     ****       //  printf("distance = %d\r\n", d);
 108:evgenii.c     ****         vTaskDelay(200);
 109:evgenii.c     ****        int turn = randomEvg(103, 309);
 110:evgenii.c     ****         if(d < 11){
 111:evgenii.c     ****             motor_forward(0,10);         
 112:evgenii.c     ****             motor_backward(100, 150);
 113:evgenii.c     ****             if (turn % 2 == 1) {
 114:evgenii.c     ****                tankTLEvg(255, turn);
 115:evgenii.c     ****                printf("\nTurn value is %i so I turn left\n", turn);
 116:evgenii.c     ****             } else {
 117:evgenii.c     ****                tankTREvg(255, turn);
 118:evgenii.c     ****                printf("\nTurn value is %i so I turn right\n", turn);
 119:evgenii.c     ****             }
 120:evgenii.c     ****         }
 121:evgenii.c     ****         if(!SW1_Read()){
 122:evgenii.c     ****              break;
 123:evgenii.c     ****         }
 124:evgenii.c     ****     }
 125:evgenii.c     ****     motor_forward(0,0);         
 126:evgenii.c     ****     motor_stop();
 127:evgenii.c     **** 
 128:evgenii.c     **** }
 129:evgenii.c     **** 
 130:evgenii.c     **** //week 4 Exercise 1
 131:evgenii.c     **** 
 132:evgenii.c     **** void week4_1_evg(void) 
 133:evgenii.c     **** {
 134:evgenii.c     ****     uint32_t count = 0;
 135:evgenii.c     ****     struct sensors_ dig;
 136:evgenii.c     ****     reflectance_start(); 
 137:evgenii.c     ****     IR_Start();
 138:evgenii.c     ****     motor_start();  
 139:evgenii.c     ****     motor_forward(0,0);
 140:evgenii.c     ****     reflectance_set_threshold(14000, 14000, 11000, 11000, 14000, 14000);  
 141:evgenii.c     ****     
 142:evgenii.c     ****     while(SW1_Read());
 143:evgenii.c     ****       
 144:evgenii.c     ****     reflectance_digital(&dig);
 145:evgenii.c     ****     while(count<5) 
 146:evgenii.c     ****     {
 147:evgenii.c     ****         driveForward();
 148:evgenii.c     ****         count++;
 149:evgenii.c     ****         printf("one loop, %i lines passed by\n", count);
 150:evgenii.c     ****         if(count == 1){
 151:evgenii.c     ****             motor_forward(0,0);
 152:evgenii.c     ****             IR_wait();
 153:evgenii.c     ****         }
 154:evgenii.c     ****     }
 155:evgenii.c     ****     printf("Number of lines is %i\n", count);
ARM GAS  C:\Users\EVGENY~1\AppData\Local\Temp\ccUd2T3k.s 			page 6


 156:evgenii.c     ****     motor_forward(0,0);         
 157:evgenii.c     ****     motor_stop();
 158:evgenii.c     **** }
 159:evgenii.c     **** 
 160:evgenii.c     **** 
 161:evgenii.c     **** //week 4 Exercise 2
 162:evgenii.c     **** 
 163:evgenii.c     **** void week4_2_evg(void) 
 164:evgenii.c     **** {
 165:evgenii.c     ****     struct sensors_ dig;
 166:evgenii.c     ****     reflectance_start(); 
 167:evgenii.c     ****     IR_Start();
 168:evgenii.c     ****     motor_start();  
 169:evgenii.c     ****     motor_forward(0,0);
 170:evgenii.c     ****     reflectance_set_threshold(11000, 11000, 11000, 11000, 11000, 11000);  
 171:evgenii.c     ****     IR_wait();
 172:evgenii.c     ****     //while(SW1_Read());
 173:evgenii.c     ****     reflectance_digital(&dig); 
 174:evgenii.c     ****     
 175:evgenii.c     ****         driveForward();
 176:evgenii.c     ****         printf("after driveforward\n");
 177:evgenii.c     ****         IR_wait();  
 178:evgenii.c     ****         reflectance_digital(&dig); 
 179:evgenii.c     ****         while(!(dig.L3 == 0 && dig.L2 == 0 && dig.R2 == 0 && dig.R3 == 0))
 180:evgenii.c     ****         {
 181:evgenii.c     ****              reflectance_digital(&dig);
 182:evgenii.c     ****              motor_forward(125,0);
 183:evgenii.c     ****         }
 184:evgenii.c     ****         reflectance_digital(&dig); 
 185:evgenii.c     ****         //driveForward();
 186:evgenii.c     ****         while(dig.L3 == 0 && dig.R3 == 0)
 187:evgenii.c     ****         {
 188:evgenii.c     ****             motor_forward(50,0);
 189:evgenii.c     ****             reflectance_digital(&dig); 
 190:evgenii.c     ****             
 191:evgenii.c     ****             if(dig.R2 == 1)
 192:evgenii.c     ****             {   
 193:evgenii.c     ****                 tankTurnEvg(150,0,0);
 194:evgenii.c     ****                 reflectance_digital(&dig); 
 195:evgenii.c     ****             }
 196:evgenii.c     ****             if(dig.L2 == 1)
 197:evgenii.c     ****             {   
 198:evgenii.c     ****                 tankTurnEvg(0,200,0);
 199:evgenii.c     ****                 reflectance_digital(&dig); 
 200:evgenii.c     ****             }
 201:evgenii.c     ****         }
 202:evgenii.c     ****     printf("end of loop");
 203:evgenii.c     ****     motor_forward(0,0);         
 204:evgenii.c     ****     motor_stop();
 205:evgenii.c     **** }
 206:evgenii.c     **** //week 4 Exercise 3
 207:evgenii.c     **** 
 208:evgenii.c     **** void week4_3_evg(void) 
 209:evgenii.c     **** {
 210:evgenii.c     ****     uint32_t count = 0;
 211:evgenii.c     ****     struct sensors_ dig;
 212:evgenii.c     ****     reflectance_start(); 
ARM GAS  C:\Users\EVGENY~1\AppData\Local\Temp\ccUd2T3k.s 			page 7


 213:evgenii.c     ****     IR_Start();
 214:evgenii.c     ****     motor_start();  
 215:evgenii.c     ****     motor_forward(0,0);
 216:evgenii.c     ****     reflectance_set_threshold(11000, 11000, 11000, 11000, 11000, 11000);  
 217:evgenii.c     ****     IR_wait();
 218:evgenii.c     ****    // while(SW1_Read());
 219:evgenii.c     ****     reflectance_digital(&dig);
 220:evgenii.c     ****     
 221:evgenii.c     ****     while(count<5) 
 222:evgenii.c     ****     {
 223:evgenii.c     ****         driveForward();
 224:evgenii.c     ****         count++;
 225:evgenii.c     ****         printf("one loop, %i lines passed by\n", count);
 226:evgenii.c     ****         reflectance_digital(&dig);
 227:evgenii.c     ****         // wait on first line
 228:evgenii.c     ****         if(count == 1)
 229:evgenii.c     ****         {
 230:evgenii.c     ****             motor_forward(0,0);
 231:evgenii.c     ****             IR_wait();
 232:evgenii.c     ****         } else if(count == 2) 
 233:evgenii.c     ****           {
 234:evgenii.c     ****               //turn left on second line  
 235:evgenii.c     ****               while(!(dig.L3 == 0 && dig.L2 == 0 && dig.L1 == 1 && dig.R1 == 1 && dig.R2 == 0 && di
 236:evgenii.c     ****               {
 237:evgenii.c     ****                     motor_turn(4,250,50);
 238:evgenii.c     ****                     reflectance_digital(&dig);
 239:evgenii.c     ****               }
 240:evgenii.c     ****           } else if(count == 3) 
 241:evgenii.c     ****             {
 242:evgenii.c     ****                 //turn right on third line
 243:evgenii.c     ****                 while(!(dig.L3 == 0 && dig.L2 == 0 && dig.L1 == 1 && dig.R1 == 1 && dig.R2 == 0 && 
 244:evgenii.c     ****                 {
 245:evgenii.c     ****                     motor_turn(230,10,70);
 246:evgenii.c     ****                     reflectance_digital(&dig);
 247:evgenii.c     ****                 }
 248:evgenii.c     ****             } else if(count == 4) 
 249:evgenii.c     ****               {
 250:evgenii.c     ****                 //turn right on fourth line
 251:evgenii.c     ****                 while(!(dig.L3 == 0 && dig.L2 == 0 && dig.L1 == 1 && dig.R1 == 1 && dig.R2 == 0 && 
 252:evgenii.c     ****                 {
 253:evgenii.c     ****                     motor_turn(230,10,50);
 254:evgenii.c     ****                     reflectance_digital(&dig);
 255:evgenii.c     ****                 }
 256:evgenii.c     ****               } 
 257:evgenii.c     ****     }
 258:evgenii.c     ****     motor_forward(0,0);         
 259:evgenii.c     ****     motor_stop();
 260:evgenii.c     **** }
 261:evgenii.c     **** 
 262:evgenii.c     **** 
 263:evgenii.c     **** 
 264:evgenii.c     **** 
 265:evgenii.c     **** void driveForward(void){
 131              		.loc 1 265 0
 132              		.cfi_startproc
 133              		@ args = 0, pretend = 0, frame = 16
 134              		@ frame_needed = 0, uses_anonymous_args = 0
ARM GAS  C:\Users\EVGENY~1\AppData\Local\Temp\ccUd2T3k.s 			page 8


 135 0000 00B5     		push	{lr}
 136              		.cfi_def_cfa_offset 4
 137              		.cfi_offset 14, -4
 138 0002 85B0     		sub	sp, sp, #20
 139              		.cfi_def_cfa_offset 24
 266:evgenii.c     ****     struct sensors_ dig;
 267:evgenii.c     ****     reflectance_start(); 
 140              		.loc 1 267 0
 141 0004 FFF7FEFF 		bl	reflectance_start
 142              	.LVL19:
 268:evgenii.c     ****     reflectance_digital(&dig);
 143              		.loc 1 268 0
 144 0008 01A8     		add	r0, sp, #4
 145 000a FFF7FEFF 		bl	reflectance_digital
 146              	.LVL20:
 269:evgenii.c     ****     //drives forward when sensors 2 and 3 are on black
 270:evgenii.c     ****     while(dig.L3 == 1 && dig.L2 == 1 && dig.R2 == 1 && dig.R3 == 1)
 147              		.loc 1 270 0
 148 000e 06E0     		b	.L8
 149              	.L10:
 271:evgenii.c     ****     {
 272:evgenii.c     ****         motor_forward(100,0);
 150              		.loc 1 272 0
 151 0010 0021     		movs	r1, #0
 152 0012 6420     		movs	r0, #100
 153 0014 FFF7FEFF 		bl	motor_forward
 154              	.LVL21:
 273:evgenii.c     ****         reflectance_digital(&dig); 
 155              		.loc 1 273 0
 156 0018 01A8     		add	r0, sp, #4
 157 001a FFF7FEFF 		bl	reflectance_digital
 158              	.LVL22:
 159              	.L8:
 270:evgenii.c     ****     {
 160              		.loc 1 270 0
 161 001e BDF80430 		ldrh	r3, [sp, #4]
 162 0022 012B     		cmp	r3, #1
 163 0024 13D1     		bne	.L9
 270:evgenii.c     ****     {
 164              		.loc 1 270 0 is_stmt 0 discriminator 1
 165 0026 BDF80630 		ldrh	r3, [sp, #6]
 166 002a 012B     		cmp	r3, #1
 167 002c 0FD1     		bne	.L9
 270:evgenii.c     ****     {
 168              		.loc 1 270 0 discriminator 2
 169 002e BDF80C30 		ldrh	r3, [sp, #12]
 170 0032 012B     		cmp	r3, #1
 171 0034 0BD1     		bne	.L9
 270:evgenii.c     ****     {
 172              		.loc 1 270 0 discriminator 3
 173 0036 BDF80E30 		ldrh	r3, [sp, #14]
 174 003a 012B     		cmp	r3, #1
 175 003c E8D0     		beq	.L10
 176 003e 06E0     		b	.L9
 177              	.L11:
 274:evgenii.c     ****     }
 275:evgenii.c     ****     //drives forward when sensors 2 and 3 are on white
ARM GAS  C:\Users\EVGENY~1\AppData\Local\Temp\ccUd2T3k.s 			page 9


 276:evgenii.c     ****     while(!(dig.L3 == 1 && dig.L2 == 1 && dig.R2 == 1 && dig.R3 == 1))
 277:evgenii.c     ****     {
 278:evgenii.c     ****         motor_forward(100,0);
 178              		.loc 1 278 0 is_stmt 1
 179 0040 0021     		movs	r1, #0
 180 0042 6420     		movs	r0, #100
 181 0044 FFF7FEFF 		bl	motor_forward
 182              	.LVL23:
 279:evgenii.c     ****         reflectance_digital(&dig); 
 183              		.loc 1 279 0
 184 0048 01A8     		add	r0, sp, #4
 185 004a FFF7FEFF 		bl	reflectance_digital
 186              	.LVL24:
 187              	.L9:
 276:evgenii.c     ****     {
 188              		.loc 1 276 0
 189 004e BDF80430 		ldrh	r3, [sp, #4]
 190 0052 012B     		cmp	r3, #1
 191 0054 F4D1     		bne	.L11
 276:evgenii.c     ****     {
 192              		.loc 1 276 0 is_stmt 0 discriminator 1
 193 0056 BDF80630 		ldrh	r3, [sp, #6]
 194 005a 012B     		cmp	r3, #1
 195 005c F0D1     		bne	.L11
 276:evgenii.c     ****     {
 196              		.loc 1 276 0 discriminator 2
 197 005e BDF80C30 		ldrh	r3, [sp, #12]
 198 0062 012B     		cmp	r3, #1
 199 0064 ECD1     		bne	.L11
 276:evgenii.c     ****     {
 200              		.loc 1 276 0 discriminator 3
 201 0066 BDF80E30 		ldrh	r3, [sp, #14]
 202 006a 012B     		cmp	r3, #1
 203 006c E8D1     		bne	.L11
 280:evgenii.c     ****     }
 281:evgenii.c     ****     motor_forward(0,0);
 204              		.loc 1 281 0 is_stmt 1
 205 006e 0021     		movs	r1, #0
 206 0070 0846     		mov	r0, r1
 207 0072 FFF7FEFF 		bl	motor_forward
 208              	.LVL25:
 282:evgenii.c     **** }
 209              		.loc 1 282 0
 210 0076 05B0     		add	sp, sp, #20
 211              		.cfi_def_cfa_offset 4
 212              		@ sp needed
 213 0078 5DF804FB 		ldr	pc, [sp], #4
 214              		.cfi_endproc
 215              	.LFE91:
 216              		.size	driveForward, .-driveForward
 217              		.section	.text.week4_1_evg,"ax",%progbits
 218              		.align	2
 219              		.global	week4_1_evg
 220              		.thumb
 221              		.thumb_func
 222              		.type	week4_1_evg, %function
 223              	week4_1_evg:
ARM GAS  C:\Users\EVGENY~1\AppData\Local\Temp\ccUd2T3k.s 			page 10


 224              	.LFB88:
 133:evgenii.c     ****     uint32_t count = 0;
 225              		.loc 1 133 0
 226              		.cfi_startproc
 227              		@ args = 0, pretend = 0, frame = 16
 228              		@ frame_needed = 0, uses_anonymous_args = 0
 229 0000 10B5     		push	{r4, lr}
 230              		.cfi_def_cfa_offset 8
 231              		.cfi_offset 4, -8
 232              		.cfi_offset 14, -4
 233 0002 86B0     		sub	sp, sp, #24
 234              		.cfi_def_cfa_offset 32
 235              	.LVL26:
 136:evgenii.c     ****     IR_Start();
 236              		.loc 1 136 0
 237 0004 FFF7FEFF 		bl	reflectance_start
 238              	.LVL27:
 137:evgenii.c     ****     motor_start();  
 239              		.loc 1 137 0
 240 0008 FFF7FEFF 		bl	IR_Start
 241              	.LVL28:
 138:evgenii.c     ****     motor_forward(0,0);
 242              		.loc 1 138 0
 243 000c FFF7FEFF 		bl	motor_start
 244              	.LVL29:
 139:evgenii.c     ****     reflectance_set_threshold(14000, 14000, 11000, 11000, 14000, 14000);  
 245              		.loc 1 139 0
 246 0010 0021     		movs	r1, #0
 247 0012 0846     		mov	r0, r1
 248 0014 FFF7FEFF 		bl	motor_forward
 249              	.LVL30:
 140:evgenii.c     ****     
 250              		.loc 1 140 0
 251 0018 43F2B060 		movw	r0, #14000
 252 001c 0190     		str	r0, [sp, #4]
 253 001e 0090     		str	r0, [sp]
 254 0020 42F6F823 		movw	r3, #11000
 255 0024 1A46     		mov	r2, r3
 256 0026 0146     		mov	r1, r0
 257 0028 FFF7FEFF 		bl	reflectance_set_threshold
 258              	.LVL31:
 259              	.L14:
 142:evgenii.c     ****       
 260              		.loc 1 142 0 discriminator 1
 261 002c FFF7FEFF 		bl	SW1_Read
 262              	.LVL32:
 263 0030 0028     		cmp	r0, #0
 264 0032 FBD1     		bne	.L14
 144:evgenii.c     ****     while(count<5) 
 265              		.loc 1 144 0
 266 0034 03A8     		add	r0, sp, #12
 267 0036 FFF7FEFF 		bl	reflectance_digital
 268              	.LVL33:
 134:evgenii.c     ****     struct sensors_ dig;
 269              		.loc 1 134 0
 270 003a 0024     		movs	r4, #0
 145:evgenii.c     ****     {
ARM GAS  C:\Users\EVGENY~1\AppData\Local\Temp\ccUd2T3k.s 			page 11


 271              		.loc 1 145 0
 272 003c 0EE0     		b	.L15
 273              	.LVL34:
 274              	.L17:
 147:evgenii.c     ****         count++;
 275              		.loc 1 147 0
 276 003e FFF7FEFF 		bl	driveForward
 277              	.LVL35:
 148:evgenii.c     ****         printf("one loop, %i lines passed by\n", count);
 278              		.loc 1 148 0
 279 0042 0134     		adds	r4, r4, #1
 280              	.LVL36:
 149:evgenii.c     ****         if(count == 1){
 281              		.loc 1 149 0
 282 0044 2146     		mov	r1, r4
 283 0046 0C48     		ldr	r0, .L19
 284 0048 FFF7FEFF 		bl	printf
 285              	.LVL37:
 150:evgenii.c     ****             motor_forward(0,0);
 286              		.loc 1 150 0
 287 004c 012C     		cmp	r4, #1
 288 004e 05D1     		bne	.L15
 151:evgenii.c     ****             IR_wait();
 289              		.loc 1 151 0
 290 0050 0021     		movs	r1, #0
 291 0052 0846     		mov	r0, r1
 292 0054 FFF7FEFF 		bl	motor_forward
 293              	.LVL38:
 152:evgenii.c     ****         }
 294              		.loc 1 152 0
 295 0058 FFF7FEFF 		bl	IR_wait
 296              	.LVL39:
 297              	.L15:
 145:evgenii.c     ****     {
 298              		.loc 1 145 0
 299 005c 042C     		cmp	r4, #4
 300 005e EED9     		bls	.L17
 155:evgenii.c     ****     motor_forward(0,0);         
 301              		.loc 1 155 0
 302 0060 2146     		mov	r1, r4
 303 0062 0648     		ldr	r0, .L19+4
 304 0064 FFF7FEFF 		bl	printf
 305              	.LVL40:
 156:evgenii.c     ****     motor_stop();
 306              		.loc 1 156 0
 307 0068 0021     		movs	r1, #0
 308 006a 0846     		mov	r0, r1
 309 006c FFF7FEFF 		bl	motor_forward
 310              	.LVL41:
 157:evgenii.c     **** }
 311              		.loc 1 157 0
 312 0070 FFF7FEFF 		bl	motor_stop
 313              	.LVL42:
 158:evgenii.c     **** 
 314              		.loc 1 158 0
 315 0074 06B0     		add	sp, sp, #24
 316              		.cfi_def_cfa_offset 8
ARM GAS  C:\Users\EVGENY~1\AppData\Local\Temp\ccUd2T3k.s 			page 12


 317              		@ sp needed
 318 0076 10BD     		pop	{r4, pc}
 319              	.LVL43:
 320              	.L20:
 321              		.align	2
 322              	.L19:
 323 0078 44000000 		.word	.LC2
 324 007c 64000000 		.word	.LC3
 325              		.cfi_endproc
 326              	.LFE88:
 327              		.size	week4_1_evg, .-week4_1_evg
 328              		.section	.text.week4_3_evg,"ax",%progbits
 329              		.align	2
 330              		.global	week4_3_evg
 331              		.thumb
 332              		.thumb_func
 333              		.type	week4_3_evg, %function
 334              	week4_3_evg:
 335              	.LFB90:
 209:evgenii.c     ****     uint32_t count = 0;
 336              		.loc 1 209 0
 337              		.cfi_startproc
 338              		@ args = 0, pretend = 0, frame = 16
 339              		@ frame_needed = 0, uses_anonymous_args = 0
 340 0000 10B5     		push	{r4, lr}
 341              		.cfi_def_cfa_offset 8
 342              		.cfi_offset 4, -8
 343              		.cfi_offset 14, -4
 344 0002 86B0     		sub	sp, sp, #24
 345              		.cfi_def_cfa_offset 32
 346              	.LVL44:
 212:evgenii.c     ****     IR_Start();
 347              		.loc 1 212 0
 348 0004 FFF7FEFF 		bl	reflectance_start
 349              	.LVL45:
 213:evgenii.c     ****     motor_start();  
 350              		.loc 1 213 0
 351 0008 FFF7FEFF 		bl	IR_Start
 352              	.LVL46:
 214:evgenii.c     ****     motor_forward(0,0);
 353              		.loc 1 214 0
 354 000c FFF7FEFF 		bl	motor_start
 355              	.LVL47:
 215:evgenii.c     ****     reflectance_set_threshold(11000, 11000, 11000, 11000, 11000, 11000);  
 356              		.loc 1 215 0
 357 0010 0021     		movs	r1, #0
 358 0012 0846     		mov	r0, r1
 359 0014 FFF7FEFF 		bl	motor_forward
 360              	.LVL48:
 216:evgenii.c     ****     IR_wait();
 361              		.loc 1 216 0
 362 0018 42F6F820 		movw	r0, #11000
 363 001c 0190     		str	r0, [sp, #4]
 364 001e 0090     		str	r0, [sp]
 365 0020 0346     		mov	r3, r0
 366 0022 0246     		mov	r2, r0
 367 0024 0146     		mov	r1, r0
ARM GAS  C:\Users\EVGENY~1\AppData\Local\Temp\ccUd2T3k.s 			page 13


 368 0026 FFF7FEFF 		bl	reflectance_set_threshold
 369              	.LVL49:
 217:evgenii.c     ****    // while(SW1_Read());
 370              		.loc 1 217 0
 371 002a FFF7FEFF 		bl	IR_wait
 372              	.LVL50:
 219:evgenii.c     ****     
 373              		.loc 1 219 0
 374 002e 03A8     		add	r0, sp, #12
 375 0030 FFF7FEFF 		bl	reflectance_digital
 376              	.LVL51:
 210:evgenii.c     ****     struct sensors_ dig;
 377              		.loc 1 210 0
 378 0034 0024     		movs	r4, #0
 221:evgenii.c     ****     {
 379              		.loc 1 221 0
 380 0036 7DE0     		b	.L22
 381              	.LVL52:
 382              	.L33:
 223:evgenii.c     ****         count++;
 383              		.loc 1 223 0
 384 0038 FFF7FEFF 		bl	driveForward
 385              	.LVL53:
 224:evgenii.c     ****         printf("one loop, %i lines passed by\n", count);
 386              		.loc 1 224 0
 387 003c 0134     		adds	r4, r4, #1
 388              	.LVL54:
 225:evgenii.c     ****         reflectance_digital(&dig);
 389              		.loc 1 225 0
 390 003e 2146     		mov	r1, r4
 391 0040 4248     		ldr	r0, .L37
 392 0042 FFF7FEFF 		bl	printf
 393              	.LVL55:
 226:evgenii.c     ****         // wait on first line
 394              		.loc 1 226 0
 395 0046 03A8     		add	r0, sp, #12
 396 0048 FFF7FEFF 		bl	reflectance_digital
 397              	.LVL56:
 228:evgenii.c     ****         {
 398              		.loc 1 228 0
 399 004c 012C     		cmp	r4, #1
 400 004e 06D1     		bne	.L23
 230:evgenii.c     ****             IR_wait();
 401              		.loc 1 230 0
 402 0050 0021     		movs	r1, #0
 403 0052 0846     		mov	r0, r1
 404 0054 FFF7FEFF 		bl	motor_forward
 405              	.LVL57:
 231:evgenii.c     ****         } else if(count == 2) 
 406              		.loc 1 231 0
 407 0058 FFF7FEFF 		bl	IR_wait
 408              	.LVL58:
 409 005c 6AE0     		b	.L22
 410              	.L23:
 232:evgenii.c     ****           {
 411              		.loc 1 232 0
 412 005e 022C     		cmp	r4, #2
ARM GAS  C:\Users\EVGENY~1\AppData\Local\Temp\ccUd2T3k.s 			page 14


 413 0060 21D1     		bne	.L34
 414 0062 07E0     		b	.L25
 415              	.L27:
 237:evgenii.c     ****                     reflectance_digital(&dig);
 416              		.loc 1 237 0
 417 0064 3222     		movs	r2, #50
 418 0066 FA21     		movs	r1, #250
 419 0068 0420     		movs	r0, #4
 420 006a FFF7FEFF 		bl	motor_turn
 421              	.LVL59:
 238:evgenii.c     ****               }
 422              		.loc 1 238 0
 423 006e 03A8     		add	r0, sp, #12
 424 0070 FFF7FEFF 		bl	reflectance_digital
 425              	.LVL60:
 426              	.L25:
 235:evgenii.c     ****               {
 427              		.loc 1 235 0
 428 0074 BDF80C30 		ldrh	r3, [sp, #12]
 429 0078 002B     		cmp	r3, #0
 430 007a F3D1     		bne	.L27
 235:evgenii.c     ****               {
 431              		.loc 1 235 0 is_stmt 0 discriminator 1
 432 007c BDF80E30 		ldrh	r3, [sp, #14]
 433 0080 002B     		cmp	r3, #0
 434 0082 EFD1     		bne	.L27
 235:evgenii.c     ****               {
 435              		.loc 1 235 0 discriminator 2
 436 0084 BDF81030 		ldrh	r3, [sp, #16]
 437 0088 012B     		cmp	r3, #1
 438 008a EBD1     		bne	.L27
 235:evgenii.c     ****               {
 439              		.loc 1 235 0 discriminator 3
 440 008c BDF81230 		ldrh	r3, [sp, #18]
 441 0090 012B     		cmp	r3, #1
 442 0092 E7D1     		bne	.L27
 235:evgenii.c     ****               {
 443              		.loc 1 235 0 discriminator 4
 444 0094 BDF81430 		ldrh	r3, [sp, #20]
 445 0098 002B     		cmp	r3, #0
 446 009a E3D1     		bne	.L27
 235:evgenii.c     ****               {
 447              		.loc 1 235 0 discriminator 5
 448 009c BDF81630 		ldrh	r3, [sp, #22]
 449 00a0 002B     		cmp	r3, #0
 450 00a2 DFD1     		bne	.L27
 451 00a4 46E0     		b	.L22
 452              	.L34:
 240:evgenii.c     ****             {
 453              		.loc 1 240 0 is_stmt 1
 454 00a6 032C     		cmp	r4, #3
 455 00a8 21D1     		bne	.L35
 456 00aa 07E0     		b	.L28
 457              	.L30:
 245:evgenii.c     ****                     reflectance_digital(&dig);
 458              		.loc 1 245 0
 459 00ac 4622     		movs	r2, #70
ARM GAS  C:\Users\EVGENY~1\AppData\Local\Temp\ccUd2T3k.s 			page 15


 460 00ae 0A21     		movs	r1, #10
 461 00b0 E620     		movs	r0, #230
 462 00b2 FFF7FEFF 		bl	motor_turn
 463              	.LVL61:
 246:evgenii.c     ****                 }
 464              		.loc 1 246 0
 465 00b6 03A8     		add	r0, sp, #12
 466 00b8 FFF7FEFF 		bl	reflectance_digital
 467              	.LVL62:
 468              	.L28:
 243:evgenii.c     ****                 {
 469              		.loc 1 243 0
 470 00bc BDF80C30 		ldrh	r3, [sp, #12]
 471 00c0 002B     		cmp	r3, #0
 472 00c2 F3D1     		bne	.L30
 243:evgenii.c     ****                 {
 473              		.loc 1 243 0 is_stmt 0 discriminator 1
 474 00c4 BDF80E30 		ldrh	r3, [sp, #14]
 475 00c8 002B     		cmp	r3, #0
 476 00ca EFD1     		bne	.L30
 243:evgenii.c     ****                 {
 477              		.loc 1 243 0 discriminator 2
 478 00cc BDF81030 		ldrh	r3, [sp, #16]
 479 00d0 012B     		cmp	r3, #1
 480 00d2 EBD1     		bne	.L30
 243:evgenii.c     ****                 {
 481              		.loc 1 243 0 discriminator 3
 482 00d4 BDF81230 		ldrh	r3, [sp, #18]
 483 00d8 012B     		cmp	r3, #1
 484 00da E7D1     		bne	.L30
 243:evgenii.c     ****                 {
 485              		.loc 1 243 0 discriminator 4
 486 00dc BDF81430 		ldrh	r3, [sp, #20]
 487 00e0 002B     		cmp	r3, #0
 488 00e2 E3D1     		bne	.L30
 243:evgenii.c     ****                 {
 489              		.loc 1 243 0 discriminator 5
 490 00e4 BDF81630 		ldrh	r3, [sp, #22]
 491 00e8 002B     		cmp	r3, #0
 492 00ea DFD1     		bne	.L30
 493 00ec 22E0     		b	.L22
 494              	.L35:
 248:evgenii.c     ****               {
 495              		.loc 1 248 0 is_stmt 1
 496 00ee 042C     		cmp	r4, #4
 497 00f0 20D1     		bne	.L22
 498 00f2 07E0     		b	.L31
 499              	.L32:
 253:evgenii.c     ****                     reflectance_digital(&dig);
 500              		.loc 1 253 0
 501 00f4 3222     		movs	r2, #50
 502 00f6 0A21     		movs	r1, #10
 503 00f8 E620     		movs	r0, #230
 504 00fa FFF7FEFF 		bl	motor_turn
 505              	.LVL63:
 254:evgenii.c     ****                 }
 506              		.loc 1 254 0
ARM GAS  C:\Users\EVGENY~1\AppData\Local\Temp\ccUd2T3k.s 			page 16


 507 00fe 03A8     		add	r0, sp, #12
 508 0100 FFF7FEFF 		bl	reflectance_digital
 509              	.LVL64:
 510              	.L31:
 251:evgenii.c     ****                 {
 511              		.loc 1 251 0
 512 0104 BDF80C30 		ldrh	r3, [sp, #12]
 513 0108 002B     		cmp	r3, #0
 514 010a F3D1     		bne	.L32
 251:evgenii.c     ****                 {
 515              		.loc 1 251 0 is_stmt 0 discriminator 1
 516 010c BDF80E30 		ldrh	r3, [sp, #14]
 517 0110 002B     		cmp	r3, #0
 518 0112 EFD1     		bne	.L32
 251:evgenii.c     ****                 {
 519              		.loc 1 251 0 discriminator 2
 520 0114 BDF81030 		ldrh	r3, [sp, #16]
 521 0118 012B     		cmp	r3, #1
 522 011a EBD1     		bne	.L32
 251:evgenii.c     ****                 {
 523              		.loc 1 251 0 discriminator 3
 524 011c BDF81230 		ldrh	r3, [sp, #18]
 525 0120 012B     		cmp	r3, #1
 526 0122 E7D1     		bne	.L32
 251:evgenii.c     ****                 {
 527              		.loc 1 251 0 discriminator 4
 528 0124 BDF81430 		ldrh	r3, [sp, #20]
 529 0128 002B     		cmp	r3, #0
 530 012a E3D1     		bne	.L32
 251:evgenii.c     ****                 {
 531              		.loc 1 251 0 discriminator 5
 532 012c BDF81630 		ldrh	r3, [sp, #22]
 533 0130 002B     		cmp	r3, #0
 534 0132 DFD1     		bne	.L32
 535              	.LVL65:
 536              	.L22:
 221:evgenii.c     ****     {
 537              		.loc 1 221 0 is_stmt 1
 538 0134 042C     		cmp	r4, #4
 539 0136 7FF67FAF 		bls	.L33
 258:evgenii.c     ****     motor_stop();
 540              		.loc 1 258 0
 541 013a 0021     		movs	r1, #0
 542 013c 0846     		mov	r0, r1
 543 013e FFF7FEFF 		bl	motor_forward
 544              	.LVL66:
 259:evgenii.c     **** }
 545              		.loc 1 259 0
 546 0142 FFF7FEFF 		bl	motor_stop
 547              	.LVL67:
 260:evgenii.c     **** 
 548              		.loc 1 260 0
 549 0146 06B0     		add	sp, sp, #24
 550              		.cfi_def_cfa_offset 8
 551              		@ sp needed
 552 0148 10BD     		pop	{r4, pc}
 553              	.LVL68:
ARM GAS  C:\Users\EVGENY~1\AppData\Local\Temp\ccUd2T3k.s 			page 17


 554              	.L38:
 555 014a 00BF     		.align	2
 556              	.L37:
 557 014c 44000000 		.word	.LC2
 558              		.cfi_endproc
 559              	.LFE90:
 560              		.size	week4_3_evg, .-week4_3_evg
 561              		.section	.text.progEndEvg,"ax",%progbits
 562              		.align	2
 563              		.global	progEndEvg
 564              		.thumb
 565              		.thumb_func
 566              		.type	progEndEvg, %function
 567              	progEndEvg:
 568              	.LFB92:
 283:evgenii.c     **** 
 284:evgenii.c     **** 
 285:evgenii.c     **** 
 286:evgenii.c     **** 
 287:evgenii.c     **** 
 288:evgenii.c     **** void progEndEvg(uint32_t delay) {
 569              		.loc 1 288 0
 570              		.cfi_startproc
 571              		@ args = 0, pretend = 0, frame = 0
 572              		@ frame_needed = 0, uses_anonymous_args = 0
 573              	.LVL69:
 574 0000 38B5     		push	{r3, r4, r5, lr}
 575              		.cfi_def_cfa_offset 16
 576              		.cfi_offset 3, -16
 577              		.cfi_offset 4, -12
 578              		.cfi_offset 5, -8
 579              		.cfi_offset 14, -4
 580 0002 0546     		mov	r5, r0
 581              	.LVL70:
 289:evgenii.c     ****     bool led = false;
 582              		.loc 1 289 0
 583 0004 0024     		movs	r4, #0
 584              	.LVL71:
 585              	.L40:
 290:evgenii.c     ****     while(true){
 291:evgenii.c     ****      BatteryLed_Write(led^=1);
 586              		.loc 1 291 0 discriminator 1
 587 0006 84F00104 		eor	r4, r4, #1
 588              	.LVL72:
 589 000a 2046     		mov	r0, r4
 590 000c FFF7FEFF 		bl	BatteryLed_Write
 591              	.LVL73:
 292:evgenii.c     ****      vTaskDelay(delay);   
 592              		.loc 1 292 0 discriminator 1
 593 0010 2846     		mov	r0, r5
 594 0012 FFF7FEFF 		bl	vTaskDelay
 595              	.LVL74:
 596 0016 F6E7     		b	.L40
 597              		.cfi_endproc
 598              	.LFE92:
 599              		.size	progEndEvg, .-progEndEvg
 600              		.section	.text.tankTLEvg,"ax",%progbits
ARM GAS  C:\Users\EVGENY~1\AppData\Local\Temp\ccUd2T3k.s 			page 18


 601              		.align	2
 602              		.global	tankTLEvg
 603              		.thumb
 604              		.thumb_func
 605              		.type	tankTLEvg, %function
 606              	tankTLEvg:
 607              	.LFB93:
 293:evgenii.c     ****     }
 294:evgenii.c     **** }
 295:evgenii.c     **** void tankTLEvg(uint8_t speed, uint32_t delay) {
 608              		.loc 1 295 0
 609              		.cfi_startproc
 610              		@ args = 0, pretend = 0, frame = 0
 611              		@ frame_needed = 0, uses_anonymous_args = 0
 612              	.LVL75:
 613 0000 00B5     		push	{lr}
 614              		.cfi_def_cfa_offset 4
 615              		.cfi_offset 14, -4
 616 0002 83B0     		sub	sp, sp, #12
 617              		.cfi_def_cfa_offset 16
 618 0004 0246     		mov	r2, r0
 296:evgenii.c     ****     SetMotors(1, 0, speed, speed, delay);
 619              		.loc 1 296 0
 620 0006 0091     		str	r1, [sp]
 621 0008 0346     		mov	r3, r0
 622 000a 0021     		movs	r1, #0
 623              	.LVL76:
 624 000c 0120     		movs	r0, #1
 625              	.LVL77:
 626 000e FFF7FEFF 		bl	SetMotors
 627              	.LVL78:
 297:evgenii.c     **** }
 628              		.loc 1 297 0
 629 0012 03B0     		add	sp, sp, #12
 630              		.cfi_def_cfa_offset 4
 631              		@ sp needed
 632 0014 5DF804FB 		ldr	pc, [sp], #4
 633              		.cfi_endproc
 634              	.LFE93:
 635              		.size	tankTLEvg, .-tankTLEvg
 636              		.section	.text.tankTREvg,"ax",%progbits
 637              		.align	2
 638              		.global	tankTREvg
 639              		.thumb
 640              		.thumb_func
 641              		.type	tankTREvg, %function
 642              	tankTREvg:
 643              	.LFB94:
 298:evgenii.c     **** 
 299:evgenii.c     **** void tankTREvg(uint8_t speed, uint32_t delay) {
 644              		.loc 1 299 0
 645              		.cfi_startproc
 646              		@ args = 0, pretend = 0, frame = 0
 647              		@ frame_needed = 0, uses_anonymous_args = 0
 648              	.LVL79:
 649 0000 00B5     		push	{lr}
 650              		.cfi_def_cfa_offset 4
ARM GAS  C:\Users\EVGENY~1\AppData\Local\Temp\ccUd2T3k.s 			page 19


 651              		.cfi_offset 14, -4
 652 0002 83B0     		sub	sp, sp, #12
 653              		.cfi_def_cfa_offset 16
 654 0004 0246     		mov	r2, r0
 300:evgenii.c     ****     SetMotors(0, 1, speed, speed, delay);
 655              		.loc 1 300 0
 656 0006 0091     		str	r1, [sp]
 657 0008 0346     		mov	r3, r0
 658 000a 0121     		movs	r1, #1
 659              	.LVL80:
 660 000c 0020     		movs	r0, #0
 661              	.LVL81:
 662 000e FFF7FEFF 		bl	SetMotors
 663              	.LVL82:
 301:evgenii.c     **** }
 664              		.loc 1 301 0
 665 0012 03B0     		add	sp, sp, #12
 666              		.cfi_def_cfa_offset 4
 667              		@ sp needed
 668 0014 5DF804FB 		ldr	pc, [sp], #4
 669              		.cfi_endproc
 670              	.LFE94:
 671              		.size	tankTREvg, .-tankTREvg
 672              		.section	.text.randomEvg,"ax",%progbits
 673              		.align	2
 674              		.global	randomEvg
 675              		.thumb
 676              		.thumb_func
 677              		.type	randomEvg, %function
 678              	randomEvg:
 679              	.LFB95:
 302:evgenii.c     **** 
 303:evgenii.c     **** int randomEvg(int min, int max) {
 680              		.loc 1 303 0
 681              		.cfi_startproc
 682              		@ args = 0, pretend = 0, frame = 0
 683              		@ frame_needed = 0, uses_anonymous_args = 0
 684              	.LVL83:
 685 0000 38B5     		push	{r3, r4, r5, lr}
 686              		.cfi_def_cfa_offset 16
 687              		.cfi_offset 3, -16
 688              		.cfi_offset 4, -12
 689              		.cfi_offset 5, -8
 690              		.cfi_offset 14, -4
 691 0002 0546     		mov	r5, r0
 692 0004 0C46     		mov	r4, r1
 304:evgenii.c     ****     srand(xTaskGetTickCount());
 693              		.loc 1 304 0
 694 0006 FFF7FEFF 		bl	xTaskGetTickCount
 695              	.LVL84:
 696 000a FFF7FEFF 		bl	srand
 697              	.LVL85:
 305:evgenii.c     ****     int random = (rand() % (max - min + 1)) + min;
 698              		.loc 1 305 0
 699 000e FFF7FEFF 		bl	rand
 700              	.LVL86:
 701 0012 641B     		subs	r4, r4, r5
ARM GAS  C:\Users\EVGENY~1\AppData\Local\Temp\ccUd2T3k.s 			page 20


 702              	.LVL87:
 703 0014 631C     		adds	r3, r4, #1
 704 0016 90FBF3F2 		sdiv	r2, r0, r3
 705 001a 03FB1200 		mls	r0, r3, r2, r0
 706              	.LVL88:
 306:evgenii.c     ****     return random;
 307:evgenii.c     **** }
 707              		.loc 1 307 0
 708 001e 2844     		add	r0, r0, r5
 709              	.LVL89:
 710 0020 38BD     		pop	{r3, r4, r5, pc}
 711              		.cfi_endproc
 712              	.LFE95:
 713              		.size	randomEvg, .-randomEvg
 714 0022 00BF     		.section	.text.week3_3_evg,"ax",%progbits
 715              		.align	2
 716              		.global	week3_3_evg
 717              		.thumb
 718              		.thumb_func
 719              		.type	week3_3_evg, %function
 720              	week3_3_evg:
 721              	.LFB87:
  96:evgenii.c     ****     printf("Press IR send to start and button on PSoC to stop");
 722              		.loc 1 96 0
 723              		.cfi_startproc
 724              		@ args = 0, pretend = 0, frame = 0
 725              		@ frame_needed = 0, uses_anonymous_args = 0
 726 0000 38B5     		push	{r3, r4, r5, lr}
 727              		.cfi_def_cfa_offset 16
 728              		.cfi_offset 3, -16
 729              		.cfi_offset 4, -12
 730              		.cfi_offset 5, -8
 731              		.cfi_offset 14, -4
  97:evgenii.c     ****     Ultra_Start();              // Ultra Sonic Start function
 732              		.loc 1 97 0
 733 0002 2748     		ldr	r0, .L54
 734 0004 FFF7FEFF 		bl	printf
 735              	.LVL90:
  98:evgenii.c     ****     motor_start();              // enable motor controller
 736              		.loc 1 98 0
 737 0008 FFF7FEFF 		bl	Ultra_Start
 738              	.LVL91:
  99:evgenii.c     ****     motor_forward(0,0);         // set speed to zero to stop motors
 739              		.loc 1 99 0
 740 000c FFF7FEFF 		bl	motor_start
 741              	.LVL92:
 100:evgenii.c     ****     IR_Start();
 742              		.loc 1 100 0
 743 0010 0021     		movs	r1, #0
 744 0012 0846     		mov	r0, r1
 745 0014 FFF7FEFF 		bl	motor_forward
 746              	.LVL93:
 101:evgenii.c     ****     IR_wait();
 747              		.loc 1 101 0
 748 0018 FFF7FEFF 		bl	IR_Start
 749              	.LVL94:
 102:evgenii.c     ****     while(true) {
ARM GAS  C:\Users\EVGENY~1\AppData\Local\Temp\ccUd2T3k.s 			page 21


 750              		.loc 1 102 0
 751 001c FFF7FEFF 		bl	IR_wait
 752              	.LVL95:
 753              	.L52:
 754              	.LBB3:
 104:evgenii.c     ****         int d = Ultra_GetDistance();
 755              		.loc 1 104 0
 756 0020 3221     		movs	r1, #50
 757 0022 7D20     		movs	r0, #125
 758 0024 FFF7FEFF 		bl	motor_forward
 759              	.LVL96:
 105:evgenii.c     ****         // Print the detected distance (centimeters)
 760              		.loc 1 105 0
 761 0028 FFF7FEFF 		bl	Ultra_GetDistance
 762              	.LVL97:
 763 002c 0546     		mov	r5, r0
 764              	.LVL98:
 108:evgenii.c     ****        int turn = randomEvg(103, 309);
 765              		.loc 1 108 0
 766 002e C820     		movs	r0, #200
 767              	.LVL99:
 768 0030 FFF7FEFF 		bl	vTaskDelay
 769              	.LVL100:
 109:evgenii.c     ****         if(d < 11){
 770              		.loc 1 109 0
 771 0034 40F23511 		movw	r1, #309
 772 0038 6720     		movs	r0, #103
 773 003a FFF7FEFF 		bl	randomEvg
 774              	.LVL101:
 775 003e 0446     		mov	r4, r0
 776              	.LVL102:
 110:evgenii.c     ****             motor_forward(0,10);         
 777              		.loc 1 110 0
 778 0040 0A2D     		cmp	r5, #10
 779 0042 21DC     		bgt	.L49
 111:evgenii.c     ****             motor_backward(100, 150);
 780              		.loc 1 111 0
 781 0044 0A21     		movs	r1, #10
 782 0046 0020     		movs	r0, #0
 783              	.LVL103:
 784 0048 FFF7FEFF 		bl	motor_forward
 785              	.LVL104:
 112:evgenii.c     ****             if (turn % 2 == 1) {
 786              		.loc 1 112 0
 787 004c 9621     		movs	r1, #150
 788 004e 6420     		movs	r0, #100
 789 0050 FFF7FEFF 		bl	motor_backward
 790              	.LVL105:
 113:evgenii.c     ****                tankTLEvg(255, turn);
 791              		.loc 1 113 0
 792 0054 134B     		ldr	r3, .L54+4
 793 0056 2340     		ands	r3, r4, r3
 794 0058 03D5     		bpl	.L50
 795 005a 013B     		subs	r3, r3, #1
 796 005c 63F00103 		orn	r3, r3, #1
 797 0060 0133     		adds	r3, r3, #1
 798              	.L50:
ARM GAS  C:\Users\EVGENY~1\AppData\Local\Temp\ccUd2T3k.s 			page 22


 799 0062 012B     		cmp	r3, #1
 800 0064 08D1     		bne	.L51
 114:evgenii.c     ****                printf("\nTurn value is %i so I turn left\n", turn);
 801              		.loc 1 114 0
 802 0066 2146     		mov	r1, r4
 803 0068 FF20     		movs	r0, #255
 804 006a FFF7FEFF 		bl	tankTLEvg
 805              	.LVL106:
 115:evgenii.c     ****             } else {
 806              		.loc 1 115 0
 807 006e 2146     		mov	r1, r4
 808 0070 0D48     		ldr	r0, .L54+8
 809 0072 FFF7FEFF 		bl	printf
 810              	.LVL107:
 811 0076 07E0     		b	.L49
 812              	.L51:
 117:evgenii.c     ****                printf("\nTurn value is %i so I turn right\n", turn);
 813              		.loc 1 117 0
 814 0078 2146     		mov	r1, r4
 815 007a FF20     		movs	r0, #255
 816 007c FFF7FEFF 		bl	tankTREvg
 817              	.LVL108:
 118:evgenii.c     ****             }
 818              		.loc 1 118 0
 819 0080 2146     		mov	r1, r4
 820 0082 0A48     		ldr	r0, .L54+12
 821 0084 FFF7FEFF 		bl	printf
 822              	.LVL109:
 823              	.L49:
 121:evgenii.c     ****              break;
 824              		.loc 1 121 0
 825 0088 FFF7FEFF 		bl	SW1_Read
 826              	.LVL110:
 827 008c 0028     		cmp	r0, #0
 828 008e C7D1     		bne	.L52
 829              	.LBE3:
 125:evgenii.c     ****     motor_stop();
 830              		.loc 1 125 0
 831 0090 0021     		movs	r1, #0
 832 0092 0846     		mov	r0, r1
 833 0094 FFF7FEFF 		bl	motor_forward
 834              	.LVL111:
 126:evgenii.c     **** 
 835              		.loc 1 126 0
 836 0098 FFF7FEFF 		bl	motor_stop
 837              	.LVL112:
 838 009c 38BD     		pop	{r3, r4, r5, pc}
 839              	.LVL113:
 840              	.L55:
 841 009e 00BF     		.align	2
 842              	.L54:
 843 00a0 00000000 		.word	.LC0
 844 00a4 01000080 		.word	-2147483647
 845 00a8 7C000000 		.word	.LC4
 846 00ac A0000000 		.word	.LC5
 847              		.cfi_endproc
 848              	.LFE87:
ARM GAS  C:\Users\EVGENY~1\AppData\Local\Temp\ccUd2T3k.s 			page 23


 849              		.size	week3_3_evg, .-week3_3_evg
 850              		.section	.text.tankTurnEvg,"ax",%progbits
 851              		.align	2
 852              		.global	tankTurnEvg
 853              		.thumb
 854              		.thumb_func
 855              		.type	tankTurnEvg, %function
 856              	tankTurnEvg:
 857              	.LFB96:
 308:evgenii.c     **** 
 309:evgenii.c     **** 
 310:evgenii.c     **** 
 311:evgenii.c     **** void tankTurnEvg(uint8 l_speed, uint8 r_speed, uint32 delay){
 858              		.loc 1 311 0
 859              		.cfi_startproc
 860              		@ args = 0, pretend = 0, frame = 0
 861              		@ frame_needed = 0, uses_anonymous_args = 0
 862              	.LVL114:
 863 0000 00B5     		push	{lr}
 864              		.cfi_def_cfa_offset 4
 865              		.cfi_offset 14, -4
 866 0002 83B0     		sub	sp, sp, #12
 867              		.cfi_def_cfa_offset 16
 312:evgenii.c     ****     SetMotors(0,0, l_speed, r_speed, delay);
 868              		.loc 1 312 0
 869 0004 0092     		str	r2, [sp]
 870 0006 0B46     		mov	r3, r1
 871 0008 0246     		mov	r2, r0
 872              	.LVL115:
 873 000a 0021     		movs	r1, #0
 874              	.LVL116:
 875 000c 0846     		mov	r0, r1
 876              	.LVL117:
 877 000e FFF7FEFF 		bl	SetMotors
 878              	.LVL118:
 313:evgenii.c     **** }
 879              		.loc 1 313 0
 880 0012 03B0     		add	sp, sp, #12
 881              		.cfi_def_cfa_offset 4
 882              		@ sp needed
 883 0014 5DF804FB 		ldr	pc, [sp], #4
 884              		.cfi_endproc
 885              	.LFE96:
 886              		.size	tankTurnEvg, .-tankTurnEvg
 887              		.section	.text.week3_1_evg,"ax",%progbits
 888              		.align	2
 889              		.global	week3_1_evg
 890              		.thumb
 891              		.thumb_func
 892              		.type	week3_1_evg, %function
 893              	week3_1_evg:
 894              	.LFB85:
  41:evgenii.c     ****     
 895              		.loc 1 41 0
 896              		.cfi_startproc
 897              		@ Volatile: function does not return.
 898              		@ args = 0, pretend = 0, frame = 0
ARM GAS  C:\Users\EVGENY~1\AppData\Local\Temp\ccUd2T3k.s 			page 24


 899              		@ frame_needed = 0, uses_anonymous_args = 0
 900 0000 08B5     		push	{r3, lr}
 901              		.cfi_def_cfa_offset 8
 902              		.cfi_offset 3, -8
 903              		.cfi_offset 14, -4
  43:evgenii.c     ****     motor_forward(0,0);         // set speed to zero to stop motors
 904              		.loc 1 43 0
 905 0002 FFF7FEFF 		bl	motor_start
 906              	.LVL119:
  44:evgenii.c     ****     IR_Start();
 907              		.loc 1 44 0
 908 0006 0021     		movs	r1, #0
 909 0008 0846     		mov	r0, r1
 910 000a FFF7FEFF 		bl	motor_forward
 911              	.LVL120:
  45:evgenii.c     ****     IR_wait();
 912              		.loc 1 45 0
 913 000e FFF7FEFF 		bl	IR_Start
 914              	.LVL121:
  46:evgenii.c     ****     motor_forward(125,2750);     // moving forward from starting point
 915              		.loc 1 46 0
 916 0012 FFF7FEFF 		bl	IR_wait
 917              	.LVL122:
  47:evgenii.c     ****     
 918              		.loc 1 47 0
 919 0016 40F6BE21 		movw	r1, #2750
 920 001a 7D20     		movs	r0, #125
 921 001c FFF7FEFF 		bl	motor_forward
 922              	.LVL123:
  49:evgenii.c     ****     motor_forward(125,2350);    // forward on horisontal line
 923              		.loc 1 49 0
 924 0020 6721     		movs	r1, #103
 925 0022 FF20     		movs	r0, #255
 926 0024 FFF7FEFF 		bl	tankTREvg
 927              	.LVL124:
  50:evgenii.c     ****     tankTREvg(255, 103);           // 2nd turn
 928              		.loc 1 50 0
 929 0028 40F62E11 		movw	r1, #2350
 930 002c 7D20     		movs	r0, #125
 931 002e FFF7FEFF 		bl	motor_forward
 932              	.LVL125:
  51:evgenii.c     ****     motor_forward(125,2550);
 933              		.loc 1 51 0
 934 0032 6721     		movs	r1, #103
 935 0034 FF20     		movs	r0, #255
 936 0036 FFF7FEFF 		bl	tankTREvg
 937              	.LVL126:
  52:evgenii.c     ****     tankTREvg(255, 103);           // 2nd turn
 938              		.loc 1 52 0
 939 003a 40F6F611 		movw	r1, #2550
 940 003e 7D20     		movs	r0, #125
 941 0040 FFF7FEFF 		bl	motor_forward
 942              	.LVL127:
  53:evgenii.c     ****     tankTurnEvg(164,135,1780);
 943              		.loc 1 53 0
 944 0044 6721     		movs	r1, #103
 945 0046 FF20     		movs	r0, #255
ARM GAS  C:\Users\EVGENY~1\AppData\Local\Temp\ccUd2T3k.s 			page 25


 946 0048 FFF7FEFF 		bl	tankTREvg
 947              	.LVL128:
  54:evgenii.c     ****     motor_forward(125,570);     // moving forward from starting point
 948              		.loc 1 54 0
 949 004c 40F2F462 		movw	r2, #1780
 950 0050 8721     		movs	r1, #135
 951 0052 A420     		movs	r0, #164
 952 0054 FFF7FEFF 		bl	tankTurnEvg
 953              	.LVL129:
  55:evgenii.c     ****     motor_forward(0,0);         // stop motors
 954              		.loc 1 55 0
 955 0058 40F23A21 		movw	r1, #570
 956 005c 7D20     		movs	r0, #125
 957 005e FFF7FEFF 		bl	motor_forward
 958              	.LVL130:
  56:evgenii.c     ****     motor_stop();               // disable motor controller
 959              		.loc 1 56 0
 960 0062 0021     		movs	r1, #0
 961 0064 0846     		mov	r0, r1
 962 0066 FFF7FEFF 		bl	motor_forward
 963              	.LVL131:
  57:evgenii.c     ****     
 964              		.loc 1 57 0
 965 006a FFF7FEFF 		bl	motor_stop
 966              	.LVL132:
  59:evgenii.c     **** }
 967              		.loc 1 59 0
 968 006e 6420     		movs	r0, #100
 969 0070 FFF7FEFF 		bl	progEndEvg
 970              	.LVL133:
 971              		.cfi_endproc
 972              	.LFE85:
 973              		.size	week3_1_evg, .-week3_1_evg
 974              		.section	.text.week4_2_evg,"ax",%progbits
 975              		.align	2
 976              		.global	week4_2_evg
 977              		.thumb
 978              		.thumb_func
 979              		.type	week4_2_evg, %function
 980              	week4_2_evg:
 981              	.LFB89:
 164:evgenii.c     ****     struct sensors_ dig;
 982              		.loc 1 164 0
 983              		.cfi_startproc
 984              		@ args = 0, pretend = 0, frame = 16
 985              		@ frame_needed = 0, uses_anonymous_args = 0
 986 0000 00B5     		push	{lr}
 987              		.cfi_def_cfa_offset 4
 988              		.cfi_offset 14, -4
 989 0002 87B0     		sub	sp, sp, #28
 990              		.cfi_def_cfa_offset 32
 166:evgenii.c     ****     IR_Start();
 991              		.loc 1 166 0
 992 0004 FFF7FEFF 		bl	reflectance_start
 993              	.LVL134:
 167:evgenii.c     ****     motor_start();  
 994              		.loc 1 167 0
ARM GAS  C:\Users\EVGENY~1\AppData\Local\Temp\ccUd2T3k.s 			page 26


 995 0008 FFF7FEFF 		bl	IR_Start
 996              	.LVL135:
 168:evgenii.c     ****     motor_forward(0,0);
 997              		.loc 1 168 0
 998 000c FFF7FEFF 		bl	motor_start
 999              	.LVL136:
 169:evgenii.c     ****     reflectance_set_threshold(11000, 11000, 11000, 11000, 11000, 11000);  
 1000              		.loc 1 169 0
 1001 0010 0021     		movs	r1, #0
 1002 0012 0846     		mov	r0, r1
 1003 0014 FFF7FEFF 		bl	motor_forward
 1004              	.LVL137:
 170:evgenii.c     ****     IR_wait();
 1005              		.loc 1 170 0
 1006 0018 42F6F820 		movw	r0, #11000
 1007 001c 0190     		str	r0, [sp, #4]
 1008 001e 0090     		str	r0, [sp]
 1009 0020 0346     		mov	r3, r0
 1010 0022 0246     		mov	r2, r0
 1011 0024 0146     		mov	r1, r0
 1012 0026 FFF7FEFF 		bl	reflectance_set_threshold
 1013              	.LVL138:
 171:evgenii.c     ****     //while(SW1_Read());
 1014              		.loc 1 171 0
 1015 002a FFF7FEFF 		bl	IR_wait
 1016              	.LVL139:
 173:evgenii.c     ****     
 1017              		.loc 1 173 0
 1018 002e 03A8     		add	r0, sp, #12
 1019 0030 FFF7FEFF 		bl	reflectance_digital
 1020              	.LVL140:
 175:evgenii.c     ****         printf("after driveforward\n");
 1021              		.loc 1 175 0
 1022 0034 FFF7FEFF 		bl	driveForward
 1023              	.LVL141:
 176:evgenii.c     ****         IR_wait();  
 1024              		.loc 1 176 0
 1025 0038 2A48     		ldr	r0, .L69
 1026 003a FFF7FEFF 		bl	puts
 1027              	.LVL142:
 177:evgenii.c     ****         reflectance_digital(&dig); 
 1028              		.loc 1 177 0
 1029 003e FFF7FEFF 		bl	IR_wait
 1030              	.LVL143:
 178:evgenii.c     ****         while(!(dig.L3 == 0 && dig.L2 == 0 && dig.R2 == 0 && dig.R3 == 0))
 1031              		.loc 1 178 0
 1032 0042 03A8     		add	r0, sp, #12
 1033 0044 FFF7FEFF 		bl	reflectance_digital
 1034              	.LVL144:
 179:evgenii.c     ****         {
 1035              		.loc 1 179 0
 1036 0048 06E0     		b	.L61
 1037              	.L62:
 181:evgenii.c     ****              motor_forward(125,0);
 1038              		.loc 1 181 0
 1039 004a 03A8     		add	r0, sp, #12
 1040 004c FFF7FEFF 		bl	reflectance_digital
ARM GAS  C:\Users\EVGENY~1\AppData\Local\Temp\ccUd2T3k.s 			page 27


 1041              	.LVL145:
 182:evgenii.c     ****         }
 1042              		.loc 1 182 0
 1043 0050 0021     		movs	r1, #0
 1044 0052 7D20     		movs	r0, #125
 1045 0054 FFF7FEFF 		bl	motor_forward
 1046              	.LVL146:
 1047              	.L61:
 179:evgenii.c     ****         {
 1048              		.loc 1 179 0
 1049 0058 BDF80C30 		ldrh	r3, [sp, #12]
 1050 005c 002B     		cmp	r3, #0
 1051 005e F4D1     		bne	.L62
 179:evgenii.c     ****         {
 1052              		.loc 1 179 0 is_stmt 0 discriminator 1
 1053 0060 BDF80E30 		ldrh	r3, [sp, #14]
 1054 0064 002B     		cmp	r3, #0
 1055 0066 F0D1     		bne	.L62
 179:evgenii.c     ****         {
 1056              		.loc 1 179 0 discriminator 2
 1057 0068 BDF81430 		ldrh	r3, [sp, #20]
 1058 006c 002B     		cmp	r3, #0
 1059 006e ECD1     		bne	.L62
 179:evgenii.c     ****         {
 1060              		.loc 1 179 0 discriminator 3
 1061 0070 BDF81630 		ldrh	r3, [sp, #22]
 1062 0074 002B     		cmp	r3, #0
 1063 0076 E8D1     		bne	.L62
 184:evgenii.c     ****         //driveForward();
 1064              		.loc 1 184 0 is_stmt 1
 1065 0078 03A8     		add	r0, sp, #12
 1066 007a FFF7FEFF 		bl	reflectance_digital
 1067              	.LVL147:
 186:evgenii.c     ****         {
 1068              		.loc 1 186 0
 1069 007e 1EE0     		b	.L65
 1070              	.L67:
 188:evgenii.c     ****             reflectance_digital(&dig); 
 1071              		.loc 1 188 0
 1072 0080 0021     		movs	r1, #0
 1073 0082 3220     		movs	r0, #50
 1074 0084 FFF7FEFF 		bl	motor_forward
 1075              	.LVL148:
 189:evgenii.c     ****             
 1076              		.loc 1 189 0
 1077 0088 03A8     		add	r0, sp, #12
 1078 008a FFF7FEFF 		bl	reflectance_digital
 1079              	.LVL149:
 191:evgenii.c     ****             {   
 1080              		.loc 1 191 0
 1081 008e BDF81430 		ldrh	r3, [sp, #20]
 1082 0092 012B     		cmp	r3, #1
 1083 0094 07D1     		bne	.L64
 193:evgenii.c     ****                 reflectance_digital(&dig); 
 1084              		.loc 1 193 0
 1085 0096 0022     		movs	r2, #0
 1086 0098 1146     		mov	r1, r2
ARM GAS  C:\Users\EVGENY~1\AppData\Local\Temp\ccUd2T3k.s 			page 28


 1087 009a 9620     		movs	r0, #150
 1088 009c FFF7FEFF 		bl	tankTurnEvg
 1089              	.LVL150:
 194:evgenii.c     ****             }
 1090              		.loc 1 194 0
 1091 00a0 03A8     		add	r0, sp, #12
 1092 00a2 FFF7FEFF 		bl	reflectance_digital
 1093              	.LVL151:
 1094              	.L64:
 196:evgenii.c     ****             {   
 1095              		.loc 1 196 0
 1096 00a6 BDF80E30 		ldrh	r3, [sp, #14]
 1097 00aa 012B     		cmp	r3, #1
 1098 00ac 07D1     		bne	.L65
 198:evgenii.c     ****                 reflectance_digital(&dig); 
 1099              		.loc 1 198 0
 1100 00ae 0022     		movs	r2, #0
 1101 00b0 C821     		movs	r1, #200
 1102 00b2 1046     		mov	r0, r2
 1103 00b4 FFF7FEFF 		bl	tankTurnEvg
 1104              	.LVL152:
 199:evgenii.c     ****             }
 1105              		.loc 1 199 0
 1106 00b8 03A8     		add	r0, sp, #12
 1107 00ba FFF7FEFF 		bl	reflectance_digital
 1108              	.LVL153:
 1109              	.L65:
 186:evgenii.c     ****         {
 1110              		.loc 1 186 0
 1111 00be BDF80C30 		ldrh	r3, [sp, #12]
 1112 00c2 1BB9     		cbnz	r3, .L66
 186:evgenii.c     ****         {
 1113              		.loc 1 186 0 is_stmt 0 discriminator 1
 1114 00c4 BDF81630 		ldrh	r3, [sp, #22]
 1115 00c8 002B     		cmp	r3, #0
 1116 00ca D9D0     		beq	.L67
 1117              	.L66:
 202:evgenii.c     ****     motor_forward(0,0);         
 1118              		.loc 1 202 0 is_stmt 1
 1119 00cc 0648     		ldr	r0, .L69+4
 1120 00ce FFF7FEFF 		bl	printf
 1121              	.LVL154:
 203:evgenii.c     ****     motor_stop();
 1122              		.loc 1 203 0
 1123 00d2 0021     		movs	r1, #0
 1124 00d4 0846     		mov	r0, r1
 1125 00d6 FFF7FEFF 		bl	motor_forward
 1126              	.LVL155:
 204:evgenii.c     **** }
 1127              		.loc 1 204 0
 1128 00da FFF7FEFF 		bl	motor_stop
 1129              	.LVL156:
 205:evgenii.c     **** //week 4 Exercise 3
 1130              		.loc 1 205 0
 1131 00de 07B0     		add	sp, sp, #28
 1132              		.cfi_def_cfa_offset 4
 1133              		@ sp needed
ARM GAS  C:\Users\EVGENY~1\AppData\Local\Temp\ccUd2T3k.s 			page 29


 1134 00e0 5DF804FB 		ldr	pc, [sp], #4
 1135              	.L70:
 1136              		.align	2
 1137              	.L69:
 1138 00e4 C4000000 		.word	.LC6
 1139 00e8 D8000000 		.word	.LC7
 1140              		.cfi_endproc
 1141              	.LFE89:
 1142              		.size	week4_2_evg, .-week4_2_evg
 1143              		.section	.rodata.str1.4,"aMS",%progbits,1
 1144              		.align	2
 1145              	.LC0:
 1146 0000 50726573 		.ascii	"Press IR send to start and button on PSoC to stop\000"
 1146      73204952 
 1146      2073656E 
 1146      6420746F 
 1146      20737461 
 1147 0032 0000     		.space	2
 1148              	.LC1:
 1149 0034 64697374 		.ascii	"distance = %d\015\012\000"
 1149      616E6365 
 1149      203D2025 
 1149      640D0A00 
 1150              	.LC2:
 1151 0044 6F6E6520 		.ascii	"one loop, %i lines passed by\012\000"
 1151      6C6F6F70 
 1151      2C202569 
 1151      206C696E 
 1151      65732070 
 1152 0062 0000     		.space	2
 1153              	.LC3:
 1154 0064 4E756D62 		.ascii	"Number of lines is %i\012\000"
 1154      6572206F 
 1154      66206C69 
 1154      6E657320 
 1154      69732025 
 1155 007b 00       		.space	1
 1156              	.LC4:
 1157 007c 0A547572 		.ascii	"\012Turn value is %i so I turn left\012\000"
 1157      6E207661 
 1157      6C756520 
 1157      69732025 
 1157      6920736F 
 1158 009e 0000     		.space	2
 1159              	.LC5:
 1160 00a0 0A547572 		.ascii	"\012Turn value is %i so I turn right\012\000"
 1160      6E207661 
 1160      6C756520 
 1160      69732025 
 1160      6920736F 
 1161 00c3 00       		.space	1
 1162              	.LC6:
 1163 00c4 61667465 		.ascii	"after driveforward\000"
 1163      72206472 
 1163      69766566 
 1163      6F727761 
 1163      726400
ARM GAS  C:\Users\EVGENY~1\AppData\Local\Temp\ccUd2T3k.s 			page 30


 1164 00d7 00       		.space	1
 1165              	.LC7:
 1166 00d8 656E6420 		.ascii	"end of loop\000"
 1166      6F66206C 
 1166      6F6F7000 
 1167              		.text
 1168              	.Letext0:
 1169              		.file 2 "c:\\program files (x86)\\cypress\\psoc creator\\4.2\\psoc creator\\import\\gnu\\arm\\5.4.
 1170              		.file 3 "c:\\program files (x86)\\cypress\\psoc creator\\4.2\\psoc creator\\import\\gnu\\arm\\5.4.
 1171              		.file 4 "Generated_Source\\PSoC5/cytypes.h"
 1172              		.file 5 ".\\ZumoLibrary/Reflectance.h"
 1173              		.file 6 ".\\ZumoLibrary/Motor.h"
 1174              		.file 7 ".\\ZumoLibrary/Ultra.h"
 1175              		.file 8 "c:\\program files (x86)\\cypress\\psoc creator\\4.2\\psoc creator\\import\\gnu\\arm\\5.4.
 1176              		.file 9 "..\\FreeRTOS\\Source\\include/task.h"
 1177              		.file 10 "Generated_Source\\PSoC5/SW1.h"
 1178              		.file 11 ".\\ZumoLibrary/IR.h"
 1179              		.file 12 "Generated_Source\\PSoC5/BatteryLed.h"
 1180              		.file 13 "c:\\program files (x86)\\cypress\\psoc creator\\4.2\\psoc creator\\import\\gnu\\arm\\5.4
 1181              		.file 14 "Generated_Source\\PSoC5/core_cm3.h"
 1182              		.file 15 "<built-in>"