ARM GAS  C:\Users\EVGENY~1\AppData\Local\Temp\ccpzgcQX.s 			page 1


   1              		.syntax unified
   2              		.cpu cortex-m3
   3              		.fpu softvfp
   4              		.eabi_attribute 20, 1
   5              		.eabi_attribute 21, 1
   6              		.eabi_attribute 23, 3
   7              		.eabi_attribute 24, 1
   8              		.eabi_attribute 25, 1
   9              		.eabi_attribute 26, 1
  10              		.eabi_attribute 30, 1
  11              		.eabi_attribute 34, 1
  12              		.eabi_attribute 18, 4
  13              		.thumb
  14              		.syntax unified
  15              		.file	"evgenii.c"
  16              		.text
  17              	.Ltext0:
  18              		.cfi_sections	.debug_frame
  19              		.section	.text.week3_2_evg,"ax",%progbits
  20              		.align	2
  21              		.global	week3_2_evg
  22              		.thumb
  23              		.thumb_func
  24              		.type	week3_2_evg, %function
  25              	week3_2_evg:
  26              	.LFB86:
  27              		.file 1 "evgenii.c"
   1:evgenii.c     **** 
   2:evgenii.c     **** /* ========================================Evgenii Meshcheriakov===================================
   3:evgenii.c     **** #include <project.h>
   4:evgenii.c     **** #include <stdio.h>
   5:evgenii.c     **** #include "FreeRTOS.h"
   6:evgenii.c     **** #include "task.h"
   7:evgenii.c     **** #include "Motor.h"
   8:evgenii.c     **** #include "Ultra.h"
   9:evgenii.c     **** #include "Nunchuk.h"
  10:evgenii.c     **** #include "Reflectance.h"
  11:evgenii.c     **** #include "Gyro.h"
  12:evgenii.c     **** #include "Accel_magnet.h"
  13:evgenii.c     **** #include "LSM303D.h"
  14:evgenii.c     **** #include "IR.h"
  15:evgenii.c     **** #include "Beep.h"
  16:evgenii.c     **** #include "mqtt_sender.h"
  17:evgenii.c     **** #include <time.h>
  18:evgenii.c     **** #include <sys/time.h>
  19:evgenii.c     **** #include "serial1.h"
  20:evgenii.c     **** #include <unistd.h>
  21:evgenii.c     **** #include "evgenii.h"
  22:evgenii.c     **** #include <math.h>
  23:evgenii.c     **** 
  24:evgenii.c     **** /*******************************************************weekly assignments*************************
  25:evgenii.c     **** 
  26:evgenii.c     **** 
  27:evgenii.c     **** //week 3 Exercise 1
  28:evgenii.c     **** 
  29:evgenii.c     **** void week3_1_evg(void)
  30:evgenii.c     **** {
ARM GAS  C:\Users\EVGENY~1\AppData\Local\Temp\ccpzgcQX.s 			page 2


  31:evgenii.c     ****     
  32:evgenii.c     ****     motor_start();              // enable motor controller
  33:evgenii.c     ****     motor_forward(0,0);         // set speed to zero to stop motors
  34:evgenii.c     ****     IR_Start();
  35:evgenii.c     ****     IR_wait();
  36:evgenii.c     ****     motor_forward(125,2750);     // moving forward from starting point
  37:evgenii.c     ****     
  38:evgenii.c     ****     turnRight(255, 103);           // 1st turning right 
  39:evgenii.c     ****     motor_forward(125,2350);    // forward on horisontal line
  40:evgenii.c     ****     turnRight(255, 103);           // 2nd turn
  41:evgenii.c     ****     motor_forward(125,2550);
  42:evgenii.c     ****     turnRight(255, 103);           // 2nd turn
  43:evgenii.c     ****   //  tankTurnEvg(164,135,1780);
  44:evgenii.c     ****     motor_forward(125,570);     // moving forward from starting point
  45:evgenii.c     ****     motor_forward(0,0);         // stop motors
  46:evgenii.c     ****     motor_stop();               // disable motor controller
  47:evgenii.c     ****     
  48:evgenii.c     ****     progEndEvg(100);
  49:evgenii.c     **** }
  50:evgenii.c     **** 
  51:evgenii.c     **** //week 3 Exercise 2
  52:evgenii.c     **** 
  53:evgenii.c     **** void week3_2_evg(void) 
  54:evgenii.c     **** {
  28              		.loc 1 54 0
  29              		.cfi_startproc
  30              		@ args = 0, pretend = 0, frame = 0
  31              		@ frame_needed = 0, uses_anonymous_args = 0
  32 0000 10B5     		push	{r4, lr}
  33              		.cfi_def_cfa_offset 8
  34              		.cfi_offset 4, -8
  35              		.cfi_offset 14, -4
  55:evgenii.c     ****     printf("Press IR send to start and button on PSoC to stop");
  36              		.loc 1 55 0
  37 0002 1C48     		ldr	r0, .L5
  38 0004 FFF7FEFF 		bl	printf
  39              	.LVL0:
  56:evgenii.c     ****     Ultra_Start();              // Ultra Sonic Start function
  40              		.loc 1 56 0
  41 0008 FFF7FEFF 		bl	Ultra_Start
  42              	.LVL1:
  57:evgenii.c     ****     motor_start();              // enable motor controller
  43              		.loc 1 57 0
  44 000c FFF7FEFF 		bl	motor_start
  45              	.LVL2:
  58:evgenii.c     ****     motor_forward(0,0);         // set speed to zero to stop motors
  46              		.loc 1 58 0
  47 0010 0021     		movs	r1, #0
  48 0012 0846     		mov	r0, r1
  49 0014 FFF7FEFF 		bl	motor_forward
  50              	.LVL3:
  59:evgenii.c     ****     
  60:evgenii.c     ****     IR_Start();
  51              		.loc 1 60 0
  52 0018 FFF7FEFF 		bl	IR_Start
  53              	.LVL4:
  61:evgenii.c     ****     IR_wait();
ARM GAS  C:\Users\EVGENY~1\AppData\Local\Temp\ccpzgcQX.s 			page 3


  54              		.loc 1 61 0
  55 001c FFF7FEFF 		bl	IR_wait
  56              	.LVL5:
  57              	.L3:
  58              	.LBB2:
  62:evgenii.c     ****     while(true) {
  63:evgenii.c     ****         motor_forward(150, 50);
  59              		.loc 1 63 0
  60 0020 3221     		movs	r1, #50
  61 0022 9620     		movs	r0, #150
  62 0024 FFF7FEFF 		bl	motor_forward
  63              	.LVL6:
  64:evgenii.c     ****         int d = Ultra_GetDistance();
  64              		.loc 1 64 0
  65 0028 FFF7FEFF 		bl	Ultra_GetDistance
  66              	.LVL7:
  67 002c 0446     		mov	r4, r0
  68              	.LVL8:
  65:evgenii.c     ****         // Print the detected distance (centimeters)
  66:evgenii.c     ****         printf("distance = %d\r\n", d);
  69              		.loc 1 66 0
  70 002e 0146     		mov	r1, r0
  71 0030 1148     		ldr	r0, .L5+4
  72              	.LVL9:
  73 0032 FFF7FEFF 		bl	printf
  74              	.LVL10:
  67:evgenii.c     ****         vTaskDelay(100);
  75              		.loc 1 67 0
  76 0036 6420     		movs	r0, #100
  77 0038 FFF7FEFF 		bl	vTaskDelay
  78              	.LVL11:
  68:evgenii.c     ****         if(d < 10){
  79              		.loc 1 68 0
  80 003c 092C     		cmp	r4, #9
  81 003e 0DDC     		bgt	.L2
  69:evgenii.c     ****             motor_forward(0,10);         
  82              		.loc 1 69 0
  83 0040 0A21     		movs	r1, #10
  84 0042 0020     		movs	r0, #0
  85 0044 FFF7FEFF 		bl	motor_forward
  86              	.LVL12:
  70:evgenii.c     ****             motor_backward(100, 150);
  87              		.loc 1 70 0
  88 0048 9621     		movs	r1, #150
  89 004a 6420     		movs	r0, #100
  90 004c FFF7FEFF 		bl	motor_backward
  91              	.LVL13:
  71:evgenii.c     ****             motor_turn(0, 150, 462);
  92              		.loc 1 71 0
  93 0050 4FF4E772 		mov	r2, #462
  94 0054 9621     		movs	r1, #150
  95 0056 0020     		movs	r0, #0
  96 0058 FFF7FEFF 		bl	motor_turn
  97              	.LVL14:
  98              	.L2:
  72:evgenii.c     ****         }
  73:evgenii.c     ****         if(!SW1_Read()){
ARM GAS  C:\Users\EVGENY~1\AppData\Local\Temp\ccpzgcQX.s 			page 4


  99              		.loc 1 73 0
 100 005c FFF7FEFF 		bl	SW1_Read
 101              	.LVL15:
 102 0060 0028     		cmp	r0, #0
 103 0062 DDD1     		bne	.L3
 104              	.LBE2:
  74:evgenii.c     ****              break;
  75:evgenii.c     ****         }
  76:evgenii.c     ****     }
  77:evgenii.c     ****     motor_forward(0,0);         
 105              		.loc 1 77 0
 106 0064 0021     		movs	r1, #0
 107 0066 0846     		mov	r0, r1
 108 0068 FFF7FEFF 		bl	motor_forward
 109              	.LVL16:
  78:evgenii.c     ****     motor_stop();
 110              		.loc 1 78 0
 111 006c FFF7FEFF 		bl	motor_stop
 112              	.LVL17:
 113 0070 10BD     		pop	{r4, pc}
 114              	.LVL18:
 115              	.L6:
 116 0072 00BF     		.align	2
 117              	.L5:
 118 0074 00000000 		.word	.LC0
 119 0078 34000000 		.word	.LC1
 120              		.cfi_endproc
 121              	.LFE86:
 122              		.size	week3_2_evg, .-week3_2_evg
 123              		.section	.text.week5_1_evg,"ax",%progbits
 124              		.align	2
 125              		.global	week5_1_evg
 126              		.thumb
 127              		.thumb_func
 128              		.type	week5_1_evg, %function
 129              	week5_1_evg:
 130              	.LFB91:
  79:evgenii.c     **** 
  80:evgenii.c     **** }
  81:evgenii.c     **** 
  82:evgenii.c     **** //week 3 Exercise 3
  83:evgenii.c     **** 
  84:evgenii.c     **** void week3_3_evg(void) 
  85:evgenii.c     **** {
  86:evgenii.c     ****     printf("Press IR send to start and button on PSoC to stop");
  87:evgenii.c     ****     Ultra_Start();              // Ultra Sonic Start function
  88:evgenii.c     ****     motor_start();              // enable motor controller
  89:evgenii.c     ****     motor_forward(0,0);         // set speed to zero to stop motors
  90:evgenii.c     ****     IR_Start();
  91:evgenii.c     ****     IR_wait();
  92:evgenii.c     ****     while(true) {
  93:evgenii.c     ****         motor_forward(125, 50);
  94:evgenii.c     ****         int d = Ultra_GetDistance();
  95:evgenii.c     ****         // Print the detected distance (centimeters)
  96:evgenii.c     ****       //  printf("distance = %d\r\n", d);
  97:evgenii.c     ****         vTaskDelay(200);
  98:evgenii.c     ****        int turn = randomEvg(103, 309);
ARM GAS  C:\Users\EVGENY~1\AppData\Local\Temp\ccpzgcQX.s 			page 5


  99:evgenii.c     ****         if(d < 11){
 100:evgenii.c     ****             motor_forward(0,10);         
 101:evgenii.c     ****             motor_backward(100, 150);
 102:evgenii.c     ****             if (turn % 2 == 1) {
 103:evgenii.c     ****                turnLeft(255, turn);
 104:evgenii.c     ****                printf("\nTurn value is %i so I turn left\n", turn);
 105:evgenii.c     ****             } else {
 106:evgenii.c     ****                turnRight(255, turn);
 107:evgenii.c     ****                printf("\nTurn value is %i so I turn right\n", turn);
 108:evgenii.c     ****             }
 109:evgenii.c     ****         }
 110:evgenii.c     ****         if(!SW1_Read()){
 111:evgenii.c     ****              break;
 112:evgenii.c     ****         }
 113:evgenii.c     ****     }
 114:evgenii.c     ****     motor_forward(0,0);         
 115:evgenii.c     ****     motor_stop();
 116:evgenii.c     **** 
 117:evgenii.c     **** }
 118:evgenii.c     **** 
 119:evgenii.c     **** //week 4 Exercise 1
 120:evgenii.c     **** 
 121:evgenii.c     **** void week4_1_evg(void) 
 122:evgenii.c     **** {
 123:evgenii.c     ****     int count = 0;
 124:evgenii.c     ****     struct sensors_ dig;
 125:evgenii.c     ****     
 126:evgenii.c     ****     startUp(1,0,1,1,0);
 127:evgenii.c     ****     
 128:evgenii.c     ****     reflectance_digital(&dig);
 129:evgenii.c     ****     while(count<5) 
 130:evgenii.c     ****     {
 131:evgenii.c     ****         driveForward(100,0);
 132:evgenii.c     ****         count++;
 133:evgenii.c     ****       if(count == 1)
 134:evgenii.c     ****         {
 135:evgenii.c     ****          motor_forward(0,0);
 136:evgenii.c     ****          startUp(0,1,0,0,0);
 137:evgenii.c     ****         }
 138:evgenii.c     ****     }
 139:evgenii.c     ****     printf("Number of lines is %i\n", count);
 140:evgenii.c     ****     end();
 141:evgenii.c     **** }
 142:evgenii.c     **** 
 143:evgenii.c     **** 
 144:evgenii.c     **** //week 4 Exercise 2
 145:evgenii.c     **** 
 146:evgenii.c     **** void week4_2_evg(void) 
 147:evgenii.c     **** {
 148:evgenii.c     ****     struct sensors_ dig;
 149:evgenii.c     ****     startUp(1,1,1, 1, 0);
 150:evgenii.c     ****     
 151:evgenii.c     ****     reflectance_digital(&dig); 
 152:evgenii.c     ****     driveForward(100,0);
 153:evgenii.c     ****     
 154:evgenii.c     ****         reflectance_digital(&dig); 
 155:evgenii.c     ****         while(!(dig.L3 == 0 && dig.L2 == 0 && dig.R2 == 0 && dig.R3 == 0))
ARM GAS  C:\Users\EVGENY~1\AppData\Local\Temp\ccpzgcQX.s 			page 6


 156:evgenii.c     ****         {
 157:evgenii.c     ****              reflectance_digital(&dig);
 158:evgenii.c     ****              motor_forward(125,0);
 159:evgenii.c     ****         }
 160:evgenii.c     ****         reflectance_digital(&dig); 
 161:evgenii.c     ****         while(dig.L3 == 0 && dig.R3 == 0)
 162:evgenii.c     ****         {
 163:evgenii.c     ****             motor_forward(50,0);
 164:evgenii.c     ****             reflectance_digital(&dig); 
 165:evgenii.c     ****             
 166:evgenii.c     ****             if(dig.R2 == 1)
 167:evgenii.c     ****             {   
 168:evgenii.c     ****              motor_turn(150,0,0);
 169:evgenii.c     ****                 reflectance_digital(&dig); 
 170:evgenii.c     ****             }else if(dig.L2 == 1)
 171:evgenii.c     ****              {   
 172:evgenii.c     ****              motor_turn(0,200,0);
 173:evgenii.c     ****                 reflectance_digital(&dig); 
 174:evgenii.c     ****              }
 175:evgenii.c     ****         }
 176:evgenii.c     ****     end();
 177:evgenii.c     **** }
 178:evgenii.c     **** //week 4 Exercise 3
 179:evgenii.c     **** 
 180:evgenii.c     **** void week4_3_evg(void) 
 181:evgenii.c     **** {
 182:evgenii.c     ****     uint32_t count = 0;
 183:evgenii.c     ****     struct sensors_ dig;
 184:evgenii.c     ****     
 185:evgenii.c     ****     startUp(1, 0, 1, 1, 0);
 186:evgenii.c     **** 
 187:evgenii.c     ****     reflectance_digital(&dig);
 188:evgenii.c     ****     while(count<5) 
 189:evgenii.c     ****     {
 190:evgenii.c     ****         driveForward(100,0);
 191:evgenii.c     ****         count++;
 192:evgenii.c     ****         printf("one loop, %lu lines passed by\n", count);
 193:evgenii.c     ****         reflectance_digital(&dig);
 194:evgenii.c     ****         // wait on first line
 195:evgenii.c     ****         if(count == 1)
 196:evgenii.c     ****         {
 197:evgenii.c     ****             motor_forward(0,0);
 198:evgenii.c     ****             startUp(0,1,0,0, 0);
 199:evgenii.c     ****         } else if(count == 2) 
 200:evgenii.c     ****           {
 201:evgenii.c     ****               //turn left on second line  
 202:evgenii.c     ****               while(!(dig.L3 == 0 && dig.L2 == 0 && dig.L1 == 1 && dig.R1 == 1 && dig.R2 == 0 && di
 203:evgenii.c     ****               {
 204:evgenii.c     ****                     motor_turn(4,250,50);
 205:evgenii.c     ****                     reflectance_digital(&dig);
 206:evgenii.c     ****               }
 207:evgenii.c     ****         } else if(count == 3) 
 208:evgenii.c     ****           {
 209:evgenii.c     ****             //turn right on third line
 210:evgenii.c     ****             while(!(dig.L3 == 0 && dig.L2 == 0 && dig.L1 == 1 && dig.R1 == 1 && dig.R2 == 0 && dig.
 211:evgenii.c     ****             {
 212:evgenii.c     ****                 motor_turn(230,10,70);
ARM GAS  C:\Users\EVGENY~1\AppData\Local\Temp\ccpzgcQX.s 			page 7


 213:evgenii.c     ****                 reflectance_digital(&dig);
 214:evgenii.c     ****             }
 215:evgenii.c     ****         } else if(count == 4) 
 216:evgenii.c     ****           {
 217:evgenii.c     ****             //turn right on fourth line
 218:evgenii.c     ****             while(!(dig.L3 == 0 && dig.L2 == 0 && dig.L1 == 1 && dig.R1 == 1 && dig.R2 == 0 && dig.
 219:evgenii.c     ****             {
 220:evgenii.c     ****                 motor_turn(230,10,50);
 221:evgenii.c     ****                 reflectance_digital(&dig);
 222:evgenii.c     ****             }
 223:evgenii.c     ****           } 
 224:evgenii.c     ****     }
 225:evgenii.c     ****     end();
 226:evgenii.c     **** }
 227:evgenii.c     **** 
 228:evgenii.c     **** //week 5 Exercise 1
 229:evgenii.c     **** 
 230:evgenii.c     **** void week5_1_evg(void) 
 231:evgenii.c     **** {
 131              		.loc 1 231 0
 132              		.cfi_startproc
 133              		@ args = 0, pretend = 0, frame = 0
 134              		@ frame_needed = 0, uses_anonymous_args = 0
 135 0000 30B5     		push	{r4, r5, lr}
 136              		.cfi_def_cfa_offset 12
 137              		.cfi_offset 4, -12
 138              		.cfi_offset 5, -8
 139              		.cfi_offset 14, -4
 140 0002 83B0     		sub	sp, sp, #12
 141              		.cfi_def_cfa_offset 24
 142              	.LVL19:
 232:evgenii.c     ****     uint32_t firstBtnPress = 0, lastBtnPress = 0, diff = 0;
 233:evgenii.c     ****     
 234:evgenii.c     ****     printf("\n\n clearing the buffer\n\n");
 143              		.loc 1 234 0
 144 0004 1F48     		ldr	r0, .L14
 145 0006 FFF7FEFF 		bl	puts
 146              	.LVL20:
 235:evgenii.c     ****     printf("Press a button\n");
 147              		.loc 1 235 0
 148 000a 1F48     		ldr	r0, .L14+4
 149 000c FFF7FEFF 		bl	puts
 150              	.LVL21:
 151              	.L12:
 236:evgenii.c     ****     
 237:evgenii.c     ****     while(true)
 238:evgenii.c     ****     {
 239:evgenii.c     ****         lastBtnPress = xTaskGetTickCount();
 152              		.loc 1 239 0
 153 0010 FFF7FEFF 		bl	xTaskGetTickCount
 154              	.LVL22:
 155 0014 0446     		mov	r4, r0
 156              	.LVL23:
 240:evgenii.c     ****         while(SW1_Read() == RELEASED) vTaskDelay(1); // waiting in the loop until user presses butt
 157              		.loc 1 240 0
 158 0016 02E0     		b	.L8
 159              	.LVL24:
ARM GAS  C:\Users\EVGENY~1\AppData\Local\Temp\ccpzgcQX.s 			page 8


 160              	.L9:
 161              		.loc 1 240 0 is_stmt 0 discriminator 2
 162 0018 0120     		movs	r0, #1
 163 001a FFF7FEFF 		bl	vTaskDelay
 164              	.LVL25:
 165              	.L8:
 166              		.loc 1 240 0 discriminator 1
 167 001e FFF7FEFF 		bl	SW1_Read
 168              	.LVL26:
 169 0022 0128     		cmp	r0, #1
 170 0024 F8D0     		beq	.L9
 241:evgenii.c     ****         firstBtnPress = xTaskGetTickCount();
 171              		.loc 1 241 0 is_stmt 1
 172 0026 FFF7FEFF 		bl	xTaskGetTickCount
 173              	.LVL27:
 242:evgenii.c     ****         diff = firstBtnPress-lastBtnPress;
 174              		.loc 1 242 0
 175 002a 041B     		subs	r4, r0, r4
 176              	.LVL28:
 243:evgenii.c     ****         
 244:evgenii.c     ****         while(SW1_Read() == PRESSED) vTaskDelay(1); // waiting in the loop while user pressing the 
 177              		.loc 1 244 0
 178 002c 02E0     		b	.L10
 179              	.LVL29:
 180              	.L11:
 181              		.loc 1 244 0 is_stmt 0 discriminator 2
 182 002e 0120     		movs	r0, #1
 183 0030 FFF7FEFF 		bl	vTaskDelay
 184              	.LVL30:
 185              	.L10:
 186              		.loc 1 244 0 discriminator 1
 187 0034 FFF7FEFF 		bl	SW1_Read
 188              	.LVL31:
 189 0038 0028     		cmp	r0, #0
 190 003a F8D0     		beq	.L11
 245:evgenii.c     ****         print_mqtt(BUTTON_TOPIC, "/ Milliseconds since boot or the last button press is %d, or: %02
 246:evgenii.c     ****                     diff, diff/1000/60%60, diff/1000%60, diff%1000);
 191              		.loc 1 246 0 is_stmt 1
 192 003c 134B     		ldr	r3, .L14+8
 193 003e A3FB0423 		umull	r2, r3, r3, r4
 194 0042 9B0B     		lsrs	r3, r3, #14
 195 0044 1249     		ldr	r1, .L14+12
 196 0046 A1FB0421 		umull	r2, r1, r1, r4
 197 004a 8909     		lsrs	r1, r1, #6
 245:evgenii.c     ****         print_mqtt(BUTTON_TOPIC, "/ Milliseconds since boot or the last button press is %d, or: %02
 198              		.loc 1 245 0
 199 004c 114A     		ldr	r2, .L14+16
 200 004e A2FB0350 		umull	r5, r0, r2, r3
 201 0052 4009     		lsrs	r0, r0, #5
 202 0054 C0EB0010 		rsb	r0, r0, r0, lsl #4
 203 0058 8500     		lsls	r5, r0, #2
 204 005a 4FF47A70 		mov	r0, #1000
 205 005e 00FB1140 		mls	r0, r0, r1, r4
 206 0062 0190     		str	r0, [sp, #4]
 207 0064 A2FB0102 		umull	r0, r2, r2, r1
 208 0068 5209     		lsrs	r2, r2, #5
 209 006a C2EB0212 		rsb	r2, r2, r2, lsl #4
ARM GAS  C:\Users\EVGENY~1\AppData\Local\Temp\ccpzgcQX.s 			page 9


 210 006e 9000     		lsls	r0, r2, #2
 211 0070 091A     		subs	r1, r1, r0
 212 0072 0091     		str	r1, [sp]
 213 0074 5B1B     		subs	r3, r3, r5
 214 0076 2246     		mov	r2, r4
 215 0078 0749     		ldr	r1, .L14+20
 216 007a 0848     		ldr	r0, .L14+24
 217 007c FFF7FEFF 		bl	print_mqtt
 218              	.LVL32:
 247:evgenii.c     ****         lastBtnPress = firstBtnPress;
 248:evgenii.c     ****     }
 219              		.loc 1 248 0
 220 0080 C6E7     		b	.L12
 221              	.L15:
 222 0082 00BF     		.align	2
 223              	.L14:
 224 0084 44000000 		.word	.LC2
 225 0088 5C000000 		.word	.LC3
 226 008c 73B2E745 		.word	1172812403
 227 0090 D34D6210 		.word	274877907
 228 0094 89888888 		.word	-2004318071
 229 0098 6C000000 		.word	.LC4
 230 009c BC000000 		.word	.LC5
 231              		.cfi_endproc
 232              	.LFE91:
 233              		.size	week5_1_evg, .-week5_1_evg
 234              		.section	.text.noRestrict,"ax",%progbits
 235              		.align	2
 236              		.global	noRestrict
 237              		.thumb
 238              		.thumb_func
 239              		.type	noRestrict, %function
 240              	noRestrict:
 241              	.LFB99:
 249:evgenii.c     **** }
 250:evgenii.c     **** 
 251:evgenii.c     **** //week 5 Exercise 2
 252:evgenii.c     **** 
 253:evgenii.c     **** void week5_2_evg(void) 
 254:evgenii.c     **** {
 255:evgenii.c     ****     startUp(1,1,0,0,1);
 256:evgenii.c     ****     while(SW1_Read() == RELEASED)
 257:evgenii.c     ****     {
 258:evgenii.c     ****       motor_forward(150, 80);
 259:evgenii.c     ****         if(Ultra_GetDistance() < 10){
 260:evgenii.c     ****             motor_forward(0,0);         
 261:evgenii.c     ****             motor_backward(150, 150);
 262:evgenii.c     ****             
 263:evgenii.c     ****             if (rand()%2 == 1) {
 264:evgenii.c     ****                tankTurnEvg(90);
 265:evgenii.c     ****                motor_forward(0,0);
 266:evgenii.c     ****                print_mqtt(TURN_TOPIC, "/ Turn direction - right");
 267:evgenii.c     ****             } else {
 268:evgenii.c     ****                tankTurnEvg(-90);
 269:evgenii.c     ****                motor_forward(0,0);
 270:evgenii.c     ****                print_mqtt(TURN_TOPIC, "/ Turn direction - left");
 271:evgenii.c     ****             } 
ARM GAS  C:\Users\EVGENY~1\AppData\Local\Temp\ccpzgcQX.s 			page 10


 272:evgenii.c     ****             
 273:evgenii.c     ****         }
 274:evgenii.c     ****     }
 275:evgenii.c     ****     end();
 276:evgenii.c     **** }
 277:evgenii.c     **** 
 278:evgenii.c     **** 
 279:evgenii.c     **** //week 5 Exercise 3
 280:evgenii.c     **** 
 281:evgenii.c     **** void week5_3_evg(void) 
 282:evgenii.c     **** {
 283:evgenii.c     ****     int lines=0;
 284:evgenii.c     ****     uint32_t irPressed = 0, lineReached = 0, elapsed = 0;
 285:evgenii.c     ****     
 286:evgenii.c     ****     startUp(1,1,1,0,0);
 287:evgenii.c     ****     
 288:evgenii.c     ****     driveForward(100,0);
 289:evgenii.c     ****     IR_wait();
 290:evgenii.c     ****     irPressed = xTaskGetTickCount();
 291:evgenii.c     ****     
 292:evgenii.c     ****     
 293:evgenii.c     ****     while(lines<1){
 294:evgenii.c     ****     driveForward(150,0);
 295:evgenii.c     ****     lines++;
 296:evgenii.c     ****     }
 297:evgenii.c     ****     
 298:evgenii.c     ****     lineReached = xTaskGetTickCount();
 299:evgenii.c     ****     elapsed = lineReached-irPressed;
 300:evgenii.c     ****     print_mqtt(LAP_TOPIC, "time elapsed: %ims", elapsed);
 301:evgenii.c     ****     
 302:evgenii.c     ****     end();
 303:evgenii.c     **** }
 304:evgenii.c     **** 
 305:evgenii.c     **** 
 306:evgenii.c     **** //********************************Project***************************************//
 307:evgenii.c     ****                                 // Sumo
 308:evgenii.c     **** 
 309:evgenii.c     **** void sumo_wrestling(void) 
 310:evgenii.c     **** {
 311:evgenii.c     ****     struct sensors_ dig;
 312:evgenii.c     ****     int32_t startTime = 0, stopTime = 0, obst = 0;
 313:evgenii.c     ****     
 314:evgenii.c     ****     startUp(1,1,1,0,1);
 315:evgenii.c     ****     
 316:evgenii.c     ****     IR_wait();
 317:evgenii.c     ****     reflectance_digital(&dig); 
 318:evgenii.c     ****     driveForward(255,0);
 319:evgenii.c     ****     print_mqtt(READY_TOPIC, "zumo");
 320:evgenii.c     ****     IR_flush();
 321:evgenii.c     ****     IR_wait();
 322:evgenii.c     ****     motor_forward(100,100);
 323:evgenii.c     ****     startTime = xTaskGetTickCount();
 324:evgenii.c     ****     print_mqtt(START_TOPIC, " %lu", startTime);
 325:evgenii.c     ****     while(SW1_Read() == RELEASED)
 326:evgenii.c     ****     {
 327:evgenii.c     ****         int angle = randomEvg(45, 180);
 328:evgenii.c     ****         if (Ultra_GetDistance()<3)
ARM GAS  C:\Users\EVGENY~1\AppData\Local\Temp\ccpzgcQX.s 			page 11


 329:evgenii.c     ****         {
 330:evgenii.c     ****             obst = xTaskGetTickCount();
 331:evgenii.c     ****             print_mqtt(OBST_TOPIC, " %lu", obst);
 332:evgenii.c     ****             motor_forward(0,0);
 333:evgenii.c     ****             tankTurnEvg(angle%2 == 1 ? -angle : angle);
 334:evgenii.c     ****         } 
 335:evgenii.c     ****         reflectance_digital(&dig);
 336:evgenii.c     ****         while (sense(dig) > 0)
 337:evgenii.c     ****         {   
 338:evgenii.c     ****             motor_forward(0,0);
 339:evgenii.c     ****             tankTurnEvg(angle%2 == 1 ? -angle : angle);
 340:evgenii.c     ****             reflectance_digital(&dig); 
 341:evgenii.c     ****         }
 342:evgenii.c     ****         motor_forward(250,0);
 343:evgenii.c     ****     }
 344:evgenii.c     ****     stopTime = xTaskGetTickCount();
 345:evgenii.c     ****     end_mqtt(startTime, stopTime);
 346:evgenii.c     **** }
 347:evgenii.c     **** 
 348:evgenii.c     **** // set value of variable bonus in driveForward to 1 
 349:evgenii.c     **** void line_follower(void) {
 350:evgenii.c     ****    int lines=0;
 351:evgenii.c     ****    struct sensors_ dig;
 352:evgenii.c     ****    uint32_t startTime = 0, stopTime = 0;
 353:evgenii.c     ****     
 354:evgenii.c     ****    startUp(1,1,1,0,0);
 355:evgenii.c     ****    
 356:evgenii.c     ****    print_mqtt(READY_TOPIC, "zumo"); 
 357:evgenii.c     ****    IR_wait();  
 358:evgenii.c     ****     while(lines<3)
 359:evgenii.c     ****     {
 360:evgenii.c     ****         reflectance_digital(&dig);
 361:evgenii.c     ****         driveForward(100,0);
 362:evgenii.c     ****         lines++;
 363:evgenii.c     ****         if (lines == 1)
 364:evgenii.c     ****         {
 365:evgenii.c     ****             motor_forward(0,0);
 366:evgenii.c     ****             print_mqtt(READY_TOPIC, "line");
 367:evgenii.c     ****             IR_flush();
 368:evgenii.c     ****             IR_wait(); 
 369:evgenii.c     ****             startTime = xTaskGetTickCount();
 370:evgenii.c     ****             print_mqtt(START_TOPIC, " %i", startTime);
 371:evgenii.c     ****         }
 372:evgenii.c     ****         
 373:evgenii.c     ****     }
 374:evgenii.c     ****     stopTime = xTaskGetTickCount();
 375:evgenii.c     ****     end_mqtt(startTime, stopTime);
 376:evgenii.c     **** }
 377:evgenii.c     **** 
 378:evgenii.c     **** void maze(void) {
 379:evgenii.c     ****     struct sensors_ dig;
 380:evgenii.c     ****     
 381:evgenii.c     ****     uint32_t startTime = 0, stopTime = 0;
 382:evgenii.c     ****     int maxX = 3;
 383:evgenii.c     ****     int maxY = 11;
 384:evgenii.c     ****     int Y = -1;
 385:evgenii.c     ****     int X = 0;
ARM GAS  C:\Users\EVGENY~1\AppData\Local\Temp\ccpzgcQX.s 			page 12


 386:evgenii.c     ****     int left = -90;
 387:evgenii.c     ****     int right = 90;
 388:evgenii.c     ****     bool dirUp = true, dirLeft=false, dirRight=false;
 389:evgenii.c     ****     
 390:evgenii.c     ****     startUp(1,1,1,0,1);
 391:evgenii.c     ****     
 392:evgenii.c     ****     IR_wait();              // temp - delete and turn on button in startUp
 393:evgenii.c     ****     driveForward(200,0);
 394:evgenii.c     ****     print_mqtt(READY_TOPIC, "maze");
 395:evgenii.c     ****     IR_wait();  
 396:evgenii.c     ****     startTime = xTaskGetTickCount();
 397:evgenii.c     ****     print_mqtt(START_TOPIC, " %lu", startTime);
 398:evgenii.c     ****     
 399:evgenii.c     ****     reflectance_digital(&dig);
 400:evgenii.c     ****     while(Y < 11)
 401:evgenii.c     ****     {
 402:evgenii.c     ****         while(dirUp && noRestrict(&Y))
 403:evgenii.c     ****         {
 404:evgenii.c     ****             reflectance_digital(&dig);
 405:evgenii.c     ****             driveThruMaze(SPEED,0);
 406:evgenii.c     ****             Y++;
 407:evgenii.c     ****             print_mqtt(POSI_TOPIC, "%i %i", X, Y);
 408:evgenii.c     ****             vTaskDelay(100);
 409:evgenii.c     ****         }
 410:evgenii.c     ****         if(dirUp && Ultra_GetDistance() < 13 && X != - maxX)
 411:evgenii.c     ****         {
 412:evgenii.c     ****             dirLeft = true;
 413:evgenii.c     ****             dirUp = false;
 414:evgenii.c     ****             motor_forward(200,110);
 415:evgenii.c     ****             tankTurnEvg(left);
 416:evgenii.c     ****             motor_forward(0,0);
 417:evgenii.c     ****             vTaskDelay(100);
 418:evgenii.c     ****         } 
 419:evgenii.c     ****         if(dirUp && Ultra_GetDistance() < 13 && X == - maxX)
 420:evgenii.c     ****         {
 421:evgenii.c     ****             dirRight = true;
 422:evgenii.c     ****             dirUp = false;
 423:evgenii.c     ****             motor_forward(200,110);
 424:evgenii.c     ****             tankTurnEvg(right);
 425:evgenii.c     ****             motor_forward(0,0);
 426:evgenii.c     ****             vTaskDelay(100);
 427:evgenii.c     ****         }
 428:evgenii.c     ****         if(dirLeft && noRestrict(&Y) && X != - maxX)
 429:evgenii.c     ****         {   
 430:evgenii.c     ****             dirLeft = false;
 431:evgenii.c     ****             dirUp = true;
 432:evgenii.c     ****             reflectance_digital(&dig);
 433:evgenii.c     ****             driveThruMaze(SPEED,0);
 434:evgenii.c     ****             X--;
 435:evgenii.c     ****             print_mqtt(POSI_TOPIC, "%i %i", X, Y);
 436:evgenii.c     ****             motor_forward(200,110);
 437:evgenii.c     ****             tankTurnEvg(right);
 438:evgenii.c     ****             motor_forward(0,0);
 439:evgenii.c     ****             vTaskDelay(100);
 440:evgenii.c     ****             if(Ultra_GetDistance() < 13 && X != - maxX)
 441:evgenii.c     ****             {
 442:evgenii.c     ****                 dirLeft = true;
ARM GAS  C:\Users\EVGENY~1\AppData\Local\Temp\ccpzgcQX.s 			page 13


 443:evgenii.c     ****                 dirUp = false;
 444:evgenii.c     ****                 
 445:evgenii.c     ****                 tankTurnEvg(left);
 446:evgenii.c     ****                 motor_forward(0,0);
 447:evgenii.c     ****                 vTaskDelay(100);
 448:evgenii.c     ****             }
 449:evgenii.c     ****             if(Ultra_GetDistance() < 13 && X == - maxX)
 450:evgenii.c     ****             {
 451:evgenii.c     ****                 dirLeft = false;
 452:evgenii.c     ****                 dirRight = true;
 453:evgenii.c     ****                 
 454:evgenii.c     ****                 tankTurnEvg(right);
 455:evgenii.c     ****                 motor_forward(0,0);
 456:evgenii.c     ****                 vTaskDelay(100);
 457:evgenii.c     ****             }
 458:evgenii.c     ****         }
 459:evgenii.c     ****         if(dirLeft && Ultra_GetDistance() < 13)
 460:evgenii.c     ****         {
 461:evgenii.c     ****             
 462:evgenii.c     ****             dirLeft = false;
 463:evgenii.c     ****             dirRight = true; 
 464:evgenii.c     ****             tankTurnEvg(180);
 465:evgenii.c     ****             motor_forward(0,0);
 466:evgenii.c     ****             vTaskDelay(100);
 467:evgenii.c     ****         }
 468:evgenii.c     ****         if(dirRight && noRestrict(&Y) && X<3)
 469:evgenii.c     ****         {
 470:evgenii.c     ****             dirRight = false;
 471:evgenii.c     ****             dirUp = true;
 472:evgenii.c     ****             driveThruMaze(SPEED,0);
 473:evgenii.c     ****             X++;
 474:evgenii.c     ****             print_mqtt(POSI_TOPIC, "%i %i", X, Y);
 475:evgenii.c     ****             motor_forward(200,110);
 476:evgenii.c     ****             tankTurnEvg(left);
 477:evgenii.c     ****             motor_forward(0,0);
 478:evgenii.c     ****             vTaskDelay(100);
 479:evgenii.c     ****             if(Ultra_GetDistance() < 13)
 480:evgenii.c     ****             {
 481:evgenii.c     ****                 dirRight = true;
 482:evgenii.c     ****                 dirUp = false;
 483:evgenii.c     ****                 
 484:evgenii.c     ****                 tankTurnEvg(right);
 485:evgenii.c     ****                 motor_forward(0,0);
 486:evgenii.c     ****                 vTaskDelay(100);
 487:evgenii.c     ****             }
 488:evgenii.c     ****         }
 489:evgenii.c     ****     } 
 490:evgenii.c     ****     if(Y == maxY)
 491:evgenii.c     ****     {
 492:evgenii.c     ****         if(X<0)
 493:evgenii.c     ****         {
 494:evgenii.c     ****             motor_forward(200,110);
 495:evgenii.c     ****             tankTurnEvg(right);
 496:evgenii.c     ****             while(X!=0)
 497:evgenii.c     ****             {
 498:evgenii.c     ****                 driveForward(SPEED, 0);
 499:evgenii.c     ****                 X++;
ARM GAS  C:\Users\EVGENY~1\AppData\Local\Temp\ccpzgcQX.s 			page 14


 500:evgenii.c     ****                 print_mqtt(POSI_TOPIC, "%i %i", X, Y);
 501:evgenii.c     ****                 vTaskDelay(100);
 502:evgenii.c     ****             }
 503:evgenii.c     ****             motor_forward(200,110);
 504:evgenii.c     ****             tankTurnEvg(left);
 505:evgenii.c     ****         }
 506:evgenii.c     ****         else if (X>0)
 507:evgenii.c     ****         {
 508:evgenii.c     ****             motor_forward(200,110);
 509:evgenii.c     ****             tankTurnEvg(left);
 510:evgenii.c     ****             while(X!=0)
 511:evgenii.c     ****             {
 512:evgenii.c     ****                 driveThruMaze(SPEED, 0);
 513:evgenii.c     ****                 X--;
 514:evgenii.c     ****                 print_mqtt(POSI_TOPIC, "%i %i", X, Y);
 515:evgenii.c     ****                 vTaskDelay(100);
 516:evgenii.c     ****             }
 517:evgenii.c     ****             motor_forward(200,110);
 518:evgenii.c     ****             tankTurnEvg(right);
 519:evgenii.c     ****         }
 520:evgenii.c     ****         while(Y < 13)
 521:evgenii.c     ****         {
 522:evgenii.c     ****             driveThruMaze(SPEED, 0);
 523:evgenii.c     ****             Y++;
 524:evgenii.c     ****             print_mqtt(POSI_TOPIC, "%i %i", X, Y);
 525:evgenii.c     ****         }
 526:evgenii.c     ****         motor_forward(0,0);
 527:evgenii.c     ****         motor_forward(100,700);
 528:evgenii.c     ****         print_mqtt(STOP_TOPIC, "END");
 529:evgenii.c     ****     }
 530:evgenii.c     ****     stopTime = xTaskGetTickCount();
 531:evgenii.c     ****     end_mqtt(startTime, stopTime);
 532:evgenii.c     **** }
 533:evgenii.c     **** 
 534:evgenii.c     **** 
 535:evgenii.c     **** 
 536:evgenii.c     **** 
 537:evgenii.c     **** void driveForward(uint8 speed, uint32 delay){
 538:evgenii.c     ****     
 539:evgenii.c     ****     // declarations
 540:evgenii.c     ****     struct sensors_ dig;
 541:evgenii.c     ****     reflectance_digital(&dig);
 542:evgenii.c     ****     bool miss = true, bonus = 0;
 543:evgenii.c     ****     
 544:evgenii.c     ****     //drives forward when all sensors are on the line
 545:evgenii.c     ****      while(sense(dig)==63)
 546:evgenii.c     ****     {
 547:evgenii.c     ****         motor_forward(speed,delay);
 548:evgenii.c     ****         reflectance_digital(&dig); 
 549:evgenii.c     ****       //  printf("sense is %i\n", sense(dig));
 550:evgenii.c     ****     }
 551:evgenii.c     ****     //condition when only central sensors are on the line
 552:evgenii.c     ****     //while(sense(dig)!=63 && sense(dig)!=60 && sense(dig)!= 15)
 553:evgenii.c     ****     while(sense(dig)!=63 && sense(dig)!=60 && sense(dig)!= 15)
 554:evgenii.c     ****     {
 555:evgenii.c     ****       //  printf("sense is %i\n", sense(dig));
 556:evgenii.c     ****         //if loosing line from left side of the bot - turn right
ARM GAS  C:\Users\EVGENY~1\AppData\Local\Temp\ccpzgcQX.s 			page 15


 557:evgenii.c     ****         if(dig.L1 == 0 && dig.R1 == 1)
 558:evgenii.c     ****         {
 559:evgenii.c     ****             turnRight(speed,delay);
 560:evgenii.c     ****             reflectance_digital(&dig); 
 561:evgenii.c     ****         } 
 562:evgenii.c     ****         else if (dig.L1 == 1 && dig.R1 == 0)
 563:evgenii.c     ****         {
 564:evgenii.c     ****             turnLeft(speed,delay);
 565:evgenii.c     ****             reflectance_digital(&dig); 
 566:evgenii.c     ****         }
 567:evgenii.c     ****         
 568:evgenii.c     ****         /* followed two if elses are made for bonus of line follower task, 
 569:evgenii.c     ****            variable bonus set to 1 if task follow the line  */
 570:evgenii.c     ****         else if (bonus && miss && dig.R1 == 0 && dig.L1 == 0)
 571:evgenii.c     ****         {
 572:evgenii.c     ****             print_mqtt(MISS_TOPIC, " %i", xTaskGetTickCount());   
 573:evgenii.c     ****             miss = false;
 574:evgenii.c     ****         }
 575:evgenii.c     ****         else if (bonus && !miss && dig.R1 == 1 && dig.L1 == 1)
 576:evgenii.c     ****         {
 577:evgenii.c     ****             print_mqtt(LINE_TOPIC, " %i", xTaskGetTickCount());
 578:evgenii.c     ****             miss = true;
 579:evgenii.c     ****         }
 580:evgenii.c     ****         motor_forward(speed,delay);
 581:evgenii.c     ****         reflectance_digital(&dig); 
 582:evgenii.c     ****         
 583:evgenii.c     ****     }
 584:evgenii.c     ****     motor_forward(0,0);
 585:evgenii.c     **** }
 586:evgenii.c     **** 
 587:evgenii.c     **** void driveThruMaze(uint8 speed, uint32 delay){
 588:evgenii.c     ****     
 589:evgenii.c     ****     // declarations
 590:evgenii.c     ****     struct sensors_ dig;
 591:evgenii.c     ****     reflectance_digital(&dig);
 592:evgenii.c     ****     
 593:evgenii.c     ****     //drives forward when all sensors are on the line
 594:evgenii.c     ****      while(sense(dig)!=12)
 595:evgenii.c     ****     {
 596:evgenii.c     ****         while(dig.L1 == 0 && dig.R1 == 1)
 597:evgenii.c     ****         {
 598:evgenii.c     ****             turnRight(speed,delay);
 599:evgenii.c     ****             reflectance_digital(&dig); 
 600:evgenii.c     ****         } 
 601:evgenii.c     ****         while(dig.L1 == 1 && dig.R1 == 0)
 602:evgenii.c     ****         {
 603:evgenii.c     ****             turnLeft(speed,delay);
 604:evgenii.c     ****             reflectance_digital(&dig); 
 605:evgenii.c     ****         }
 606:evgenii.c     ****         motor_forward(speed,delay);
 607:evgenii.c     ****         reflectance_digital(&dig); 
 608:evgenii.c     ****       //  printf("sense is %i\n", sense(dig));
 609:evgenii.c     ****     }
 610:evgenii.c     ****     
 611:evgenii.c     ****     while (dig.L3 == 0 && dig.R3 == 0)
 612:evgenii.c     ****     {
 613:evgenii.c     ****         if(dig.L2 == 1 && dig.R2 ==0)
ARM GAS  C:\Users\EVGENY~1\AppData\Local\Temp\ccpzgcQX.s 			page 16


 614:evgenii.c     ****         {
 615:evgenii.c     ****             while(dig.L2 == 1 && dig.R2 ==0)
 616:evgenii.c     ****             {
 617:evgenii.c     ****                 turnLeft(speed,delay);
 618:evgenii.c     ****                 reflectance_digital(&dig);
 619:evgenii.c     ****             }
 620:evgenii.c     ****         }
 621:evgenii.c     ****         if(dig.L2 == 0 && dig.R2 ==1)
 622:evgenii.c     ****         {
 623:evgenii.c     ****             while(dig.L2 == 0 && dig.R2 ==1)
 624:evgenii.c     ****             {
 625:evgenii.c     ****                 turnRight(speed,delay);
 626:evgenii.c     ****                 reflectance_digital(&dig);
 627:evgenii.c     ****             }
 628:evgenii.c     ****         }
 629:evgenii.c     ****         motor_forward(speed,delay);
 630:evgenii.c     ****         reflectance_digital(&dig); 
 631:evgenii.c     ****     }
 632:evgenii.c     ****     motor_forward(0,0);
 633:evgenii.c     **** }
 634:evgenii.c     **** 
 635:evgenii.c     **** int noRestrict(int *Y)
 636:evgenii.c     **** {
 242              		.loc 1 636 0
 243              		.cfi_startproc
 244              		@ args = 0, pretend = 0, frame = 0
 245              		@ frame_needed = 0, uses_anonymous_args = 0
 246              	.LVL33:
 247 0000 10B5     		push	{r4, lr}
 248              		.cfi_def_cfa_offset 8
 249              		.cfi_offset 4, -8
 250              		.cfi_offset 14, -4
 251 0002 0446     		mov	r4, r0
 637:evgenii.c     ****         if(Ultra_GetDistance()<15)
 252              		.loc 1 637 0
 253 0004 FFF7FEFF 		bl	Ultra_GetDistance
 254              	.LVL34:
 255 0008 0E28     		cmp	r0, #14
 256 000a 04DD     		ble	.L18
 638:evgenii.c     ****         {
 639:evgenii.c     ****             return 0;   
 640:evgenii.c     ****         }
 641:evgenii.c     ****         if(*Y>10)
 257              		.loc 1 641 0
 258 000c 2368     		ldr	r3, [r4]
 259 000e 0A2B     		cmp	r3, #10
 260 0010 03DD     		ble	.L19
 642:evgenii.c     ****         {
 643:evgenii.c     ****             return 0;   
 261              		.loc 1 643 0
 262 0012 0020     		movs	r0, #0
 263 0014 10BD     		pop	{r4, pc}
 264              	.LVL35:
 265              	.L18:
 639:evgenii.c     ****         }
 266              		.loc 1 639 0
 267 0016 0020     		movs	r0, #0
ARM GAS  C:\Users\EVGENY~1\AppData\Local\Temp\ccpzgcQX.s 			page 17


 268 0018 10BD     		pop	{r4, pc}
 269              	.LVL36:
 270              	.L19:
 644:evgenii.c     ****         }
 645:evgenii.c     ****         
 646:evgenii.c     ****     return 1;
 271              		.loc 1 646 0
 272 001a 0120     		movs	r0, #1
 647:evgenii.c     **** }
 273              		.loc 1 647 0
 274 001c 10BD     		pop	{r4, pc}
 275              		.cfi_endproc
 276              	.LFE99:
 277              		.size	noRestrict, .-noRestrict
 278 001e 00BF     		.section	.text.progEndEvg,"ax",%progbits
 279              		.align	2
 280              		.global	progEndEvg
 281              		.thumb
 282              		.thumb_func
 283              		.type	progEndEvg, %function
 284              	progEndEvg:
 285              	.LFB100:
 648:evgenii.c     ****     
 649:evgenii.c     ****     
 650:evgenii.c     **** 
 651:evgenii.c     **** void progEndEvg(uint32_t delay) {
 286              		.loc 1 651 0
 287              		.cfi_startproc
 288              		@ args = 0, pretend = 0, frame = 0
 289              		@ frame_needed = 0, uses_anonymous_args = 0
 290              	.LVL37:
 291 0000 38B5     		push	{r3, r4, r5, lr}
 292              		.cfi_def_cfa_offset 16
 293              		.cfi_offset 3, -16
 294              		.cfi_offset 4, -12
 295              		.cfi_offset 5, -8
 296              		.cfi_offset 14, -4
 297 0002 0546     		mov	r5, r0
 298              	.LVL38:
 652:evgenii.c     ****     bool led = false;
 299              		.loc 1 652 0
 300 0004 0024     		movs	r4, #0
 301              	.LVL39:
 302              	.L22:
 653:evgenii.c     ****     while(true){
 654:evgenii.c     ****      BatteryLed_Write(led^=1);
 303              		.loc 1 654 0 discriminator 1
 304 0006 84F00104 		eor	r4, r4, #1
 305              	.LVL40:
 306 000a 2046     		mov	r0, r4
 307 000c FFF7FEFF 		bl	BatteryLed_Write
 308              	.LVL41:
 655:evgenii.c     ****      vTaskDelay(delay);   
 309              		.loc 1 655 0 discriminator 1
 310 0010 2846     		mov	r0, r5
 311 0012 FFF7FEFF 		bl	vTaskDelay
 312              	.LVL42:
ARM GAS  C:\Users\EVGENY~1\AppData\Local\Temp\ccpzgcQX.s 			page 18


 313 0016 F6E7     		b	.L22
 314              		.cfi_endproc
 315              	.LFE100:
 316              		.size	progEndEvg, .-progEndEvg
 317              		.section	.text.turnLeft,"ax",%progbits
 318              		.align	2
 319              		.global	turnLeft
 320              		.thumb
 321              		.thumb_func
 322              		.type	turnLeft, %function
 323              	turnLeft:
 324              	.LFB101:
 656:evgenii.c     ****     }
 657:evgenii.c     **** }
 658:evgenii.c     **** void turnLeft(uint8_t speed, uint32_t delay) {
 325              		.loc 1 658 0
 326              		.cfi_startproc
 327              		@ args = 0, pretend = 0, frame = 0
 328              		@ frame_needed = 0, uses_anonymous_args = 0
 329              	.LVL43:
 330 0000 00B5     		push	{lr}
 331              		.cfi_def_cfa_offset 4
 332              		.cfi_offset 14, -4
 333 0002 83B0     		sub	sp, sp, #12
 334              		.cfi_def_cfa_offset 16
 335 0004 0246     		mov	r2, r0
 659:evgenii.c     ****     SetMotors(1, 0, speed, speed, delay);
 336              		.loc 1 659 0
 337 0006 0091     		str	r1, [sp]
 338 0008 0346     		mov	r3, r0
 339 000a 0021     		movs	r1, #0
 340              	.LVL44:
 341 000c 0120     		movs	r0, #1
 342              	.LVL45:
 343 000e FFF7FEFF 		bl	SetMotors
 344              	.LVL46:
 660:evgenii.c     **** }
 345              		.loc 1 660 0
 346 0012 03B0     		add	sp, sp, #12
 347              		.cfi_def_cfa_offset 4
 348              		@ sp needed
 349 0014 5DF804FB 		ldr	pc, [sp], #4
 350              		.cfi_endproc
 351              	.LFE101:
 352              		.size	turnLeft, .-turnLeft
 353              		.section	.text.turnRight,"ax",%progbits
 354              		.align	2
 355              		.global	turnRight
 356              		.thumb
 357              		.thumb_func
 358              		.type	turnRight, %function
 359              	turnRight:
 360              	.LFB102:
 661:evgenii.c     **** 
 662:evgenii.c     **** void turnRight(uint8_t speed, uint32_t delay) {
 361              		.loc 1 662 0
 362              		.cfi_startproc
ARM GAS  C:\Users\EVGENY~1\AppData\Local\Temp\ccpzgcQX.s 			page 19


 363              		@ args = 0, pretend = 0, frame = 0
 364              		@ frame_needed = 0, uses_anonymous_args = 0
 365              	.LVL47:
 366 0000 00B5     		push	{lr}
 367              		.cfi_def_cfa_offset 4
 368              		.cfi_offset 14, -4
 369 0002 83B0     		sub	sp, sp, #12
 370              		.cfi_def_cfa_offset 16
 371 0004 0246     		mov	r2, r0
 663:evgenii.c     ****     SetMotors(0, 1, speed, speed, delay);
 372              		.loc 1 663 0
 373 0006 0091     		str	r1, [sp]
 374 0008 0346     		mov	r3, r0
 375 000a 0121     		movs	r1, #1
 376              	.LVL48:
 377 000c 0020     		movs	r0, #0
 378              	.LVL49:
 379 000e FFF7FEFF 		bl	SetMotors
 380              	.LVL50:
 664:evgenii.c     **** }
 381              		.loc 1 664 0
 382 0012 03B0     		add	sp, sp, #12
 383              		.cfi_def_cfa_offset 4
 384              		@ sp needed
 385 0014 5DF804FB 		ldr	pc, [sp], #4
 386              		.cfi_endproc
 387              	.LFE102:
 388              		.size	turnRight, .-turnRight
 389              		.section	.text.week3_1_evg,"ax",%progbits
 390              		.align	2
 391              		.global	week3_1_evg
 392              		.thumb
 393              		.thumb_func
 394              		.type	week3_1_evg, %function
 395              	week3_1_evg:
 396              	.LFB85:
  30:evgenii.c     ****     
 397              		.loc 1 30 0
 398              		.cfi_startproc
 399              		@ Volatile: function does not return.
 400              		@ args = 0, pretend = 0, frame = 0
 401              		@ frame_needed = 0, uses_anonymous_args = 0
 402 0000 08B5     		push	{r3, lr}
 403              		.cfi_def_cfa_offset 8
 404              		.cfi_offset 3, -8
 405              		.cfi_offset 14, -4
  32:evgenii.c     ****     motor_forward(0,0);         // set speed to zero to stop motors
 406              		.loc 1 32 0
 407 0002 FFF7FEFF 		bl	motor_start
 408              	.LVL51:
  33:evgenii.c     ****     IR_Start();
 409              		.loc 1 33 0
 410 0006 0021     		movs	r1, #0
 411 0008 0846     		mov	r0, r1
 412 000a FFF7FEFF 		bl	motor_forward
 413              	.LVL52:
  34:evgenii.c     ****     IR_wait();
ARM GAS  C:\Users\EVGENY~1\AppData\Local\Temp\ccpzgcQX.s 			page 20


 414              		.loc 1 34 0
 415 000e FFF7FEFF 		bl	IR_Start
 416              	.LVL53:
  35:evgenii.c     ****     motor_forward(125,2750);     // moving forward from starting point
 417              		.loc 1 35 0
 418 0012 FFF7FEFF 		bl	IR_wait
 419              	.LVL54:
  36:evgenii.c     ****     
 420              		.loc 1 36 0
 421 0016 40F6BE21 		movw	r1, #2750
 422 001a 7D20     		movs	r0, #125
 423 001c FFF7FEFF 		bl	motor_forward
 424              	.LVL55:
  38:evgenii.c     ****     motor_forward(125,2350);    // forward on horisontal line
 425              		.loc 1 38 0
 426 0020 6721     		movs	r1, #103
 427 0022 FF20     		movs	r0, #255
 428 0024 FFF7FEFF 		bl	turnRight
 429              	.LVL56:
  39:evgenii.c     ****     turnRight(255, 103);           // 2nd turn
 430              		.loc 1 39 0
 431 0028 40F62E11 		movw	r1, #2350
 432 002c 7D20     		movs	r0, #125
 433 002e FFF7FEFF 		bl	motor_forward
 434              	.LVL57:
  40:evgenii.c     ****     motor_forward(125,2550);
 435              		.loc 1 40 0
 436 0032 6721     		movs	r1, #103
 437 0034 FF20     		movs	r0, #255
 438 0036 FFF7FEFF 		bl	turnRight
 439              	.LVL58:
  41:evgenii.c     ****     turnRight(255, 103);           // 2nd turn
 440              		.loc 1 41 0
 441 003a 40F6F611 		movw	r1, #2550
 442 003e 7D20     		movs	r0, #125
 443 0040 FFF7FEFF 		bl	motor_forward
 444              	.LVL59:
  42:evgenii.c     ****   //  tankTurnEvg(164,135,1780);
 445              		.loc 1 42 0
 446 0044 6721     		movs	r1, #103
 447 0046 FF20     		movs	r0, #255
 448 0048 FFF7FEFF 		bl	turnRight
 449              	.LVL60:
  44:evgenii.c     ****     motor_forward(0,0);         // stop motors
 450              		.loc 1 44 0
 451 004c 40F23A21 		movw	r1, #570
 452 0050 7D20     		movs	r0, #125
 453 0052 FFF7FEFF 		bl	motor_forward
 454              	.LVL61:
  45:evgenii.c     ****     motor_stop();               // disable motor controller
 455              		.loc 1 45 0
 456 0056 0021     		movs	r1, #0
 457 0058 0846     		mov	r0, r1
 458 005a FFF7FEFF 		bl	motor_forward
 459              	.LVL62:
  46:evgenii.c     ****     
 460              		.loc 1 46 0
ARM GAS  C:\Users\EVGENY~1\AppData\Local\Temp\ccpzgcQX.s 			page 21


 461 005e FFF7FEFF 		bl	motor_stop
 462              	.LVL63:
  48:evgenii.c     **** }
 463              		.loc 1 48 0
 464 0062 6420     		movs	r0, #100
 465 0064 FFF7FEFF 		bl	progEndEvg
 466              	.LVL64:
 467              		.cfi_endproc
 468              	.LFE85:
 469              		.size	week3_1_evg, .-week3_1_evg
 470              		.section	.text.randomEvg,"ax",%progbits
 471              		.align	2
 472              		.global	randomEvg
 473              		.thumb
 474              		.thumb_func
 475              		.type	randomEvg, %function
 476              	randomEvg:
 477              	.LFB103:
 665:evgenii.c     **** 
 666:evgenii.c     **** int randomEvg(int min, int max) {
 478              		.loc 1 666 0
 479              		.cfi_startproc
 480              		@ args = 0, pretend = 0, frame = 0
 481              		@ frame_needed = 0, uses_anonymous_args = 0
 482              	.LVL65:
 483 0000 38B5     		push	{r3, r4, r5, lr}
 484              		.cfi_def_cfa_offset 16
 485              		.cfi_offset 3, -16
 486              		.cfi_offset 4, -12
 487              		.cfi_offset 5, -8
 488              		.cfi_offset 14, -4
 489 0002 0546     		mov	r5, r0
 490 0004 0C46     		mov	r4, r1
 667:evgenii.c     ****     srand(xTaskGetTickCount());
 491              		.loc 1 667 0
 492 0006 FFF7FEFF 		bl	xTaskGetTickCount
 493              	.LVL66:
 494 000a FFF7FEFF 		bl	srand
 495              	.LVL67:
 668:evgenii.c     ****     int random = (rand() % (max - min + 1)) + min;
 496              		.loc 1 668 0
 497 000e FFF7FEFF 		bl	rand
 498              	.LVL68:
 499 0012 641B     		subs	r4, r4, r5
 500              	.LVL69:
 501 0014 631C     		adds	r3, r4, #1
 502 0016 90FBF3F2 		sdiv	r2, r0, r3
 503 001a 03FB1200 		mls	r0, r3, r2, r0
 504              	.LVL70:
 669:evgenii.c     ****     return random;
 670:evgenii.c     **** }
 505              		.loc 1 670 0
 506 001e 2844     		add	r0, r0, r5
 507              	.LVL71:
 508 0020 38BD     		pop	{r3, r4, r5, pc}
 509              		.cfi_endproc
 510              	.LFE103:
ARM GAS  C:\Users\EVGENY~1\AppData\Local\Temp\ccpzgcQX.s 			page 22


 511              		.size	randomEvg, .-randomEvg
 512 0022 00BF     		.section	.text.week3_3_evg,"ax",%progbits
 513              		.align	2
 514              		.global	week3_3_evg
 515              		.thumb
 516              		.thumb_func
 517              		.type	week3_3_evg, %function
 518              	week3_3_evg:
 519              	.LFB87:
  85:evgenii.c     ****     printf("Press IR send to start and button on PSoC to stop");
 520              		.loc 1 85 0
 521              		.cfi_startproc
 522              		@ args = 0, pretend = 0, frame = 0
 523              		@ frame_needed = 0, uses_anonymous_args = 0
 524 0000 38B5     		push	{r3, r4, r5, lr}
 525              		.cfi_def_cfa_offset 16
 526              		.cfi_offset 3, -16
 527              		.cfi_offset 4, -12
 528              		.cfi_offset 5, -8
 529              		.cfi_offset 14, -4
  86:evgenii.c     ****     Ultra_Start();              // Ultra Sonic Start function
 530              		.loc 1 86 0
 531 0002 2748     		ldr	r0, .L38
 532 0004 FFF7FEFF 		bl	printf
 533              	.LVL72:
  87:evgenii.c     ****     motor_start();              // enable motor controller
 534              		.loc 1 87 0
 535 0008 FFF7FEFF 		bl	Ultra_Start
 536              	.LVL73:
  88:evgenii.c     ****     motor_forward(0,0);         // set speed to zero to stop motors
 537              		.loc 1 88 0
 538 000c FFF7FEFF 		bl	motor_start
 539              	.LVL74:
  89:evgenii.c     ****     IR_Start();
 540              		.loc 1 89 0
 541 0010 0021     		movs	r1, #0
 542 0012 0846     		mov	r0, r1
 543 0014 FFF7FEFF 		bl	motor_forward
 544              	.LVL75:
  90:evgenii.c     ****     IR_wait();
 545              		.loc 1 90 0
 546 0018 FFF7FEFF 		bl	IR_Start
 547              	.LVL76:
  91:evgenii.c     ****     while(true) {
 548              		.loc 1 91 0
 549 001c FFF7FEFF 		bl	IR_wait
 550              	.LVL77:
 551              	.L36:
 552              	.LBB3:
  93:evgenii.c     ****         int d = Ultra_GetDistance();
 553              		.loc 1 93 0
 554 0020 3221     		movs	r1, #50
 555 0022 7D20     		movs	r0, #125
 556 0024 FFF7FEFF 		bl	motor_forward
 557              	.LVL78:
  94:evgenii.c     ****         // Print the detected distance (centimeters)
 558              		.loc 1 94 0
ARM GAS  C:\Users\EVGENY~1\AppData\Local\Temp\ccpzgcQX.s 			page 23


 559 0028 FFF7FEFF 		bl	Ultra_GetDistance
 560              	.LVL79:
 561 002c 0546     		mov	r5, r0
 562              	.LVL80:
  97:evgenii.c     ****        int turn = randomEvg(103, 309);
 563              		.loc 1 97 0
 564 002e C820     		movs	r0, #200
 565              	.LVL81:
 566 0030 FFF7FEFF 		bl	vTaskDelay
 567              	.LVL82:
  98:evgenii.c     ****         if(d < 11){
 568              		.loc 1 98 0
 569 0034 40F23511 		movw	r1, #309
 570 0038 6720     		movs	r0, #103
 571 003a FFF7FEFF 		bl	randomEvg
 572              	.LVL83:
 573 003e 0446     		mov	r4, r0
 574              	.LVL84:
  99:evgenii.c     ****             motor_forward(0,10);         
 575              		.loc 1 99 0
 576 0040 0A2D     		cmp	r5, #10
 577 0042 21DC     		bgt	.L33
 100:evgenii.c     ****             motor_backward(100, 150);
 578              		.loc 1 100 0
 579 0044 0A21     		movs	r1, #10
 580 0046 0020     		movs	r0, #0
 581              	.LVL85:
 582 0048 FFF7FEFF 		bl	motor_forward
 583              	.LVL86:
 101:evgenii.c     ****             if (turn % 2 == 1) {
 584              		.loc 1 101 0
 585 004c 9621     		movs	r1, #150
 586 004e 6420     		movs	r0, #100
 587 0050 FFF7FEFF 		bl	motor_backward
 588              	.LVL87:
 102:evgenii.c     ****                turnLeft(255, turn);
 589              		.loc 1 102 0
 590 0054 134B     		ldr	r3, .L38+4
 591 0056 2340     		ands	r3, r4, r3
 592 0058 03D5     		bpl	.L34
 593 005a 013B     		subs	r3, r3, #1
 594 005c 63F00103 		orn	r3, r3, #1
 595 0060 0133     		adds	r3, r3, #1
 596              	.L34:
 597 0062 012B     		cmp	r3, #1
 598 0064 08D1     		bne	.L35
 103:evgenii.c     ****                printf("\nTurn value is %i so I turn left\n", turn);
 599              		.loc 1 103 0
 600 0066 2146     		mov	r1, r4
 601 0068 FF20     		movs	r0, #255
 602 006a FFF7FEFF 		bl	turnLeft
 603              	.LVL88:
 104:evgenii.c     ****             } else {
 604              		.loc 1 104 0
 605 006e 2146     		mov	r1, r4
 606 0070 0D48     		ldr	r0, .L38+8
 607 0072 FFF7FEFF 		bl	printf
ARM GAS  C:\Users\EVGENY~1\AppData\Local\Temp\ccpzgcQX.s 			page 24


 608              	.LVL89:
 609 0076 07E0     		b	.L33
 610              	.L35:
 106:evgenii.c     ****                printf("\nTurn value is %i so I turn right\n", turn);
 611              		.loc 1 106 0
 612 0078 2146     		mov	r1, r4
 613 007a FF20     		movs	r0, #255
 614 007c FFF7FEFF 		bl	turnRight
 615              	.LVL90:
 107:evgenii.c     ****             }
 616              		.loc 1 107 0
 617 0080 2146     		mov	r1, r4
 618 0082 0A48     		ldr	r0, .L38+12
 619 0084 FFF7FEFF 		bl	printf
 620              	.LVL91:
 621              	.L33:
 110:evgenii.c     ****              break;
 622              		.loc 1 110 0
 623 0088 FFF7FEFF 		bl	SW1_Read
 624              	.LVL92:
 625 008c 0028     		cmp	r0, #0
 626 008e C7D1     		bne	.L36
 627              	.LBE3:
 114:evgenii.c     ****     motor_stop();
 628              		.loc 1 114 0
 629 0090 0021     		movs	r1, #0
 630 0092 0846     		mov	r0, r1
 631 0094 FFF7FEFF 		bl	motor_forward
 632              	.LVL93:
 115:evgenii.c     **** 
 633              		.loc 1 115 0
 634 0098 FFF7FEFF 		bl	motor_stop
 635              	.LVL94:
 636 009c 38BD     		pop	{r3, r4, r5, pc}
 637              	.LVL95:
 638              	.L39:
 639 009e 00BF     		.align	2
 640              	.L38:
 641 00a0 00000000 		.word	.LC0
 642 00a4 01000080 		.word	-2147483647
 643 00a8 CC000000 		.word	.LC6
 644 00ac F0000000 		.word	.LC7
 645              		.cfi_endproc
 646              	.LFE87:
 647              		.size	week3_3_evg, .-week3_3_evg
 648              		.section	.text.tankTurnEvg,"ax",%progbits
 649              		.align	2
 650              		.global	tankTurnEvg
 651              		.thumb
 652              		.thumb_func
 653              		.type	tankTurnEvg, %function
 654              	tankTurnEvg:
 655              	.LFB104:
 671:evgenii.c     **** 
 672:evgenii.c     **** 
 673:evgenii.c     **** 
 674:evgenii.c     **** void tankTurnEvg(int16 degree){
ARM GAS  C:\Users\EVGENY~1\AppData\Local\Temp\ccpzgcQX.s 			page 25


 656              		.loc 1 674 0
 657              		.cfi_startproc
 658              		@ args = 0, pretend = 0, frame = 0
 659              		@ frame_needed = 0, uses_anonymous_args = 0
 660              	.LVL96:
 661 0000 10B5     		push	{r4, lr}
 662              		.cfi_def_cfa_offset 8
 663              		.cfi_offset 4, -8
 664              		.cfi_offset 14, -4
 665 0002 82B0     		sub	sp, sp, #8
 666              		.cfi_def_cfa_offset 16
 675:evgenii.c     ****     
 676:evgenii.c     ****     uint8 leftState, rightState, correction;
 677:evgenii.c     ****     
 678:evgenii.c     ****     if(degree>=0) {
 667              		.loc 1 678 0
 668 0004 041E     		subs	r4, r0, #0
 669 0006 01DB     		blt	.L44
 679:evgenii.c     ****         leftState=0;
 670              		.loc 1 679 0
 671 0008 0020     		movs	r0, #0
 672              	.LVL97:
 673 000a 00E0     		b	.L41
 674              	.LVL98:
 675              	.L44:
 680:evgenii.c     ****     } else{
 681:evgenii.c     ****         leftState=1;
 676              		.loc 1 681 0
 677 000c 0120     		movs	r0, #1
 678              	.LVL99:
 679              	.L41:
 682:evgenii.c     ****     }
 683:evgenii.c     ****     if(degree<0) {
 680              		.loc 1 683 0
 681 000e 002C     		cmp	r4, #0
 682 0010 0EDA     		bge	.L42
 683              	.LVL100:
 684:evgenii.c     ****         rightState=0;
 685:evgenii.c     ****         correction= (degree * -1) % 360;
 684              		.loc 1 685 0
 685 0012 6442     		negs	r4, r4
 686 0014 164A     		ldr	r2, .L46
 687 0016 84FB0223 		smull	r2, r3, r4, r2
 688 001a 2344     		add	r3, r3, r4
 689 001c E117     		asrs	r1, r4, #31
 690 001e C1EB2323 		rsb	r3, r1, r3, asr #8
 691 0022 4FF4B472 		mov	r2, #360
 692 0026 02FB1343 		mls	r3, r2, r3, r4
 693 002a DAB2     		uxtb	r2, r3
 694              	.LVL101:
 684:evgenii.c     ****         rightState=0;
 695              		.loc 1 684 0
 696 002c 0021     		movs	r1, #0
 697 002e 0CE0     		b	.L43
 698              	.LVL102:
 699              	.L42:
 686:evgenii.c     ****     } else{
ARM GAS  C:\Users\EVGENY~1\AppData\Local\Temp\ccpzgcQX.s 			page 26


 687:evgenii.c     ****         rightState=1;
 688:evgenii.c     ****         correction= degree % 360;
 700              		.loc 1 688 0
 701 0030 0F4A     		ldr	r2, .L46
 702 0032 84FB0223 		smull	r2, r3, r4, r2
 703 0036 2344     		add	r3, r3, r4
 704 0038 E117     		asrs	r1, r4, #31
 705 003a C1EB2321 		rsb	r1, r1, r3, asr #8
 706 003e 4FF4B473 		mov	r3, #360
 707 0042 03FB1143 		mls	r3, r3, r1, r4
 708 0046 DAB2     		uxtb	r2, r3
 709              	.LVL103:
 687:evgenii.c     ****         correction= degree % 360;
 710              		.loc 1 687 0
 711 0048 0121     		movs	r1, #1
 712              	.LVL104:
 713              	.L43:
 689:evgenii.c     ****     }
 690:evgenii.c     ****     uint32 delay = (correction * 1048)/360;
 714              		.loc 1 690 0
 715 004a 4FF48363 		mov	r3, #1048
 716 004e 03FB02F3 		mul	r3, r3, r2
 717 0052 074A     		ldr	r2, .L46
 718              	.LVL105:
 719 0054 82FB0342 		smull	r4, r2, r2, r3
 720 0058 1A44     		add	r2, r2, r3
 721 005a DB17     		asrs	r3, r3, #31
 722 005c C3EB2223 		rsb	r3, r3, r2, asr #8
 723              	.LVL106:
 691:evgenii.c     ****     
 692:evgenii.c     ****     SetMotors(leftState,rightState, 100, 100, delay);
 724              		.loc 1 692 0
 725 0060 0093     		str	r3, [sp]
 726 0062 6423     		movs	r3, #100
 727              	.LVL107:
 728 0064 1A46     		mov	r2, r3
 729 0066 FFF7FEFF 		bl	SetMotors
 730              	.LVL108:
 693:evgenii.c     **** }
 731              		.loc 1 693 0
 732 006a 02B0     		add	sp, sp, #8
 733              		.cfi_def_cfa_offset 8
 734              		@ sp needed
 735 006c 10BD     		pop	{r4, pc}
 736              	.L47:
 737 006e 00BF     		.align	2
 738              	.L46:
 739 0070 B7600BB6 		.word	-1240768329
 740              		.cfi_endproc
 741              	.LFE104:
 742              		.size	tankTurnEvg, .-tankTurnEvg
 743              		.section	.text.end,"ax",%progbits
 744              		.align	2
 745              		.global	end
 746              		.thumb
 747              		.thumb_func
 748              		.type	end, %function
ARM GAS  C:\Users\EVGENY~1\AppData\Local\Temp\ccpzgcQX.s 			page 27


 749              	end:
 750              	.LFB105:
 694:evgenii.c     **** 
 695:evgenii.c     **** void end(void) {
 751              		.loc 1 695 0
 752              		.cfi_startproc
 753              		@ args = 0, pretend = 0, frame = 0
 754              		@ frame_needed = 0, uses_anonymous_args = 0
 755 0000 08B5     		push	{r3, lr}
 756              		.cfi_def_cfa_offset 8
 757              		.cfi_offset 3, -8
 758              		.cfi_offset 14, -4
 696:evgenii.c     ****     printf("End of the programm\n");
 759              		.loc 1 696 0
 760 0002 0548     		ldr	r0, .L50
 761 0004 FFF7FEFF 		bl	puts
 762              	.LVL109:
 697:evgenii.c     ****     motor_forward(0,0);         
 763              		.loc 1 697 0
 764 0008 0021     		movs	r1, #0
 765 000a 0846     		mov	r0, r1
 766 000c FFF7FEFF 		bl	motor_forward
 767              	.LVL110:
 698:evgenii.c     ****     motor_stop();
 768              		.loc 1 698 0
 769 0010 FFF7FEFF 		bl	motor_stop
 770              	.LVL111:
 771 0014 08BD     		pop	{r3, pc}
 772              	.L51:
 773 0016 00BF     		.align	2
 774              	.L50:
 775 0018 14010000 		.word	.LC8
 776              		.cfi_endproc
 777              	.LFE105:
 778              		.size	end, .-end
 779              		.section	.text.end_mqtt,"ax",%progbits
 780              		.align	2
 781              		.global	end_mqtt
 782              		.thumb
 783              		.thumb_func
 784              		.type	end_mqtt, %function
 785              	end_mqtt:
 786              	.LFB106:
 699:evgenii.c     **** }
 700:evgenii.c     **** 
 701:evgenii.c     **** void end_mqtt(uint32_t start, uint32_t stop) {
 787              		.loc 1 701 0
 788              		.cfi_startproc
 789              		@ args = 0, pretend = 0, frame = 0
 790              		@ frame_needed = 0, uses_anonymous_args = 0
 791              	.LVL112:
 792 0000 38B5     		push	{r3, r4, r5, lr}
 793              		.cfi_def_cfa_offset 16
 794              		.cfi_offset 3, -16
 795              		.cfi_offset 4, -12
 796              		.cfi_offset 5, -8
 797              		.cfi_offset 14, -4
ARM GAS  C:\Users\EVGENY~1\AppData\Local\Temp\ccpzgcQX.s 			page 28


 798 0002 0446     		mov	r4, r0
 799 0004 0D46     		mov	r5, r1
 702:evgenii.c     ****     motor_forward(0,0);         
 800              		.loc 1 702 0
 801 0006 0021     		movs	r1, #0
 802              	.LVL113:
 803 0008 0846     		mov	r0, r1
 804              	.LVL114:
 805 000a FFF7FEFF 		bl	motor_forward
 806              	.LVL115:
 703:evgenii.c     ****     motor_stop();
 807              		.loc 1 703 0
 808 000e FFF7FEFF 		bl	motor_stop
 809              	.LVL116:
 704:evgenii.c     ****     uint32_t elapsed = stop-start;
 810              		.loc 1 704 0
 811 0012 2C1B     		subs	r4, r5, r4
 812              	.LVL117:
 705:evgenii.c     ****     print_mqtt(STOP_TOPIC, " %lu", stop);
 813              		.loc 1 705 0
 814 0014 2A46     		mov	r2, r5
 815 0016 0749     		ldr	r1, .L54
 816 0018 0748     		ldr	r0, .L54+4
 817 001a FFF7FEFF 		bl	print_mqtt
 818              	.LVL118:
 706:evgenii.c     ****     print_mqtt(TIME_TOPIC, "elapsed: %lums, %02lus", elapsed, elapsed/1000);
 819              		.loc 1 706 0
 820 001e 074B     		ldr	r3, .L54+8
 821 0020 A3FB0423 		umull	r2, r3, r3, r4
 822 0024 9B09     		lsrs	r3, r3, #6
 823 0026 2246     		mov	r2, r4
 824 0028 0549     		ldr	r1, .L54+12
 825 002a 0648     		ldr	r0, .L54+16
 826 002c FFF7FEFF 		bl	print_mqtt
 827              	.LVL119:
 828 0030 38BD     		pop	{r3, r4, r5, pc}
 829              	.LVL120:
 830              	.L55:
 831 0032 00BF     		.align	2
 832              	.L54:
 833 0034 28010000 		.word	.LC9
 834 0038 30010000 		.word	.LC10
 835 003c D34D6210 		.word	274877907
 836 0040 40010000 		.word	.LC11
 837 0044 58010000 		.word	.LC12
 838              		.cfi_endproc
 839              	.LFE106:
 840              		.size	end_mqtt, .-end_mqtt
 841              		.section	.text.startUp,"ax",%progbits
 842              		.align	2
 843              		.global	startUp
 844              		.thumb
 845              		.thumb_func
 846              		.type	startUp, %function
 847              	startUp:
 848              	.LFB107:
 707:evgenii.c     **** }
ARM GAS  C:\Users\EVGENY~1\AppData\Local\Temp\ccpzgcQX.s 			page 29


 708:evgenii.c     **** 
 709:evgenii.c     **** 
 710:evgenii.c     **** 
 711:evgenii.c     **** // function to start assets. 1 as parameter starts motor, infrared, reflectance, button in same ord
 712:evgenii.c     **** void startUp(int motor, int IR, int reflectance, int button, int ultra) {
 849              		.loc 1 712 0
 850              		.cfi_startproc
 851              		@ args = 4, pretend = 0, frame = 0
 852              		@ frame_needed = 0, uses_anonymous_args = 0
 853              	.LVL121:
 854 0000 F0B5     		push	{r4, r5, r6, r7, lr}
 855              		.cfi_def_cfa_offset 20
 856              		.cfi_offset 4, -20
 857              		.cfi_offset 5, -16
 858              		.cfi_offset 6, -12
 859              		.cfi_offset 7, -8
 860              		.cfi_offset 14, -4
 861 0002 83B0     		sub	sp, sp, #12
 862              		.cfi_def_cfa_offset 32
 863 0004 0746     		mov	r7, r0
 864 0006 0E46     		mov	r6, r1
 865 0008 1546     		mov	r5, r2
 866 000a 1C46     		mov	r4, r3
 713:evgenii.c     ****     printf("\n\nBoot!\n");
 867              		.loc 1 713 0
 868 000c 1648     		ldr	r0, .L64
 869              	.LVL122:
 870 000e FFF7FEFF 		bl	puts
 871              	.LVL123:
 714:evgenii.c     ****     if(motor == 1){
 872              		.loc 1 714 0
 873 0012 012F     		cmp	r7, #1
 874 0014 05D1     		bne	.L57
 715:evgenii.c     ****         motor_start();  
 875              		.loc 1 715 0
 876 0016 FFF7FEFF 		bl	motor_start
 877              	.LVL124:
 716:evgenii.c     ****         motor_forward(0,0);
 878              		.loc 1 716 0
 879 001a 0021     		movs	r1, #0
 880 001c 0846     		mov	r0, r1
 881 001e FFF7FEFF 		bl	motor_forward
 882              	.LVL125:
 883              	.L57:
 717:evgenii.c     ****     }
 718:evgenii.c     ****     if(IR == 1){
 884              		.loc 1 718 0
 885 0022 012E     		cmp	r6, #1
 886 0024 03D1     		bne	.L58
 719:evgenii.c     ****         IR_Start();
 887              		.loc 1 719 0
 888 0026 FFF7FEFF 		bl	IR_Start
 889              	.LVL126:
 720:evgenii.c     **** //        printf("to start press IR send\n");
 721:evgenii.c     ****         IR_flush();    
 890              		.loc 1 721 0
 891 002a FFF7FEFF 		bl	IR_flush
ARM GAS  C:\Users\EVGENY~1\AppData\Local\Temp\ccpzgcQX.s 			page 30


 892              	.LVL127:
 893              	.L58:
 722:evgenii.c     ****     }
 723:evgenii.c     ****     if(reflectance == 1){
 894              		.loc 1 723 0
 895 002e 012D     		cmp	r5, #1
 896 0030 0CD1     		bne	.L59
 724:evgenii.c     ****         reflectance_start(); 
 897              		.loc 1 724 0
 898 0032 FFF7FEFF 		bl	reflectance_start
 899              	.LVL128:
 725:evgenii.c     ****         reflectance_set_threshold(13000, 11000, 15000, 15000, 11000, 13000);
 900              		.loc 1 725 0
 901 0036 43F2C820 		movw	r0, #13000
 902 003a 0190     		str	r0, [sp, #4]
 903 003c 42F6F821 		movw	r1, #11000
 904 0040 0091     		str	r1, [sp]
 905 0042 43F69823 		movw	r3, #15000
 906 0046 1A46     		mov	r2, r3
 907 0048 FFF7FEFF 		bl	reflectance_set_threshold
 908              	.LVL129:
 909              	.L59:
 726:evgenii.c     ****     }
 727:evgenii.c     ****     if(button == 1) {
 910              		.loc 1 727 0
 911 004c 012C     		cmp	r4, #1
 912 004e 03D1     		bne	.L60
 913              	.L61:
 728:evgenii.c     ****         while(SW1_Read());
 914              		.loc 1 728 0 discriminator 1
 915 0050 FFF7FEFF 		bl	SW1_Read
 916              	.LVL130:
 917 0054 0028     		cmp	r0, #0
 918 0056 FBD1     		bne	.L61
 919              	.L60:
 729:evgenii.c     ****     }
 730:evgenii.c     ****     if(ultra == 1) {
 920              		.loc 1 730 0
 921 0058 089B     		ldr	r3, [sp, #32]
 922 005a 012B     		cmp	r3, #1
 923 005c 01D1     		bne	.L56
 731:evgenii.c     ****         Ultra_Start();
 924              		.loc 1 731 0
 925 005e FFF7FEFF 		bl	Ultra_Start
 926              	.LVL131:
 927              	.L56:
 732:evgenii.c     ****     }
 733:evgenii.c     ****     
 734:evgenii.c     ****     // more to add here
 735:evgenii.c     **** }
 928              		.loc 1 735 0
 929 0062 03B0     		add	sp, sp, #12
 930              		.cfi_def_cfa_offset 20
 931              		@ sp needed
 932 0064 F0BD     		pop	{r4, r5, r6, r7, pc}
 933              	.LVL132:
 934              	.L65:
ARM GAS  C:\Users\EVGENY~1\AppData\Local\Temp\ccpzgcQX.s 			page 31


 935 0066 00BF     		.align	2
 936              	.L64:
 937 0068 68010000 		.word	.LC13
 938              		.cfi_endproc
 939              	.LFE107:
 940              		.size	startUp, .-startUp
 941              		.section	.text.week5_2_evg,"ax",%progbits
 942              		.align	2
 943              		.global	week5_2_evg
 944              		.thumb
 945              		.thumb_func
 946              		.type	week5_2_evg, %function
 947              	week5_2_evg:
 948              	.LFB92:
 254:evgenii.c     ****     startUp(1,1,0,0,1);
 949              		.loc 1 254 0
 950              		.cfi_startproc
 951              		@ args = 0, pretend = 0, frame = 0
 952              		@ frame_needed = 0, uses_anonymous_args = 0
 953 0000 00B5     		push	{lr}
 954              		.cfi_def_cfa_offset 4
 955              		.cfi_offset 14, -4
 956 0002 83B0     		sub	sp, sp, #12
 957              		.cfi_def_cfa_offset 16
 255:evgenii.c     ****     while(SW1_Read() == RELEASED)
 958              		.loc 1 255 0
 959 0004 0120     		movs	r0, #1
 960 0006 0090     		str	r0, [sp]
 961 0008 0023     		movs	r3, #0
 962 000a 1A46     		mov	r2, r3
 963 000c 0146     		mov	r1, r0
 964 000e FFF7FEFF 		bl	startUp
 965              	.LVL133:
 256:evgenii.c     ****     {
 966              		.loc 1 256 0
 967 0012 32E0     		b	.L68
 968              	.L72:
 258:evgenii.c     ****         if(Ultra_GetDistance() < 10){
 969              		.loc 1 258 0
 970 0014 5021     		movs	r1, #80
 971 0016 9620     		movs	r0, #150
 972 0018 FFF7FEFF 		bl	motor_forward
 973              	.LVL134:
 259:evgenii.c     ****             motor_forward(0,0);         
 974              		.loc 1 259 0
 975 001c FFF7FEFF 		bl	Ultra_GetDistance
 976              	.LVL135:
 977 0020 0928     		cmp	r0, #9
 978 0022 2ADC     		bgt	.L68
 260:evgenii.c     ****             motor_backward(150, 150);
 979              		.loc 1 260 0
 980 0024 0021     		movs	r1, #0
 981 0026 0846     		mov	r0, r1
 982 0028 FFF7FEFF 		bl	motor_forward
 983              	.LVL136:
 261:evgenii.c     ****             
 984              		.loc 1 261 0
ARM GAS  C:\Users\EVGENY~1\AppData\Local\Temp\ccpzgcQX.s 			page 32


 985 002c 9621     		movs	r1, #150
 986 002e 0846     		mov	r0, r1
 987 0030 FFF7FEFF 		bl	motor_backward
 988              	.LVL137:
 263:evgenii.c     ****                tankTurnEvg(90);
 989              		.loc 1 263 0
 990 0034 FFF7FEFF 		bl	rand
 991              	.LVL138:
 992 0038 144B     		ldr	r3, .L74
 993 003a 1840     		ands	r0, r0, r3
 994 003c 03D5     		bpl	.L69
 995 003e 0138     		subs	r0, r0, #1
 996 0040 60F00100 		orn	r0, r0, #1
 997 0044 0130     		adds	r0, r0, #1
 998              	.L69:
 999 0046 0128     		cmp	r0, #1
 1000 0048 0BD1     		bne	.L70
 264:evgenii.c     ****                motor_forward(0,0);
 1001              		.loc 1 264 0
 1002 004a 5A20     		movs	r0, #90
 1003 004c FFF7FEFF 		bl	tankTurnEvg
 1004              	.LVL139:
 265:evgenii.c     ****                print_mqtt(TURN_TOPIC, "/ Turn direction - right");
 1005              		.loc 1 265 0
 1006 0050 0021     		movs	r1, #0
 1007 0052 0846     		mov	r0, r1
 1008 0054 FFF7FEFF 		bl	motor_forward
 1009              	.LVL140:
 266:evgenii.c     ****             } else {
 1010              		.loc 1 266 0
 1011 0058 0D49     		ldr	r1, .L74+4
 1012 005a 0E48     		ldr	r0, .L74+8
 1013 005c FFF7FEFF 		bl	print_mqtt
 1014              	.LVL141:
 1015 0060 0BE0     		b	.L68
 1016              	.L70:
 268:evgenii.c     ****                motor_forward(0,0);
 1017              		.loc 1 268 0
 1018 0062 6FF05900 		mvn	r0, #89
 1019 0066 FFF7FEFF 		bl	tankTurnEvg
 1020              	.LVL142:
 269:evgenii.c     ****                print_mqtt(TURN_TOPIC, "/ Turn direction - left");
 1021              		.loc 1 269 0
 1022 006a 0021     		movs	r1, #0
 1023 006c 0846     		mov	r0, r1
 1024 006e FFF7FEFF 		bl	motor_forward
 1025              	.LVL143:
 270:evgenii.c     ****             } 
 1026              		.loc 1 270 0
 1027 0072 0949     		ldr	r1, .L74+12
 1028 0074 0748     		ldr	r0, .L74+8
 1029 0076 FFF7FEFF 		bl	print_mqtt
 1030              	.LVL144:
 1031              	.L68:
 256:evgenii.c     ****     {
 1032              		.loc 1 256 0
 1033 007a FFF7FEFF 		bl	SW1_Read
ARM GAS  C:\Users\EVGENY~1\AppData\Local\Temp\ccpzgcQX.s 			page 33


 1034              	.LVL145:
 1035 007e 0128     		cmp	r0, #1
 1036 0080 C8D0     		beq	.L72
 275:evgenii.c     **** }
 1037              		.loc 1 275 0
 1038 0082 FFF7FEFF 		bl	end
 1039              	.LVL146:
 276:evgenii.c     **** 
 1040              		.loc 1 276 0
 1041 0086 03B0     		add	sp, sp, #12
 1042              		.cfi_def_cfa_offset 4
 1043              		@ sp needed
 1044 0088 5DF804FB 		ldr	pc, [sp], #4
 1045              	.L75:
 1046              		.align	2
 1047              	.L74:
 1048 008c 01000080 		.word	-2147483647
 1049 0090 70010000 		.word	.LC14
 1050 0094 8C010000 		.word	.LC15
 1051 0098 9C010000 		.word	.LC16
 1052              		.cfi_endproc
 1053              	.LFE92:
 1054              		.size	week5_2_evg, .-week5_2_evg
 1055              		.section	.text.sense,"ax",%progbits
 1056              		.align	2
 1057              		.global	sense
 1058              		.thumb
 1059              		.thumb_func
 1060              		.type	sense, %function
 1061              	sense:
 1062              	.LFB108:
 736:evgenii.c     **** 
 737:evgenii.c     **** uint16_t sense(struct sensors_ dig)
 738:evgenii.c     **** {                               
 1063              		.loc 1 738 0
 1064              		.cfi_startproc
 1065              		@ args = 0, pretend = 0, frame = 16
 1066              		@ frame_needed = 0, uses_anonymous_args = 0
 1067              		@ link register save eliminated.
 1068 0000 30B4     		push	{r4, r5}
 1069              		.cfi_def_cfa_offset 8
 1070              		.cfi_offset 4, -8
 1071              		.cfi_offset 5, -4
 1072 0002 84B0     		sub	sp, sp, #16
 1073              		.cfi_def_cfa_offset 24
 1074 0004 04AB     		add	r3, sp, #16
 1075 0006 03E90700 		stmdb	r3, {r0, r1, r2}
 739:evgenii.c     **** //returns this value   1          2         4           8           16          32
 740:evgenii.c     ****     uint16_t sum = dig.L3*1 + dig.L2*2 + dig.L1*4 + dig.R1*8 + dig.R2*16 + dig.R3*32;
 1076              		.loc 1 740 0
 1077 000a BDF80430 		ldrh	r3, [sp, #4]
 1078 000e BDF80810 		ldrh	r1, [sp, #8]
 1079 0012 BDF80C00 		ldrh	r0, [sp, #12]
 1080 0016 BDF80E50 		ldrh	r5, [sp, #14]
 1081 001a BDF80A40 		ldrh	r4, [sp, #10]
 1082 001e BDF80620 		ldrh	r2, [sp, #6]
 1083 0022 00EB4500 		add	r0, r0, r5, lsl #1
ARM GAS  C:\Users\EVGENY~1\AppData\Local\Temp\ccpzgcQX.s 			page 34


 1084 0026 04EB4000 		add	r0, r4, r0, lsl #1
 1085 002a 01EB4000 		add	r0, r1, r0, lsl #1
 1086 002e 02EB4000 		add	r0, r2, r0, lsl #1
 1087 0032 03EB4000 		add	r0, r3, r0, lsl #1
 1088              	.LVL147:
 741:evgenii.c     ****     
 742:evgenii.c     ****  return sum;   
 743:evgenii.c     **** }
 1089              		.loc 1 743 0
 1090 0036 80B2     		uxth	r0, r0
 1091 0038 04B0     		add	sp, sp, #16
 1092              		.cfi_def_cfa_offset 8
 1093              		@ sp needed
 1094 003a 30BC     		pop	{r4, r5}
 1095              		.cfi_restore 5
 1096              		.cfi_restore 4
 1097              		.cfi_def_cfa_offset 0
 1098 003c 7047     		bx	lr
 1099              		.cfi_endproc
 1100              	.LFE108:
 1101              		.size	sense, .-sense
 1102 003e 00BF     		.section	.text.driveForward,"ax",%progbits
 1103              		.align	2
 1104              		.global	driveForward
 1105              		.thumb
 1106              		.thumb_func
 1107              		.type	driveForward, %function
 1108              	driveForward:
 1109              	.LFB97:
 537:evgenii.c     ****     
 1110              		.loc 1 537 0
 1111              		.cfi_startproc
 1112              		@ args = 0, pretend = 0, frame = 16
 1113              		@ frame_needed = 0, uses_anonymous_args = 0
 1114              	.LVL148:
 1115 0000 30B5     		push	{r4, r5, lr}
 1116              		.cfi_def_cfa_offset 12
 1117              		.cfi_offset 4, -12
 1118              		.cfi_offset 5, -8
 1119              		.cfi_offset 14, -4
 1120 0002 85B0     		sub	sp, sp, #20
 1121              		.cfi_def_cfa_offset 32
 1122 0004 0446     		mov	r4, r0
 1123 0006 0D46     		mov	r5, r1
 541:evgenii.c     ****     bool miss = true, bonus = 0;
 1124              		.loc 1 541 0
 1125 0008 01A8     		add	r0, sp, #4
 1126              	.LVL149:
 1127 000a FFF7FEFF 		bl	reflectance_digital
 1128              	.LVL150:
 545:evgenii.c     ****     {
 1129              		.loc 1 545 0
 1130 000e 06E0     		b	.L79
 1131              	.L80:
 547:evgenii.c     ****         reflectance_digital(&dig); 
 1132              		.loc 1 547 0
 1133 0010 2946     		mov	r1, r5
ARM GAS  C:\Users\EVGENY~1\AppData\Local\Temp\ccpzgcQX.s 			page 35


 1134 0012 2046     		mov	r0, r4
 1135 0014 FFF7FEFF 		bl	motor_forward
 1136              	.LVL151:
 548:evgenii.c     ****       //  printf("sense is %i\n", sense(dig));
 1137              		.loc 1 548 0
 1138 0018 01A8     		add	r0, sp, #4
 1139 001a FFF7FEFF 		bl	reflectance_digital
 1140              	.LVL152:
 1141              	.L79:
 545:evgenii.c     ****     {
 1142              		.loc 1 545 0
 1143 001e 04AB     		add	r3, sp, #16
 1144 0020 13E90700 		ldmdb	r3, {r0, r1, r2}
 1145 0024 FFF7FEFF 		bl	sense
 1146              	.LVL153:
 1147 0028 3F28     		cmp	r0, #63
 1148 002a F1D0     		beq	.L80
 1149 002c 21E0     		b	.L81
 1150              	.L85:
 557:evgenii.c     ****         {
 1151              		.loc 1 557 0
 1152 002e BDF80830 		ldrh	r3, [sp, #8]
 1153 0032 5BB9     		cbnz	r3, .L82
 557:evgenii.c     ****         {
 1154              		.loc 1 557 0 is_stmt 0 discriminator 1
 1155 0034 BDF80A20 		ldrh	r2, [sp, #10]
 1156 0038 012A     		cmp	r2, #1
 1157 003a 07D1     		bne	.L82
 559:evgenii.c     ****             reflectance_digital(&dig); 
 1158              		.loc 1 559 0 is_stmt 1
 1159 003c 2946     		mov	r1, r5
 1160 003e 2046     		mov	r0, r4
 1161 0040 FFF7FEFF 		bl	turnRight
 1162              	.LVL154:
 560:evgenii.c     ****         } 
 1163              		.loc 1 560 0
 1164 0044 01A8     		add	r0, sp, #4
 1165 0046 FFF7FEFF 		bl	reflectance_digital
 1166              	.LVL155:
 1167 004a 0BE0     		b	.L83
 1168              	.L82:
 562:evgenii.c     ****         {
 1169              		.loc 1 562 0
 1170 004c 012B     		cmp	r3, #1
 1171 004e 09D1     		bne	.L83
 562:evgenii.c     ****         {
 1172              		.loc 1 562 0 is_stmt 0 discriminator 1
 1173 0050 BDF80A30 		ldrh	r3, [sp, #10]
 1174 0054 33B9     		cbnz	r3, .L83
 564:evgenii.c     ****             reflectance_digital(&dig); 
 1175              		.loc 1 564 0 is_stmt 1
 1176 0056 2946     		mov	r1, r5
 1177 0058 2046     		mov	r0, r4
 1178 005a FFF7FEFF 		bl	turnLeft
 1179              	.LVL156:
 565:evgenii.c     ****         }
 1180              		.loc 1 565 0
ARM GAS  C:\Users\EVGENY~1\AppData\Local\Temp\ccpzgcQX.s 			page 36


 1181 005e 01A8     		add	r0, sp, #4
 1182 0060 FFF7FEFF 		bl	reflectance_digital
 1183              	.LVL157:
 1184              	.L83:
 580:evgenii.c     ****         reflectance_digital(&dig); 
 1185              		.loc 1 580 0
 1186 0064 2946     		mov	r1, r5
 1187 0066 2046     		mov	r0, r4
 1188 0068 FFF7FEFF 		bl	motor_forward
 1189              	.LVL158:
 581:evgenii.c     ****         
 1190              		.loc 1 581 0
 1191 006c 01A8     		add	r0, sp, #4
 1192 006e FFF7FEFF 		bl	reflectance_digital
 1193              	.LVL159:
 1194              	.L81:
 553:evgenii.c     ****     {
 1195              		.loc 1 553 0
 1196 0072 04AB     		add	r3, sp, #16
 1197 0074 13E90700 		ldmdb	r3, {r0, r1, r2}
 1198 0078 FFF7FEFF 		bl	sense
 1199              	.LVL160:
 1200 007c 3F28     		cmp	r0, #63
 1201 007e 03D0     		beq	.L84
 553:evgenii.c     ****     {
 1202              		.loc 1 553 0 is_stmt 0 discriminator 1
 1203 0080 3C28     		cmp	r0, #60
 1204 0082 01D0     		beq	.L84
 553:evgenii.c     ****     {
 1205              		.loc 1 553 0 discriminator 2
 1206 0084 0F28     		cmp	r0, #15
 1207 0086 D2D1     		bne	.L85
 1208              	.L84:
 584:evgenii.c     **** }
 1209              		.loc 1 584 0 is_stmt 1
 1210 0088 0021     		movs	r1, #0
 1211 008a 0846     		mov	r0, r1
 1212 008c FFF7FEFF 		bl	motor_forward
 1213              	.LVL161:
 585:evgenii.c     **** 
 1214              		.loc 1 585 0
 1215 0090 05B0     		add	sp, sp, #20
 1216              		.cfi_def_cfa_offset 12
 1217              		@ sp needed
 1218 0092 30BD     		pop	{r4, r5, pc}
 1219              		.cfi_endproc
 1220              	.LFE97:
 1221              		.size	driveForward, .-driveForward
 1222              		.section	.text.week4_1_evg,"ax",%progbits
 1223              		.align	2
 1224              		.global	week4_1_evg
 1225              		.thumb
 1226              		.thumb_func
 1227              		.type	week4_1_evg, %function
 1228              	week4_1_evg:
 1229              	.LFB88:
 122:evgenii.c     ****     int count = 0;
ARM GAS  C:\Users\EVGENY~1\AppData\Local\Temp\ccpzgcQX.s 			page 37


 1230              		.loc 1 122 0
 1231              		.cfi_startproc
 1232              		@ args = 0, pretend = 0, frame = 16
 1233              		@ frame_needed = 0, uses_anonymous_args = 0
 1234 0000 10B5     		push	{r4, lr}
 1235              		.cfi_def_cfa_offset 8
 1236              		.cfi_offset 4, -8
 1237              		.cfi_offset 14, -4
 1238 0002 86B0     		sub	sp, sp, #24
 1239              		.cfi_def_cfa_offset 32
 1240              	.LVL162:
 126:evgenii.c     ****     
 1241              		.loc 1 126 0
 1242 0004 0024     		movs	r4, #0
 1243 0006 0094     		str	r4, [sp]
 1244 0008 0123     		movs	r3, #1
 1245 000a 1A46     		mov	r2, r3
 1246 000c 2146     		mov	r1, r4
 1247 000e 1846     		mov	r0, r3
 1248 0010 FFF7FEFF 		bl	startUp
 1249              	.LVL163:
 128:evgenii.c     ****     while(count<5) 
 1250              		.loc 1 128 0
 1251 0014 03A8     		add	r0, sp, #12
 1252 0016 FFF7FEFF 		bl	reflectance_digital
 1253              	.LVL164:
 129:evgenii.c     ****     {
 1254              		.loc 1 129 0
 1255 001a 11E0     		b	.L88
 1256              	.LVL165:
 1257              	.L90:
 131:evgenii.c     ****         count++;
 1258              		.loc 1 131 0
 1259 001c 0021     		movs	r1, #0
 1260 001e 6420     		movs	r0, #100
 1261 0020 FFF7FEFF 		bl	driveForward
 1262              	.LVL166:
 132:evgenii.c     ****       if(count == 1)
 1263              		.loc 1 132 0
 1264 0024 0134     		adds	r4, r4, #1
 1265              	.LVL167:
 133:evgenii.c     ****         {
 1266              		.loc 1 133 0
 1267 0026 012C     		cmp	r4, #1
 1268 0028 0AD1     		bne	.L88
 135:evgenii.c     ****          startUp(0,1,0,0,0);
 1269              		.loc 1 135 0
 1270 002a 0021     		movs	r1, #0
 1271 002c 0846     		mov	r0, r1
 1272 002e FFF7FEFF 		bl	motor_forward
 1273              	.LVL168:
 136:evgenii.c     ****         }
 1274              		.loc 1 136 0
 1275 0032 0020     		movs	r0, #0
 1276 0034 0090     		str	r0, [sp]
 1277 0036 0346     		mov	r3, r0
 1278 0038 0246     		mov	r2, r0
ARM GAS  C:\Users\EVGENY~1\AppData\Local\Temp\ccpzgcQX.s 			page 38


 1279 003a 0121     		movs	r1, #1
 1280 003c FFF7FEFF 		bl	startUp
 1281              	.LVL169:
 1282              	.L88:
 129:evgenii.c     ****     {
 1283              		.loc 1 129 0
 1284 0040 042C     		cmp	r4, #4
 1285 0042 EBDD     		ble	.L90
 139:evgenii.c     ****     end();
 1286              		.loc 1 139 0
 1287 0044 2146     		mov	r1, r4
 1288 0046 0348     		ldr	r0, .L92
 1289 0048 FFF7FEFF 		bl	printf
 1290              	.LVL170:
 140:evgenii.c     **** }
 1291              		.loc 1 140 0
 1292 004c FFF7FEFF 		bl	end
 1293              	.LVL171:
 141:evgenii.c     **** 
 1294              		.loc 1 141 0
 1295 0050 06B0     		add	sp, sp, #24
 1296              		.cfi_def_cfa_offset 8
 1297              		@ sp needed
 1298 0052 10BD     		pop	{r4, pc}
 1299              	.LVL172:
 1300              	.L93:
 1301              		.align	2
 1302              	.L92:
 1303 0054 B4010000 		.word	.LC17
 1304              		.cfi_endproc
 1305              	.LFE88:
 1306              		.size	week4_1_evg, .-week4_1_evg
 1307              		.section	.text.week4_2_evg,"ax",%progbits
 1308              		.align	2
 1309              		.global	week4_2_evg
 1310              		.thumb
 1311              		.thumb_func
 1312              		.type	week4_2_evg, %function
 1313              	week4_2_evg:
 1314              	.LFB89:
 147:evgenii.c     ****     struct sensors_ dig;
 1315              		.loc 1 147 0
 1316              		.cfi_startproc
 1317              		@ args = 0, pretend = 0, frame = 16
 1318              		@ frame_needed = 0, uses_anonymous_args = 0
 1319 0000 10B5     		push	{r4, lr}
 1320              		.cfi_def_cfa_offset 8
 1321              		.cfi_offset 4, -8
 1322              		.cfi_offset 14, -4
 1323 0002 86B0     		sub	sp, sp, #24
 1324              		.cfi_def_cfa_offset 32
 149:evgenii.c     ****     
 1325              		.loc 1 149 0
 1326 0004 0024     		movs	r4, #0
 1327 0006 0094     		str	r4, [sp]
 1328 0008 0123     		movs	r3, #1
 1329 000a 1A46     		mov	r2, r3
ARM GAS  C:\Users\EVGENY~1\AppData\Local\Temp\ccpzgcQX.s 			page 39


 1330 000c 1946     		mov	r1, r3
 1331 000e 1846     		mov	r0, r3
 1332 0010 FFF7FEFF 		bl	startUp
 1333              	.LVL173:
 151:evgenii.c     ****     driveForward(100,0);
 1334              		.loc 1 151 0
 1335 0014 03A8     		add	r0, sp, #12
 1336 0016 FFF7FEFF 		bl	reflectance_digital
 1337              	.LVL174:
 152:evgenii.c     ****     
 1338              		.loc 1 152 0
 1339 001a 2146     		mov	r1, r4
 1340 001c 6420     		movs	r0, #100
 1341 001e FFF7FEFF 		bl	driveForward
 1342              	.LVL175:
 154:evgenii.c     ****         while(!(dig.L3 == 0 && dig.L2 == 0 && dig.R2 == 0 && dig.R3 == 0))
 1343              		.loc 1 154 0
 1344 0022 03A8     		add	r0, sp, #12
 1345 0024 FFF7FEFF 		bl	reflectance_digital
 1346              	.LVL176:
 155:evgenii.c     ****         {
 1347              		.loc 1 155 0
 1348 0028 06E0     		b	.L95
 1349              	.L96:
 157:evgenii.c     ****              motor_forward(125,0);
 1350              		.loc 1 157 0
 1351 002a 03A8     		add	r0, sp, #12
 1352 002c FFF7FEFF 		bl	reflectance_digital
 1353              	.LVL177:
 158:evgenii.c     ****         }
 1354              		.loc 1 158 0
 1355 0030 0021     		movs	r1, #0
 1356 0032 7D20     		movs	r0, #125
 1357 0034 FFF7FEFF 		bl	motor_forward
 1358              	.LVL178:
 1359              	.L95:
 155:evgenii.c     ****         {
 1360              		.loc 1 155 0
 1361 0038 BDF80C30 		ldrh	r3, [sp, #12]
 1362 003c 002B     		cmp	r3, #0
 1363 003e F4D1     		bne	.L96
 155:evgenii.c     ****         {
 1364              		.loc 1 155 0 is_stmt 0 discriminator 1
 1365 0040 BDF80E30 		ldrh	r3, [sp, #14]
 1366 0044 002B     		cmp	r3, #0
 1367 0046 F0D1     		bne	.L96
 155:evgenii.c     ****         {
 1368              		.loc 1 155 0 discriminator 2
 1369 0048 BDF81430 		ldrh	r3, [sp, #20]
 1370 004c 002B     		cmp	r3, #0
 1371 004e ECD1     		bne	.L96
 155:evgenii.c     ****         {
 1372              		.loc 1 155 0 discriminator 3
 1373 0050 BDF81630 		ldrh	r3, [sp, #22]
 1374 0054 002B     		cmp	r3, #0
 1375 0056 E8D1     		bne	.L96
 160:evgenii.c     ****         while(dig.L3 == 0 && dig.R3 == 0)
ARM GAS  C:\Users\EVGENY~1\AppData\Local\Temp\ccpzgcQX.s 			page 40


 1376              		.loc 1 160 0 is_stmt 1
 1377 0058 03A8     		add	r0, sp, #12
 1378 005a FFF7FEFF 		bl	reflectance_digital
 1379              	.LVL179:
 161:evgenii.c     ****         {
 1380              		.loc 1 161 0
 1381 005e 1FE0     		b	.L97
 1382              	.L101:
 163:evgenii.c     ****             reflectance_digital(&dig); 
 1383              		.loc 1 163 0
 1384 0060 0021     		movs	r1, #0
 1385 0062 3220     		movs	r0, #50
 1386 0064 FFF7FEFF 		bl	motor_forward
 1387              	.LVL180:
 164:evgenii.c     ****             
 1388              		.loc 1 164 0
 1389 0068 03A8     		add	r0, sp, #12
 1390 006a FFF7FEFF 		bl	reflectance_digital
 1391              	.LVL181:
 166:evgenii.c     ****             {   
 1392              		.loc 1 166 0
 1393 006e BDF81430 		ldrh	r3, [sp, #20]
 1394 0072 012B     		cmp	r3, #1
 1395 0074 08D1     		bne	.L98
 168:evgenii.c     ****                 reflectance_digital(&dig); 
 1396              		.loc 1 168 0
 1397 0076 0022     		movs	r2, #0
 1398 0078 1146     		mov	r1, r2
 1399 007a 9620     		movs	r0, #150
 1400 007c FFF7FEFF 		bl	motor_turn
 1401              	.LVL182:
 169:evgenii.c     ****             }else if(dig.L2 == 1)
 1402              		.loc 1 169 0
 1403 0080 03A8     		add	r0, sp, #12
 1404 0082 FFF7FEFF 		bl	reflectance_digital
 1405              	.LVL183:
 1406 0086 0BE0     		b	.L97
 1407              	.L98:
 170:evgenii.c     ****              {   
 1408              		.loc 1 170 0
 1409 0088 BDF80E30 		ldrh	r3, [sp, #14]
 1410 008c 012B     		cmp	r3, #1
 1411 008e 07D1     		bne	.L97
 172:evgenii.c     ****                 reflectance_digital(&dig); 
 1412              		.loc 1 172 0
 1413 0090 0022     		movs	r2, #0
 1414 0092 C821     		movs	r1, #200
 1415 0094 1046     		mov	r0, r2
 1416 0096 FFF7FEFF 		bl	motor_turn
 1417              	.LVL184:
 173:evgenii.c     ****              }
 1418              		.loc 1 173 0
 1419 009a 03A8     		add	r0, sp, #12
 1420 009c FFF7FEFF 		bl	reflectance_digital
 1421              	.LVL185:
 1422              	.L97:
 161:evgenii.c     ****         {
ARM GAS  C:\Users\EVGENY~1\AppData\Local\Temp\ccpzgcQX.s 			page 41


 1423              		.loc 1 161 0
 1424 00a0 BDF80C30 		ldrh	r3, [sp, #12]
 1425 00a4 1BB9     		cbnz	r3, .L100
 161:evgenii.c     ****         {
 1426              		.loc 1 161 0 is_stmt 0 discriminator 1
 1427 00a6 BDF81630 		ldrh	r3, [sp, #22]
 1428 00aa 002B     		cmp	r3, #0
 1429 00ac D8D0     		beq	.L101
 1430              	.L100:
 176:evgenii.c     **** }
 1431              		.loc 1 176 0 is_stmt 1
 1432 00ae FFF7FEFF 		bl	end
 1433              	.LVL186:
 177:evgenii.c     **** //week 4 Exercise 3
 1434              		.loc 1 177 0
 1435 00b2 06B0     		add	sp, sp, #24
 1436              		.cfi_def_cfa_offset 8
 1437              		@ sp needed
 1438 00b4 10BD     		pop	{r4, pc}
 1439              		.cfi_endproc
 1440              	.LFE89:
 1441              		.size	week4_2_evg, .-week4_2_evg
 1442 00b6 00BF     		.section	.text.week4_3_evg,"ax",%progbits
 1443              		.align	2
 1444              		.global	week4_3_evg
 1445              		.thumb
 1446              		.thumb_func
 1447              		.type	week4_3_evg, %function
 1448              	week4_3_evg:
 1449              	.LFB90:
 181:evgenii.c     ****     uint32_t count = 0;
 1450              		.loc 1 181 0
 1451              		.cfi_startproc
 1452              		@ args = 0, pretend = 0, frame = 16
 1453              		@ frame_needed = 0, uses_anonymous_args = 0
 1454 0000 10B5     		push	{r4, lr}
 1455              		.cfi_def_cfa_offset 8
 1456              		.cfi_offset 4, -8
 1457              		.cfi_offset 14, -4
 1458 0002 86B0     		sub	sp, sp, #24
 1459              		.cfi_def_cfa_offset 32
 1460              	.LVL187:
 185:evgenii.c     **** 
 1461              		.loc 1 185 0
 1462 0004 0024     		movs	r4, #0
 1463 0006 0094     		str	r4, [sp]
 1464 0008 0123     		movs	r3, #1
 1465 000a 1A46     		mov	r2, r3
 1466 000c 2146     		mov	r1, r4
 1467 000e 1846     		mov	r0, r3
 1468 0010 FFF7FEFF 		bl	startUp
 1469              	.LVL188:
 187:evgenii.c     ****     while(count<5) 
 1470              		.loc 1 187 0
 1471 0014 03A8     		add	r0, sp, #12
 1472 0016 FFF7FEFF 		bl	reflectance_digital
 1473              	.LVL189:
ARM GAS  C:\Users\EVGENY~1\AppData\Local\Temp\ccpzgcQX.s 			page 42


 188:evgenii.c     ****     {
 1474              		.loc 1 188 0
 1475 001a 84E0     		b	.L104
 1476              	.LVL190:
 1477              	.L115:
 190:evgenii.c     ****         count++;
 1478              		.loc 1 190 0
 1479 001c 0021     		movs	r1, #0
 1480 001e 6420     		movs	r0, #100
 1481 0020 FFF7FEFF 		bl	driveForward
 1482              	.LVL191:
 191:evgenii.c     ****         printf("one loop, %lu lines passed by\n", count);
 1483              		.loc 1 191 0
 1484 0024 0134     		adds	r4, r4, #1
 1485              	.LVL192:
 192:evgenii.c     ****         reflectance_digital(&dig);
 1486              		.loc 1 192 0
 1487 0026 2146     		mov	r1, r4
 1488 0028 4248     		ldr	r0, .L119
 1489 002a FFF7FEFF 		bl	printf
 1490              	.LVL193:
 193:evgenii.c     ****         // wait on first line
 1491              		.loc 1 193 0
 1492 002e 03A8     		add	r0, sp, #12
 1493 0030 FFF7FEFF 		bl	reflectance_digital
 1494              	.LVL194:
 195:evgenii.c     ****         {
 1495              		.loc 1 195 0
 1496 0034 012C     		cmp	r4, #1
 1497 0036 0BD1     		bne	.L105
 197:evgenii.c     ****             startUp(0,1,0,0, 0);
 1498              		.loc 1 197 0
 1499 0038 0021     		movs	r1, #0
 1500 003a 0846     		mov	r0, r1
 1501 003c FFF7FEFF 		bl	motor_forward
 1502              	.LVL195:
 198:evgenii.c     ****         } else if(count == 2) 
 1503              		.loc 1 198 0
 1504 0040 0020     		movs	r0, #0
 1505 0042 0090     		str	r0, [sp]
 1506 0044 0346     		mov	r3, r0
 1507 0046 0246     		mov	r2, r0
 1508 0048 0121     		movs	r1, #1
 1509 004a FFF7FEFF 		bl	startUp
 1510              	.LVL196:
 1511 004e 6AE0     		b	.L104
 1512              	.L105:
 199:evgenii.c     ****           {
 1513              		.loc 1 199 0
 1514 0050 022C     		cmp	r4, #2
 1515 0052 21D1     		bne	.L116
 1516 0054 07E0     		b	.L107
 1517              	.L109:
 204:evgenii.c     ****                     reflectance_digital(&dig);
 1518              		.loc 1 204 0
 1519 0056 3222     		movs	r2, #50
 1520 0058 FA21     		movs	r1, #250
ARM GAS  C:\Users\EVGENY~1\AppData\Local\Temp\ccpzgcQX.s 			page 43


 1521 005a 0420     		movs	r0, #4
 1522 005c FFF7FEFF 		bl	motor_turn
 1523              	.LVL197:
 205:evgenii.c     ****               }
 1524              		.loc 1 205 0
 1525 0060 03A8     		add	r0, sp, #12
 1526 0062 FFF7FEFF 		bl	reflectance_digital
 1527              	.LVL198:
 1528              	.L107:
 202:evgenii.c     ****               {
 1529              		.loc 1 202 0
 1530 0066 BDF80C30 		ldrh	r3, [sp, #12]
 1531 006a 002B     		cmp	r3, #0
 1532 006c F3D1     		bne	.L109
 202:evgenii.c     ****               {
 1533              		.loc 1 202 0 is_stmt 0 discriminator 1
 1534 006e BDF80E30 		ldrh	r3, [sp, #14]
 1535 0072 002B     		cmp	r3, #0
 1536 0074 EFD1     		bne	.L109
 202:evgenii.c     ****               {
 1537              		.loc 1 202 0 discriminator 2
 1538 0076 BDF81030 		ldrh	r3, [sp, #16]
 1539 007a 012B     		cmp	r3, #1
 1540 007c EBD1     		bne	.L109
 202:evgenii.c     ****               {
 1541              		.loc 1 202 0 discriminator 3
 1542 007e BDF81230 		ldrh	r3, [sp, #18]
 1543 0082 012B     		cmp	r3, #1
 1544 0084 E7D1     		bne	.L109
 202:evgenii.c     ****               {
 1545              		.loc 1 202 0 discriminator 4
 1546 0086 BDF81430 		ldrh	r3, [sp, #20]
 1547 008a 002B     		cmp	r3, #0
 1548 008c E3D1     		bne	.L109
 202:evgenii.c     ****               {
 1549              		.loc 1 202 0 discriminator 5
 1550 008e BDF81630 		ldrh	r3, [sp, #22]
 1551 0092 002B     		cmp	r3, #0
 1552 0094 DFD1     		bne	.L109
 1553 0096 46E0     		b	.L104
 1554              	.L116:
 207:evgenii.c     ****           {
 1555              		.loc 1 207 0 is_stmt 1
 1556 0098 032C     		cmp	r4, #3
 1557 009a 21D1     		bne	.L117
 1558 009c 07E0     		b	.L110
 1559              	.L112:
 212:evgenii.c     ****                 reflectance_digital(&dig);
 1560              		.loc 1 212 0
 1561 009e 4622     		movs	r2, #70
 1562 00a0 0A21     		movs	r1, #10
 1563 00a2 E620     		movs	r0, #230
 1564 00a4 FFF7FEFF 		bl	motor_turn
 1565              	.LVL199:
 213:evgenii.c     ****             }
 1566              		.loc 1 213 0
 1567 00a8 03A8     		add	r0, sp, #12
ARM GAS  C:\Users\EVGENY~1\AppData\Local\Temp\ccpzgcQX.s 			page 44


 1568 00aa FFF7FEFF 		bl	reflectance_digital
 1569              	.LVL200:
 1570              	.L110:
 210:evgenii.c     ****             {
 1571              		.loc 1 210 0
 1572 00ae BDF80C30 		ldrh	r3, [sp, #12]
 1573 00b2 002B     		cmp	r3, #0
 1574 00b4 F3D1     		bne	.L112
 210:evgenii.c     ****             {
 1575              		.loc 1 210 0 is_stmt 0 discriminator 1
 1576 00b6 BDF80E30 		ldrh	r3, [sp, #14]
 1577 00ba 002B     		cmp	r3, #0
 1578 00bc EFD1     		bne	.L112
 210:evgenii.c     ****             {
 1579              		.loc 1 210 0 discriminator 2
 1580 00be BDF81030 		ldrh	r3, [sp, #16]
 1581 00c2 012B     		cmp	r3, #1
 1582 00c4 EBD1     		bne	.L112
 210:evgenii.c     ****             {
 1583              		.loc 1 210 0 discriminator 3
 1584 00c6 BDF81230 		ldrh	r3, [sp, #18]
 1585 00ca 012B     		cmp	r3, #1
 1586 00cc E7D1     		bne	.L112
 210:evgenii.c     ****             {
 1587              		.loc 1 210 0 discriminator 4
 1588 00ce BDF81430 		ldrh	r3, [sp, #20]
 1589 00d2 002B     		cmp	r3, #0
 1590 00d4 E3D1     		bne	.L112
 210:evgenii.c     ****             {
 1591              		.loc 1 210 0 discriminator 5
 1592 00d6 BDF81630 		ldrh	r3, [sp, #22]
 1593 00da 002B     		cmp	r3, #0
 1594 00dc DFD1     		bne	.L112
 1595 00de 22E0     		b	.L104
 1596              	.L117:
 215:evgenii.c     ****           {
 1597              		.loc 1 215 0 is_stmt 1
 1598 00e0 042C     		cmp	r4, #4
 1599 00e2 20D1     		bne	.L104
 1600 00e4 07E0     		b	.L113
 1601              	.L114:
 220:evgenii.c     ****                 reflectance_digital(&dig);
 1602              		.loc 1 220 0
 1603 00e6 3222     		movs	r2, #50
 1604 00e8 0A21     		movs	r1, #10
 1605 00ea E620     		movs	r0, #230
 1606 00ec FFF7FEFF 		bl	motor_turn
 1607              	.LVL201:
 221:evgenii.c     ****             }
 1608              		.loc 1 221 0
 1609 00f0 03A8     		add	r0, sp, #12
 1610 00f2 FFF7FEFF 		bl	reflectance_digital
 1611              	.LVL202:
 1612              	.L113:
 218:evgenii.c     ****             {
 1613              		.loc 1 218 0
 1614 00f6 BDF80C30 		ldrh	r3, [sp, #12]
ARM GAS  C:\Users\EVGENY~1\AppData\Local\Temp\ccpzgcQX.s 			page 45


 1615 00fa 002B     		cmp	r3, #0
 1616 00fc F3D1     		bne	.L114
 218:evgenii.c     ****             {
 1617              		.loc 1 218 0 is_stmt 0 discriminator 1
 1618 00fe BDF80E30 		ldrh	r3, [sp, #14]
 1619 0102 002B     		cmp	r3, #0
 1620 0104 EFD1     		bne	.L114
 218:evgenii.c     ****             {
 1621              		.loc 1 218 0 discriminator 2
 1622 0106 BDF81030 		ldrh	r3, [sp, #16]
 1623 010a 012B     		cmp	r3, #1
 1624 010c EBD1     		bne	.L114
 218:evgenii.c     ****             {
 1625              		.loc 1 218 0 discriminator 3
 1626 010e BDF81230 		ldrh	r3, [sp, #18]
 1627 0112 012B     		cmp	r3, #1
 1628 0114 E7D1     		bne	.L114
 218:evgenii.c     ****             {
 1629              		.loc 1 218 0 discriminator 4
 1630 0116 BDF81430 		ldrh	r3, [sp, #20]
 1631 011a 002B     		cmp	r3, #0
 1632 011c E3D1     		bne	.L114
 218:evgenii.c     ****             {
 1633              		.loc 1 218 0 discriminator 5
 1634 011e BDF81630 		ldrh	r3, [sp, #22]
 1635 0122 002B     		cmp	r3, #0
 1636 0124 DFD1     		bne	.L114
 1637              	.LVL203:
 1638              	.L104:
 188:evgenii.c     ****     {
 1639              		.loc 1 188 0 is_stmt 1
 1640 0126 042C     		cmp	r4, #4
 1641 0128 7FF678AF 		bls	.L115
 225:evgenii.c     **** }
 1642              		.loc 1 225 0
 1643 012c FFF7FEFF 		bl	end
 1644              	.LVL204:
 226:evgenii.c     **** 
 1645              		.loc 1 226 0
 1646 0130 06B0     		add	sp, sp, #24
 1647              		.cfi_def_cfa_offset 8
 1648              		@ sp needed
 1649 0132 10BD     		pop	{r4, pc}
 1650              	.LVL205:
 1651              	.L120:
 1652              		.align	2
 1653              	.L119:
 1654 0134 CC010000 		.word	.LC18
 1655              		.cfi_endproc
 1656              	.LFE90:
 1657              		.size	week4_3_evg, .-week4_3_evg
 1658              		.section	.text.week5_3_evg,"ax",%progbits
 1659              		.align	2
 1660              		.global	week5_3_evg
 1661              		.thumb
 1662              		.thumb_func
 1663              		.type	week5_3_evg, %function
ARM GAS  C:\Users\EVGENY~1\AppData\Local\Temp\ccpzgcQX.s 			page 46


 1664              	week5_3_evg:
 1665              	.LFB93:
 282:evgenii.c     ****     int lines=0;
 1666              		.loc 1 282 0
 1667              		.cfi_startproc
 1668              		@ args = 0, pretend = 0, frame = 0
 1669              		@ frame_needed = 0, uses_anonymous_args = 0
 1670 0000 30B5     		push	{r4, r5, lr}
 1671              		.cfi_def_cfa_offset 12
 1672              		.cfi_offset 4, -12
 1673              		.cfi_offset 5, -8
 1674              		.cfi_offset 14, -4
 1675 0002 83B0     		sub	sp, sp, #12
 1676              		.cfi_def_cfa_offset 24
 1677              	.LVL206:
 286:evgenii.c     ****     
 1678              		.loc 1 286 0
 1679 0004 0024     		movs	r4, #0
 1680 0006 0094     		str	r4, [sp]
 1681 0008 2346     		mov	r3, r4
 1682 000a 0122     		movs	r2, #1
 1683 000c 1146     		mov	r1, r2
 1684 000e 1046     		mov	r0, r2
 1685 0010 FFF7FEFF 		bl	startUp
 1686              	.LVL207:
 288:evgenii.c     ****     IR_wait();
 1687              		.loc 1 288 0
 1688 0014 2146     		mov	r1, r4
 1689 0016 6420     		movs	r0, #100
 1690 0018 FFF7FEFF 		bl	driveForward
 1691              	.LVL208:
 289:evgenii.c     ****     irPressed = xTaskGetTickCount();
 1692              		.loc 1 289 0
 1693 001c FFF7FEFF 		bl	IR_wait
 1694              	.LVL209:
 290:evgenii.c     ****     
 1695              		.loc 1 290 0
 1696 0020 FFF7FEFF 		bl	xTaskGetTickCount
 1697              	.LVL210:
 1698 0024 0546     		mov	r5, r0
 1699              	.LVL211:
 293:evgenii.c     ****     driveForward(150,0);
 1700              		.loc 1 293 0
 1701 0026 04E0     		b	.L122
 1702              	.LVL212:
 1703              	.L123:
 294:evgenii.c     ****     lines++;
 1704              		.loc 1 294 0
 1705 0028 0021     		movs	r1, #0
 1706 002a 9620     		movs	r0, #150
 1707 002c FFF7FEFF 		bl	driveForward
 1708              	.LVL213:
 295:evgenii.c     ****     }
 1709              		.loc 1 295 0
 1710 0030 0134     		adds	r4, r4, #1
 1711              	.LVL214:
 1712              	.L122:
ARM GAS  C:\Users\EVGENY~1\AppData\Local\Temp\ccpzgcQX.s 			page 47


 293:evgenii.c     ****     driveForward(150,0);
 1713              		.loc 1 293 0
 1714 0032 002C     		cmp	r4, #0
 1715 0034 F8DD     		ble	.L123
 298:evgenii.c     ****     elapsed = lineReached-irPressed;
 1716              		.loc 1 298 0
 1717 0036 FFF7FEFF 		bl	xTaskGetTickCount
 1718              	.LVL215:
 300:evgenii.c     ****     
 1719              		.loc 1 300 0
 1720 003a 421B     		subs	r2, r0, r5
 1721              	.LVL216:
 1722 003c 0349     		ldr	r1, .L125
 1723 003e 0448     		ldr	r0, .L125+4
 1724              	.LVL217:
 1725 0040 FFF7FEFF 		bl	print_mqtt
 1726              	.LVL218:
 302:evgenii.c     **** }
 1727              		.loc 1 302 0
 1728 0044 FFF7FEFF 		bl	end
 1729              	.LVL219:
 303:evgenii.c     **** 
 1730              		.loc 1 303 0
 1731 0048 03B0     		add	sp, sp, #12
 1732              		.cfi_def_cfa_offset 12
 1733              		@ sp needed
 1734 004a 30BD     		pop	{r4, r5, pc}
 1735              	.LVL220:
 1736              	.L126:
 1737              		.align	2
 1738              	.L125:
 1739 004c EC010000 		.word	.LC19
 1740 0050 00020000 		.word	.LC20
 1741              		.cfi_endproc
 1742              	.LFE93:
 1743              		.size	week5_3_evg, .-week5_3_evg
 1744              		.section	.text.line_follower,"ax",%progbits
 1745              		.align	2
 1746              		.global	line_follower
 1747              		.thumb
 1748              		.thumb_func
 1749              		.type	line_follower, %function
 1750              	line_follower:
 1751              	.LFB95:
 349:evgenii.c     ****    int lines=0;
 1752              		.loc 1 349 0
 1753              		.cfi_startproc
 1754              		@ args = 0, pretend = 0, frame = 16
 1755              		@ frame_needed = 0, uses_anonymous_args = 0
 1756 0000 30B5     		push	{r4, r5, lr}
 1757              		.cfi_def_cfa_offset 12
 1758              		.cfi_offset 4, -12
 1759              		.cfi_offset 5, -8
 1760              		.cfi_offset 14, -4
 1761 0002 87B0     		sub	sp, sp, #28
 1762              		.cfi_def_cfa_offset 40
 1763              	.LVL221:
ARM GAS  C:\Users\EVGENY~1\AppData\Local\Temp\ccpzgcQX.s 			page 48


 354:evgenii.c     ****    
 1764              		.loc 1 354 0
 1765 0004 0024     		movs	r4, #0
 1766 0006 0094     		str	r4, [sp]
 1767 0008 2346     		mov	r3, r4
 1768 000a 0122     		movs	r2, #1
 1769 000c 1146     		mov	r1, r2
 1770 000e 1046     		mov	r0, r2
 1771 0010 FFF7FEFF 		bl	startUp
 1772              	.LVL222:
 356:evgenii.c     ****    IR_wait();  
 1773              		.loc 1 356 0
 1774 0014 1749     		ldr	r1, .L132
 1775 0016 1848     		ldr	r0, .L132+4
 1776 0018 FFF7FEFF 		bl	print_mqtt
 1777              	.LVL223:
 357:evgenii.c     ****     while(lines<3)
 1778              		.loc 1 357 0
 1779 001c FFF7FEFF 		bl	IR_wait
 1780              	.LVL224:
 352:evgenii.c     ****     
 1781              		.loc 1 352 0
 1782 0020 2546     		mov	r5, r4
 358:evgenii.c     ****     {
 1783              		.loc 1 358 0
 1784 0022 1DE0     		b	.L128
 1785              	.LVL225:
 1786              	.L130:
 360:evgenii.c     ****         driveForward(100,0);
 1787              		.loc 1 360 0
 1788 0024 03A8     		add	r0, sp, #12
 1789 0026 FFF7FEFF 		bl	reflectance_digital
 1790              	.LVL226:
 361:evgenii.c     ****         lines++;
 1791              		.loc 1 361 0
 1792 002a 0021     		movs	r1, #0
 1793 002c 6420     		movs	r0, #100
 1794 002e FFF7FEFF 		bl	driveForward
 1795              	.LVL227:
 362:evgenii.c     ****         if (lines == 1)
 1796              		.loc 1 362 0
 1797 0032 0134     		adds	r4, r4, #1
 1798              	.LVL228:
 363:evgenii.c     ****         {
 1799              		.loc 1 363 0
 1800 0034 012C     		cmp	r4, #1
 1801 0036 13D1     		bne	.L128
 365:evgenii.c     ****             print_mqtt(READY_TOPIC, "line");
 1802              		.loc 1 365 0
 1803 0038 0021     		movs	r1, #0
 1804 003a 0846     		mov	r0, r1
 1805 003c FFF7FEFF 		bl	motor_forward
 1806              	.LVL229:
 366:evgenii.c     ****             IR_flush();
 1807              		.loc 1 366 0
 1808 0040 0E49     		ldr	r1, .L132+8
 1809 0042 0D48     		ldr	r0, .L132+4
ARM GAS  C:\Users\EVGENY~1\AppData\Local\Temp\ccpzgcQX.s 			page 49


 1810 0044 FFF7FEFF 		bl	print_mqtt
 1811              	.LVL230:
 367:evgenii.c     ****             IR_wait(); 
 1812              		.loc 1 367 0
 1813 0048 FFF7FEFF 		bl	IR_flush
 1814              	.LVL231:
 368:evgenii.c     ****             startTime = xTaskGetTickCount();
 1815              		.loc 1 368 0
 1816 004c FFF7FEFF 		bl	IR_wait
 1817              	.LVL232:
 369:evgenii.c     ****             print_mqtt(START_TOPIC, " %i", startTime);
 1818              		.loc 1 369 0
 1819 0050 FFF7FEFF 		bl	xTaskGetTickCount
 1820              	.LVL233:
 1821 0054 0546     		mov	r5, r0
 1822              	.LVL234:
 370:evgenii.c     ****         }
 1823              		.loc 1 370 0
 1824 0056 0246     		mov	r2, r0
 1825 0058 0949     		ldr	r1, .L132+12
 1826 005a 0A48     		ldr	r0, .L132+16
 1827              	.LVL235:
 1828 005c FFF7FEFF 		bl	print_mqtt
 1829              	.LVL236:
 1830              	.L128:
 358:evgenii.c     ****     {
 1831              		.loc 1 358 0
 1832 0060 022C     		cmp	r4, #2
 1833 0062 DFDD     		ble	.L130
 374:evgenii.c     ****     end_mqtt(startTime, stopTime);
 1834              		.loc 1 374 0
 1835 0064 FFF7FEFF 		bl	xTaskGetTickCount
 1836              	.LVL237:
 375:evgenii.c     **** }
 1837              		.loc 1 375 0
 1838 0068 0146     		mov	r1, r0
 1839 006a 2846     		mov	r0, r5
 1840              	.LVL238:
 1841 006c FFF7FEFF 		bl	end_mqtt
 1842              	.LVL239:
 376:evgenii.c     **** 
 1843              		.loc 1 376 0
 1844 0070 07B0     		add	sp, sp, #28
 1845              		.cfi_def_cfa_offset 12
 1846              		@ sp needed
 1847 0072 30BD     		pop	{r4, r5, pc}
 1848              	.LVL240:
 1849              	.L133:
 1850              		.align	2
 1851              	.L132:
 1852 0074 0C020000 		.word	.LC21
 1853 0078 14020000 		.word	.LC22
 1854 007c 24020000 		.word	.LC23
 1855 0080 2C020000 		.word	.LC24
 1856 0084 30020000 		.word	.LC25
 1857              		.cfi_endproc
 1858              	.LFE95:
ARM GAS  C:\Users\EVGENY~1\AppData\Local\Temp\ccpzgcQX.s 			page 50


 1859              		.size	line_follower, .-line_follower
 1860              		.section	.text.sumo_wrestling,"ax",%progbits
 1861              		.align	2
 1862              		.global	sumo_wrestling
 1863              		.thumb
 1864              		.thumb_func
 1865              		.type	sumo_wrestling, %function
 1866              	sumo_wrestling:
 1867              	.LFB94:
 310:evgenii.c     ****     struct sensors_ dig;
 1868              		.loc 1 310 0
 1869              		.cfi_startproc
 1870              		@ args = 0, pretend = 0, frame = 16
 1871              		@ frame_needed = 0, uses_anonymous_args = 0
 1872 0000 30B5     		push	{r4, r5, lr}
 1873              		.cfi_def_cfa_offset 12
 1874              		.cfi_offset 4, -12
 1875              		.cfi_offset 5, -8
 1876              		.cfi_offset 14, -4
 1877 0002 87B0     		sub	sp, sp, #28
 1878              		.cfi_def_cfa_offset 40
 1879              	.LVL241:
 314:evgenii.c     ****     
 1880              		.loc 1 314 0
 1881 0004 0120     		movs	r0, #1
 1882 0006 0090     		str	r0, [sp]
 1883 0008 0023     		movs	r3, #0
 1884 000a 0246     		mov	r2, r0
 1885 000c 0146     		mov	r1, r0
 1886 000e FFF7FEFF 		bl	startUp
 1887              	.LVL242:
 316:evgenii.c     ****     reflectance_digital(&dig); 
 1888              		.loc 1 316 0
 1889 0012 FFF7FEFF 		bl	IR_wait
 1890              	.LVL243:
 317:evgenii.c     ****     driveForward(255,0);
 1891              		.loc 1 317 0
 1892 0016 03A8     		add	r0, sp, #12
 1893 0018 FFF7FEFF 		bl	reflectance_digital
 1894              	.LVL244:
 318:evgenii.c     ****     print_mqtt(READY_TOPIC, "zumo");
 1895              		.loc 1 318 0
 1896 001c 0021     		movs	r1, #0
 1897 001e FF20     		movs	r0, #255
 1898 0020 FFF7FEFF 		bl	driveForward
 1899              	.LVL245:
 319:evgenii.c     ****     IR_flush();
 1900              		.loc 1 319 0
 1901 0024 3449     		ldr	r1, .L147
 1902 0026 3548     		ldr	r0, .L147+4
 1903 0028 FFF7FEFF 		bl	print_mqtt
 1904              	.LVL246:
 320:evgenii.c     ****     IR_wait();
 1905              		.loc 1 320 0
 1906 002c FFF7FEFF 		bl	IR_flush
 1907              	.LVL247:
 321:evgenii.c     ****     motor_forward(100,100);
ARM GAS  C:\Users\EVGENY~1\AppData\Local\Temp\ccpzgcQX.s 			page 51


 1908              		.loc 1 321 0
 1909 0030 FFF7FEFF 		bl	IR_wait
 1910              	.LVL248:
 322:evgenii.c     ****     startTime = xTaskGetTickCount();
 1911              		.loc 1 322 0
 1912 0034 6421     		movs	r1, #100
 1913 0036 0846     		mov	r0, r1
 1914 0038 FFF7FEFF 		bl	motor_forward
 1915              	.LVL249:
 323:evgenii.c     ****     print_mqtt(START_TOPIC, " %lu", startTime);
 1916              		.loc 1 323 0
 1917 003c FFF7FEFF 		bl	xTaskGetTickCount
 1918              	.LVL250:
 1919 0040 0546     		mov	r5, r0
 1920              	.LVL251:
 324:evgenii.c     ****     while(SW1_Read() == RELEASED)
 1921              		.loc 1 324 0
 1922 0042 0246     		mov	r2, r0
 1923 0044 2E49     		ldr	r1, .L147+8
 1924 0046 2F48     		ldr	r0, .L147+12
 1925              	.LVL252:
 1926 0048 FFF7FEFF 		bl	print_mqtt
 1927              	.LVL253:
 325:evgenii.c     ****     {
 1928              		.loc 1 325 0
 1929 004c 47E0     		b	.L135
 1930              	.LVL254:
 1931              	.L145:
 1932              	.LBB4:
 327:evgenii.c     ****         if (Ultra_GetDistance()<3)
 1933              		.loc 1 327 0
 1934 004e B421     		movs	r1, #180
 1935 0050 2D20     		movs	r0, #45
 1936 0052 FFF7FEFF 		bl	randomEvg
 1937              	.LVL255:
 1938 0056 0446     		mov	r4, r0
 1939              	.LVL256:
 328:evgenii.c     ****         {
 1940              		.loc 1 328 0
 1941 0058 FFF7FEFF 		bl	Ultra_GetDistance
 1942              	.LVL257:
 1943 005c 0228     		cmp	r0, #2
 1944 005e 19DC     		bgt	.L136
 330:evgenii.c     ****             print_mqtt(OBST_TOPIC, " %lu", obst);
 1945              		.loc 1 330 0
 1946 0060 FFF7FEFF 		bl	xTaskGetTickCount
 1947              	.LVL258:
 331:evgenii.c     ****             motor_forward(0,0);
 1948              		.loc 1 331 0
 1949 0064 0246     		mov	r2, r0
 1950 0066 2649     		ldr	r1, .L147+8
 1951 0068 2748     		ldr	r0, .L147+16
 1952              	.LVL259:
 1953 006a FFF7FEFF 		bl	print_mqtt
 1954              	.LVL260:
 332:evgenii.c     ****             tankTurnEvg(angle%2 == 1 ? -angle : angle);
 1955              		.loc 1 332 0
ARM GAS  C:\Users\EVGENY~1\AppData\Local\Temp\ccpzgcQX.s 			page 52


 1956 006e 0021     		movs	r1, #0
 1957 0070 0846     		mov	r0, r1
 1958 0072 FFF7FEFF 		bl	motor_forward
 1959              	.LVL261:
 333:evgenii.c     ****         } 
 1960              		.loc 1 333 0
 1961 0076 254B     		ldr	r3, .L147+20
 1962 0078 2340     		ands	r3, r4, r3
 1963 007a 03D5     		bpl	.L137
 1964 007c 013B     		subs	r3, r3, #1
 1965 007e 63F00103 		orn	r3, r3, #1
 1966 0082 0133     		adds	r3, r3, #1
 1967              	.L137:
 1968 0084 012B     		cmp	r3, #1
 1969 0086 02D1     		bne	.L138
 333:evgenii.c     ****         } 
 1970              		.loc 1 333 0 is_stmt 0 discriminator 1
 1971 0088 6042     		negs	r0, r4
 1972 008a 00B2     		sxth	r0, r0
 1973 008c 00E0     		b	.L139
 1974              	.L138:
 333:evgenii.c     ****         } 
 1975              		.loc 1 333 0 discriminator 2
 1976 008e 20B2     		sxth	r0, r4
 1977              	.L139:
 333:evgenii.c     ****         } 
 1978              		.loc 1 333 0 discriminator 4
 1979 0090 FFF7FEFF 		bl	tankTurnEvg
 1980              	.LVL262:
 1981              	.L136:
 335:evgenii.c     ****         while (sense(dig) > 0)
 1982              		.loc 1 335 0 is_stmt 1
 1983 0094 03A8     		add	r0, sp, #12
 1984 0096 FFF7FEFF 		bl	reflectance_digital
 1985              	.LVL263:
 336:evgenii.c     ****         {   
 1986              		.loc 1 336 0
 1987 009a 15E0     		b	.L140
 1988              	.L144:
 338:evgenii.c     ****             tankTurnEvg(angle%2 == 1 ? -angle : angle);
 1989              		.loc 1 338 0
 1990 009c 0021     		movs	r1, #0
 1991 009e 0846     		mov	r0, r1
 1992 00a0 FFF7FEFF 		bl	motor_forward
 1993              	.LVL264:
 339:evgenii.c     ****             reflectance_digital(&dig); 
 1994              		.loc 1 339 0
 1995 00a4 194B     		ldr	r3, .L147+20
 1996 00a6 2340     		ands	r3, r4, r3
 1997 00a8 03D5     		bpl	.L141
 1998 00aa 013B     		subs	r3, r3, #1
 1999 00ac 63F00103 		orn	r3, r3, #1
 2000 00b0 0133     		adds	r3, r3, #1
 2001              	.L141:
 2002 00b2 012B     		cmp	r3, #1
 2003 00b4 02D1     		bne	.L142
 339:evgenii.c     ****             reflectance_digital(&dig); 
ARM GAS  C:\Users\EVGENY~1\AppData\Local\Temp\ccpzgcQX.s 			page 53


 2004              		.loc 1 339 0 is_stmt 0 discriminator 1
 2005 00b6 6042     		negs	r0, r4
 2006 00b8 00B2     		sxth	r0, r0
 2007 00ba 00E0     		b	.L143
 2008              	.L142:
 339:evgenii.c     ****             reflectance_digital(&dig); 
 2009              		.loc 1 339 0 discriminator 2
 2010 00bc 20B2     		sxth	r0, r4
 2011              	.L143:
 339:evgenii.c     ****             reflectance_digital(&dig); 
 2012              		.loc 1 339 0 discriminator 4
 2013 00be FFF7FEFF 		bl	tankTurnEvg
 2014              	.LVL265:
 340:evgenii.c     ****         }
 2015              		.loc 1 340 0 is_stmt 1 discriminator 4
 2016 00c2 03A8     		add	r0, sp, #12
 2017 00c4 FFF7FEFF 		bl	reflectance_digital
 2018              	.LVL266:
 2019              	.L140:
 336:evgenii.c     ****         {   
 2020              		.loc 1 336 0
 2021 00c8 06AB     		add	r3, sp, #24
 2022 00ca 13E90700 		ldmdb	r3, {r0, r1, r2}
 2023 00ce FFF7FEFF 		bl	sense
 2024              	.LVL267:
 2025 00d2 0028     		cmp	r0, #0
 2026 00d4 E2D1     		bne	.L144
 342:evgenii.c     ****     }
 2027              		.loc 1 342 0
 2028 00d6 0021     		movs	r1, #0
 2029 00d8 FA20     		movs	r0, #250
 2030 00da FFF7FEFF 		bl	motor_forward
 2031              	.LVL268:
 2032              	.L135:
 2033              	.LBE4:
 325:evgenii.c     ****     {
 2034              		.loc 1 325 0
 2035 00de FFF7FEFF 		bl	SW1_Read
 2036              	.LVL269:
 2037 00e2 0128     		cmp	r0, #1
 2038 00e4 B3D0     		beq	.L145
 344:evgenii.c     ****     end_mqtt(startTime, stopTime);
 2039              		.loc 1 344 0
 2040 00e6 FFF7FEFF 		bl	xTaskGetTickCount
 2041              	.LVL270:
 345:evgenii.c     **** }
 2042              		.loc 1 345 0
 2043 00ea 0146     		mov	r1, r0
 2044 00ec 2846     		mov	r0, r5
 2045              	.LVL271:
 2046 00ee FFF7FEFF 		bl	end_mqtt
 2047              	.LVL272:
 346:evgenii.c     **** 
 2048              		.loc 1 346 0
 2049 00f2 07B0     		add	sp, sp, #28
 2050              		.cfi_def_cfa_offset 12
 2051              		@ sp needed
ARM GAS  C:\Users\EVGENY~1\AppData\Local\Temp\ccpzgcQX.s 			page 54


 2052 00f4 30BD     		pop	{r4, r5, pc}
 2053              	.LVL273:
 2054              	.L148:
 2055 00f6 00BF     		.align	2
 2056              	.L147:
 2057 00f8 0C020000 		.word	.LC21
 2058 00fc 14020000 		.word	.LC22
 2059 0100 28010000 		.word	.LC9
 2060 0104 30020000 		.word	.LC25
 2061 0108 40020000 		.word	.LC26
 2062 010c 01000080 		.word	-2147483647
 2063              		.cfi_endproc
 2064              	.LFE94:
 2065              		.size	sumo_wrestling, .-sumo_wrestling
 2066              		.section	.text.driveThruMaze,"ax",%progbits
 2067              		.align	2
 2068              		.global	driveThruMaze
 2069              		.thumb
 2070              		.thumb_func
 2071              		.type	driveThruMaze, %function
 2072              	driveThruMaze:
 2073              	.LFB98:
 587:evgenii.c     ****     
 2074              		.loc 1 587 0
 2075              		.cfi_startproc
 2076              		@ args = 0, pretend = 0, frame = 16
 2077              		@ frame_needed = 0, uses_anonymous_args = 0
 2078              	.LVL274:
 2079 0000 30B5     		push	{r4, r5, lr}
 2080              		.cfi_def_cfa_offset 12
 2081              		.cfi_offset 4, -12
 2082              		.cfi_offset 5, -8
 2083              		.cfi_offset 14, -4
 2084 0002 85B0     		sub	sp, sp, #20
 2085              		.cfi_def_cfa_offset 32
 2086 0004 0446     		mov	r4, r0
 2087 0006 0D46     		mov	r5, r1
 591:evgenii.c     ****     
 2088              		.loc 1 591 0
 2089 0008 01A8     		add	r0, sp, #4
 2090              	.LVL275:
 2091 000a FFF7FEFF 		bl	reflectance_digital
 2092              	.LVL276:
 594:evgenii.c     ****     {
 2093              		.loc 1 594 0
 2094 000e 24E0     		b	.L150
 2095              	.L152:
 598:evgenii.c     ****             reflectance_digital(&dig); 
 2096              		.loc 1 598 0
 2097 0010 2946     		mov	r1, r5
 2098 0012 2046     		mov	r0, r4
 2099 0014 FFF7FEFF 		bl	turnRight
 2100              	.LVL277:
 599:evgenii.c     ****         } 
 2101              		.loc 1 599 0
 2102 0018 01A8     		add	r0, sp, #4
 2103 001a FFF7FEFF 		bl	reflectance_digital
ARM GAS  C:\Users\EVGENY~1\AppData\Local\Temp\ccpzgcQX.s 			page 55


 2104              	.LVL278:
 2105              	.L155:
 596:evgenii.c     ****         {
 2106              		.loc 1 596 0
 2107 001e BDF80830 		ldrh	r3, [sp, #8]
 2108 0022 5BB9     		cbnz	r3, .L151
 596:evgenii.c     ****         {
 2109              		.loc 1 596 0 is_stmt 0 discriminator 1
 2110 0024 BDF80A30 		ldrh	r3, [sp, #10]
 2111 0028 012B     		cmp	r3, #1
 2112 002a F1D0     		beq	.L152
 2113 002c 06E0     		b	.L151
 2114              	.L154:
 603:evgenii.c     ****             reflectance_digital(&dig); 
 2115              		.loc 1 603 0 is_stmt 1
 2116 002e 2946     		mov	r1, r5
 2117 0030 2046     		mov	r0, r4
 2118 0032 FFF7FEFF 		bl	turnLeft
 2119              	.LVL279:
 604:evgenii.c     ****         }
 2120              		.loc 1 604 0
 2121 0036 01A8     		add	r0, sp, #4
 2122 0038 FFF7FEFF 		bl	reflectance_digital
 2123              	.LVL280:
 2124              	.L151:
 601:evgenii.c     ****         {
 2125              		.loc 1 601 0
 2126 003c BDF80830 		ldrh	r3, [sp, #8]
 2127 0040 012B     		cmp	r3, #1
 2128 0042 03D1     		bne	.L153
 601:evgenii.c     ****         {
 2129              		.loc 1 601 0 is_stmt 0 discriminator 1
 2130 0044 BDF80A30 		ldrh	r3, [sp, #10]
 2131 0048 002B     		cmp	r3, #0
 2132 004a F0D0     		beq	.L154
 2133              	.L153:
 606:evgenii.c     ****         reflectance_digital(&dig); 
 2134              		.loc 1 606 0 is_stmt 1
 2135 004c 2946     		mov	r1, r5
 2136 004e 2046     		mov	r0, r4
 2137 0050 FFF7FEFF 		bl	motor_forward
 2138              	.LVL281:
 607:evgenii.c     ****       //  printf("sense is %i\n", sense(dig));
 2139              		.loc 1 607 0
 2140 0054 01A8     		add	r0, sp, #4
 2141 0056 FFF7FEFF 		bl	reflectance_digital
 2142              	.LVL282:
 2143              	.L150:
 594:evgenii.c     ****     {
 2144              		.loc 1 594 0
 2145 005a 04AB     		add	r3, sp, #16
 2146 005c 13E90700 		ldmdb	r3, {r0, r1, r2}
 2147 0060 FFF7FEFF 		bl	sense
 2148              	.LVL283:
 2149 0064 0C28     		cmp	r0, #12
 2150 0066 DAD1     		bne	.L155
 2151 0068 33E0     		b	.L156
ARM GAS  C:\Users\EVGENY~1\AppData\Local\Temp\ccpzgcQX.s 			page 56


 2152              	.L164:
 613:evgenii.c     ****         {
 2153              		.loc 1 613 0
 2154 006a BDF80630 		ldrh	r3, [sp, #6]
 2155 006e 012B     		cmp	r3, #1
 2156 0070 12D1     		bne	.L157
 613:evgenii.c     ****         {
 2157              		.loc 1 613 0 is_stmt 0 discriminator 1
 2158 0072 BDF80C30 		ldrh	r3, [sp, #12]
 2159 0076 3BB1     		cbz	r3, .L158
 2160 0078 0EE0     		b	.L157
 2161              	.L159:
 617:evgenii.c     ****                 reflectance_digital(&dig);
 2162              		.loc 1 617 0 is_stmt 1
 2163 007a 2946     		mov	r1, r5
 2164 007c 2046     		mov	r0, r4
 2165 007e FFF7FEFF 		bl	turnLeft
 2166              	.LVL284:
 618:evgenii.c     ****             }
 2167              		.loc 1 618 0
 2168 0082 01A8     		add	r0, sp, #4
 2169 0084 FFF7FEFF 		bl	reflectance_digital
 2170              	.LVL285:
 2171              	.L158:
 615:evgenii.c     ****             {
 2172              		.loc 1 615 0
 2173 0088 BDF80630 		ldrh	r3, [sp, #6]
 2174 008c 012B     		cmp	r3, #1
 2175 008e 03D1     		bne	.L157
 615:evgenii.c     ****             {
 2176              		.loc 1 615 0 is_stmt 0 discriminator 1
 2177 0090 BDF80C30 		ldrh	r3, [sp, #12]
 2178 0094 002B     		cmp	r3, #0
 2179 0096 F0D0     		beq	.L159
 2180              	.L157:
 621:evgenii.c     ****         {
 2181              		.loc 1 621 0 is_stmt 1
 2182 0098 BDF80630 		ldrh	r3, [sp, #6]
 2183 009c 93B9     		cbnz	r3, .L160
 621:evgenii.c     ****         {
 2184              		.loc 1 621 0 is_stmt 0 discriminator 1
 2185 009e BDF80C30 		ldrh	r3, [sp, #12]
 2186 00a2 012B     		cmp	r3, #1
 2187 00a4 0ED1     		bne	.L160
 2188 00a6 06E0     		b	.L161
 2189              	.L162:
 625:evgenii.c     ****                 reflectance_digital(&dig);
 2190              		.loc 1 625 0 is_stmt 1
 2191 00a8 2946     		mov	r1, r5
 2192 00aa 2046     		mov	r0, r4
 2193 00ac FFF7FEFF 		bl	turnRight
 2194              	.LVL286:
 626:evgenii.c     ****             }
 2195              		.loc 1 626 0
 2196 00b0 01A8     		add	r0, sp, #4
 2197 00b2 FFF7FEFF 		bl	reflectance_digital
 2198              	.LVL287:
ARM GAS  C:\Users\EVGENY~1\AppData\Local\Temp\ccpzgcQX.s 			page 57


 2199              	.L161:
 623:evgenii.c     ****             {
 2200              		.loc 1 623 0
 2201 00b6 BDF80630 		ldrh	r3, [sp, #6]
 2202 00ba 1BB9     		cbnz	r3, .L160
 623:evgenii.c     ****             {
 2203              		.loc 1 623 0 is_stmt 0 discriminator 1
 2204 00bc BDF80C30 		ldrh	r3, [sp, #12]
 2205 00c0 012B     		cmp	r3, #1
 2206 00c2 F1D0     		beq	.L162
 2207              	.L160:
 629:evgenii.c     ****         reflectance_digital(&dig); 
 2208              		.loc 1 629 0 is_stmt 1
 2209 00c4 2946     		mov	r1, r5
 2210 00c6 2046     		mov	r0, r4
 2211 00c8 FFF7FEFF 		bl	motor_forward
 2212              	.LVL288:
 630:evgenii.c     ****     }
 2213              		.loc 1 630 0
 2214 00cc 01A8     		add	r0, sp, #4
 2215 00ce FFF7FEFF 		bl	reflectance_digital
 2216              	.LVL289:
 2217              	.L156:
 611:evgenii.c     ****     {
 2218              		.loc 1 611 0
 2219 00d2 BDF80430 		ldrh	r3, [sp, #4]
 2220 00d6 1BB9     		cbnz	r3, .L163
 611:evgenii.c     ****     {
 2221              		.loc 1 611 0 is_stmt 0 discriminator 1
 2222 00d8 BDF80E30 		ldrh	r3, [sp, #14]
 2223 00dc 002B     		cmp	r3, #0
 2224 00de C4D0     		beq	.L164
 2225              	.L163:
 632:evgenii.c     **** }
 2226              		.loc 1 632 0 is_stmt 1
 2227 00e0 0021     		movs	r1, #0
 2228 00e2 0846     		mov	r0, r1
 2229 00e4 FFF7FEFF 		bl	motor_forward
 2230              	.LVL290:
 633:evgenii.c     **** 
 2231              		.loc 1 633 0
 2232 00e8 05B0     		add	sp, sp, #20
 2233              		.cfi_def_cfa_offset 12
 2234              		@ sp needed
 2235 00ea 30BD     		pop	{r4, r5, pc}
 2236              		.cfi_endproc
 2237              	.LFE98:
 2238              		.size	driveThruMaze, .-driveThruMaze
 2239              		.section	.text.maze,"ax",%progbits
 2240              		.align	2
 2241              		.global	maze
 2242              		.thumb
 2243              		.thumb_func
 2244              		.type	maze, %function
 2245              	maze:
 2246              	.LFB96:
 378:evgenii.c     ****     struct sensors_ dig;
ARM GAS  C:\Users\EVGENY~1\AppData\Local\Temp\ccpzgcQX.s 			page 58


 2247              		.loc 1 378 0
 2248              		.cfi_startproc
 2249              		@ args = 0, pretend = 0, frame = 16
 2250              		@ frame_needed = 0, uses_anonymous_args = 0
 2251 0000 2DE9F041 		push	{r4, r5, r6, r7, r8, lr}
 2252              		.cfi_def_cfa_offset 24
 2253              		.cfi_offset 4, -24
 2254              		.cfi_offset 5, -20
 2255              		.cfi_offset 6, -16
 2256              		.cfi_offset 7, -12
 2257              		.cfi_offset 8, -8
 2258              		.cfi_offset 14, -4
 2259 0004 86B0     		sub	sp, sp, #24
 2260              		.cfi_def_cfa_offset 48
 2261              	.LVL291:
 384:evgenii.c     ****     int X = 0;
 2262              		.loc 1 384 0
 2263 0006 4FF0FF33 		mov	r3, #-1
 2264 000a 0293     		str	r3, [sp, #8]
 2265              	.LVL292:
 390:evgenii.c     ****     
 2266              		.loc 1 390 0
 2267 000c 0124     		movs	r4, #1
 2268 000e 0094     		str	r4, [sp]
 2269 0010 0023     		movs	r3, #0
 2270 0012 2246     		mov	r2, r4
 2271 0014 2146     		mov	r1, r4
 2272 0016 2046     		mov	r0, r4
 2273 0018 FFF7FEFF 		bl	startUp
 2274              	.LVL293:
 392:evgenii.c     ****     driveForward(200,0);
 2275              		.loc 1 392 0
 2276 001c FFF7FEFF 		bl	IR_wait
 2277              	.LVL294:
 393:evgenii.c     ****     print_mqtt(READY_TOPIC, "maze");
 2278              		.loc 1 393 0
 2279 0020 0021     		movs	r1, #0
 2280 0022 C820     		movs	r0, #200
 2281 0024 FFF7FEFF 		bl	driveForward
 2282              	.LVL295:
 394:evgenii.c     ****     IR_wait();  
 2283              		.loc 1 394 0
 2284 0028 B249     		ldr	r1, .L190
 2285 002a B348     		ldr	r0, .L190+4
 2286 002c FFF7FEFF 		bl	print_mqtt
 2287              	.LVL296:
 395:evgenii.c     ****     startTime = xTaskGetTickCount();
 2288              		.loc 1 395 0
 2289 0030 FFF7FEFF 		bl	IR_wait
 2290              	.LVL297:
 396:evgenii.c     ****     print_mqtt(START_TOPIC, " %lu", startTime);
 2291              		.loc 1 396 0
 2292 0034 FFF7FEFF 		bl	xTaskGetTickCount
 2293              	.LVL298:
 2294 0038 8046     		mov	r8, r0
 2295              	.LVL299:
 397:evgenii.c     ****     
ARM GAS  C:\Users\EVGENY~1\AppData\Local\Temp\ccpzgcQX.s 			page 59


 2296              		.loc 1 397 0
 2297 003a 0246     		mov	r2, r0
 2298 003c AF49     		ldr	r1, .L190+8
 2299 003e B048     		ldr	r0, .L190+12
 2300              	.LVL300:
 2301 0040 FFF7FEFF 		bl	print_mqtt
 2302              	.LVL301:
 399:evgenii.c     ****     while(Y < 11)
 2303              		.loc 1 399 0
 2304 0044 03A8     		add	r0, sp, #12
 2305 0046 FFF7FEFF 		bl	reflectance_digital
 2306              	.LVL302:
 388:evgenii.c     ****     
 2307              		.loc 1 388 0
 2308 004a 0027     		movs	r7, #0
 2309 004c 3E46     		mov	r6, r7
 385:evgenii.c     ****     int left = -90;
 2310              		.loc 1 385 0
 2311 004e 3D46     		mov	r5, r7
 400:evgenii.c     ****     {
 2312              		.loc 1 400 0
 2313 0050 DEE0     		b	.L167
 2314              	.LVL303:
 2315              	.L169:
 404:evgenii.c     ****             driveThruMaze(SPEED,0);
 2316              		.loc 1 404 0
 2317 0052 03A8     		add	r0, sp, #12
 2318 0054 FFF7FEFF 		bl	reflectance_digital
 2319              	.LVL304:
 405:evgenii.c     ****             Y++;
 2320              		.loc 1 405 0
 2321 0058 0021     		movs	r1, #0
 2322 005a 9620     		movs	r0, #150
 2323 005c FFF7FEFF 		bl	driveThruMaze
 2324              	.LVL305:
 406:evgenii.c     ****             print_mqtt(POSI_TOPIC, "%i %i", X, Y);
 2325              		.loc 1 406 0
 2326 0060 029B     		ldr	r3, [sp, #8]
 2327 0062 0133     		adds	r3, r3, #1
 2328 0064 0293     		str	r3, [sp, #8]
 407:evgenii.c     ****             vTaskDelay(100);
 2329              		.loc 1 407 0
 2330 0066 2A46     		mov	r2, r5
 2331 0068 A649     		ldr	r1, .L190+16
 2332 006a A748     		ldr	r0, .L190+20
 2333 006c FFF7FEFF 		bl	print_mqtt
 2334              	.LVL306:
 408:evgenii.c     ****         }
 2335              		.loc 1 408 0
 2336 0070 6420     		movs	r0, #100
 2337 0072 FFF7FEFF 		bl	vTaskDelay
 2338              	.LVL307:
 2339              	.L176:
 402:evgenii.c     ****         {
 2340              		.loc 1 402 0
 2341 0076 24B1     		cbz	r4, .L168
 402:evgenii.c     ****         {
ARM GAS  C:\Users\EVGENY~1\AppData\Local\Temp\ccpzgcQX.s 			page 60


 2342              		.loc 1 402 0 is_stmt 0 discriminator 1
 2343 0078 02A8     		add	r0, sp, #8
 2344 007a FFF7FEFF 		bl	noRestrict
 2345              	.LVL308:
 2346 007e 0028     		cmp	r0, #0
 2347 0080 E7D1     		bne	.L169
 2348              	.L168:
 410:evgenii.c     ****         {
 2349              		.loc 1 410 0 is_stmt 1
 2350 0082 BCB1     		cbz	r4, .L170
 410:evgenii.c     ****         {
 2351              		.loc 1 410 0 is_stmt 0 discriminator 1
 2352 0084 FFF7FEFF 		bl	Ultra_GetDistance
 2353              	.LVL309:
 2354 0088 0C28     		cmp	r0, #12
 2355 008a 13DC     		bgt	.L170
 410:evgenii.c     ****         {
 2356              		.loc 1 410 0 discriminator 2
 2357 008c 15F1030F 		cmn	r5, #3
 2358 0090 10D0     		beq	.L170
 2359              	.LVL310:
 414:evgenii.c     ****             tankTurnEvg(left);
 2360              		.loc 1 414 0 is_stmt 1
 2361 0092 6E21     		movs	r1, #110
 2362 0094 C820     		movs	r0, #200
 2363 0096 FFF7FEFF 		bl	motor_forward
 2364              	.LVL311:
 415:evgenii.c     ****             motor_forward(0,0);
 2365              		.loc 1 415 0
 2366 009a 6FF05900 		mvn	r0, #89
 2367 009e FFF7FEFF 		bl	tankTurnEvg
 2368              	.LVL312:
 416:evgenii.c     ****             vTaskDelay(100);
 2369              		.loc 1 416 0
 2370 00a2 0021     		movs	r1, #0
 2371 00a4 0846     		mov	r0, r1
 2372 00a6 FFF7FEFF 		bl	motor_forward
 2373              	.LVL313:
 417:evgenii.c     ****         } 
 2374              		.loc 1 417 0
 2375 00aa 6420     		movs	r0, #100
 2376 00ac FFF7FEFF 		bl	vTaskDelay
 2377              	.LVL314:
 412:evgenii.c     ****             dirUp = false;
 2378              		.loc 1 412 0
 2379 00b0 0126     		movs	r6, #1
 413:evgenii.c     ****             motor_forward(200,110);
 2380              		.loc 1 413 0
 2381 00b2 0024     		movs	r4, #0
 2382              	.LVL315:
 2383              	.L170:
 419:evgenii.c     ****         {
 2384              		.loc 1 419 0
 2385 00b4 B4B1     		cbz	r4, .L171
 419:evgenii.c     ****         {
 2386              		.loc 1 419 0 is_stmt 0 discriminator 1
 2387 00b6 FFF7FEFF 		bl	Ultra_GetDistance
ARM GAS  C:\Users\EVGENY~1\AppData\Local\Temp\ccpzgcQX.s 			page 61


 2388              	.LVL316:
 2389 00ba 0C28     		cmp	r0, #12
 2390 00bc 12DC     		bgt	.L171
 419:evgenii.c     ****         {
 2391              		.loc 1 419 0 discriminator 2
 2392 00be 15F1030F 		cmn	r5, #3
 2393 00c2 0FD1     		bne	.L171
 2394              	.LVL317:
 423:evgenii.c     ****             tankTurnEvg(right);
 2395              		.loc 1 423 0 is_stmt 1
 2396 00c4 6E21     		movs	r1, #110
 2397 00c6 C820     		movs	r0, #200
 2398 00c8 FFF7FEFF 		bl	motor_forward
 2399              	.LVL318:
 424:evgenii.c     ****             motor_forward(0,0);
 2400              		.loc 1 424 0
 2401 00cc 5A20     		movs	r0, #90
 2402 00ce FFF7FEFF 		bl	tankTurnEvg
 2403              	.LVL319:
 425:evgenii.c     ****             vTaskDelay(100);
 2404              		.loc 1 425 0
 2405 00d2 0021     		movs	r1, #0
 2406 00d4 0846     		mov	r0, r1
 2407 00d6 FFF7FEFF 		bl	motor_forward
 2408              	.LVL320:
 426:evgenii.c     ****         }
 2409              		.loc 1 426 0
 2410 00da 6420     		movs	r0, #100
 2411 00dc FFF7FEFF 		bl	vTaskDelay
 2412              	.LVL321:
 421:evgenii.c     ****             dirUp = false;
 2413              		.loc 1 421 0
 2414 00e0 0127     		movs	r7, #1
 422:evgenii.c     ****             motor_forward(200,110);
 2415              		.loc 1 422 0
 2416 00e2 0024     		movs	r4, #0
 2417              	.LVL322:
 2418              	.L171:
 428:evgenii.c     ****         {   
 2419              		.loc 1 428 0
 2420 00e4 002E     		cmp	r6, #0
 2421 00e6 4FD0     		beq	.L172
 428:evgenii.c     ****         {   
 2422              		.loc 1 428 0 is_stmt 0 discriminator 1
 2423 00e8 02A8     		add	r0, sp, #8
 2424 00ea FFF7FEFF 		bl	noRestrict
 2425              	.LVL323:
 2426 00ee 0028     		cmp	r0, #0
 2427 00f0 4AD0     		beq	.L172
 428:evgenii.c     ****         {   
 2428              		.loc 1 428 0 discriminator 2
 2429 00f2 15F1030F 		cmn	r5, #3
 2430 00f6 47D0     		beq	.L172
 2431              	.LVL324:
 432:evgenii.c     ****             driveThruMaze(SPEED,0);
 2432              		.loc 1 432 0 is_stmt 1
 2433 00f8 03A8     		add	r0, sp, #12
ARM GAS  C:\Users\EVGENY~1\AppData\Local\Temp\ccpzgcQX.s 			page 62


 2434 00fa FFF7FEFF 		bl	reflectance_digital
 2435              	.LVL325:
 433:evgenii.c     ****             X--;
 2436              		.loc 1 433 0
 2437 00fe 0021     		movs	r1, #0
 2438 0100 9620     		movs	r0, #150
 2439 0102 FFF7FEFF 		bl	driveThruMaze
 2440              	.LVL326:
 434:evgenii.c     ****             print_mqtt(POSI_TOPIC, "%i %i", X, Y);
 2441              		.loc 1 434 0
 2442 0106 013D     		subs	r5, r5, #1
 2443              	.LVL327:
 435:evgenii.c     ****             motor_forward(200,110);
 2444              		.loc 1 435 0
 2445 0108 029B     		ldr	r3, [sp, #8]
 2446 010a 2A46     		mov	r2, r5
 2447 010c 7D49     		ldr	r1, .L190+16
 2448 010e 7E48     		ldr	r0, .L190+20
 2449 0110 FFF7FEFF 		bl	print_mqtt
 2450              	.LVL328:
 436:evgenii.c     ****             tankTurnEvg(right);
 2451              		.loc 1 436 0
 2452 0114 6E21     		movs	r1, #110
 2453 0116 C820     		movs	r0, #200
 2454 0118 FFF7FEFF 		bl	motor_forward
 2455              	.LVL329:
 437:evgenii.c     ****             motor_forward(0,0);
 2456              		.loc 1 437 0
 2457 011c 5A20     		movs	r0, #90
 2458 011e FFF7FEFF 		bl	tankTurnEvg
 2459              	.LVL330:
 438:evgenii.c     ****             vTaskDelay(100);
 2460              		.loc 1 438 0
 2461 0122 0021     		movs	r1, #0
 2462 0124 0846     		mov	r0, r1
 2463 0126 FFF7FEFF 		bl	motor_forward
 2464              	.LVL331:
 439:evgenii.c     ****             if(Ultra_GetDistance() < 13 && X != - maxX)
 2465              		.loc 1 439 0
 2466 012a 6420     		movs	r0, #100
 2467 012c FFF7FEFF 		bl	vTaskDelay
 2468              	.LVL332:
 440:evgenii.c     ****             {
 2469              		.loc 1 440 0
 2470 0130 FFF7FEFF 		bl	Ultra_GetDistance
 2471              	.LVL333:
 2472 0134 0C28     		cmp	r0, #12
 2473 0136 0FDC     		bgt	.L186
 440:evgenii.c     ****             {
 2474              		.loc 1 440 0 is_stmt 0 discriminator 1
 2475 0138 15F1030F 		cmn	r5, #3
 2476 013c 0FD0     		beq	.L187
 2477              	.LVL334:
 445:evgenii.c     ****                 motor_forward(0,0);
 2478              		.loc 1 445 0 is_stmt 1
 2479 013e 6FF05900 		mvn	r0, #89
 2480 0142 FFF7FEFF 		bl	tankTurnEvg
ARM GAS  C:\Users\EVGENY~1\AppData\Local\Temp\ccpzgcQX.s 			page 63


 2481              	.LVL335:
 446:evgenii.c     ****                 vTaskDelay(100);
 2482              		.loc 1 446 0
 2483 0146 0021     		movs	r1, #0
 2484 0148 0846     		mov	r0, r1
 2485 014a FFF7FEFF 		bl	motor_forward
 2486              	.LVL336:
 447:evgenii.c     ****             }
 2487              		.loc 1 447 0
 2488 014e 6420     		movs	r0, #100
 2489 0150 FFF7FEFF 		bl	vTaskDelay
 2490              	.LVL337:
 443:evgenii.c     ****                 
 2491              		.loc 1 443 0
 2492 0154 0024     		movs	r4, #0
 2493 0156 04E0     		b	.L173
 2494              	.LVL338:
 2495              	.L186:
 430:evgenii.c     ****             dirUp = true;
 2496              		.loc 1 430 0
 2497 0158 0026     		movs	r6, #0
 431:evgenii.c     ****             reflectance_digital(&dig);
 2498              		.loc 1 431 0
 2499 015a 0124     		movs	r4, #1
 2500 015c 01E0     		b	.L173
 2501              	.L187:
 430:evgenii.c     ****             dirUp = true;
 2502              		.loc 1 430 0
 2503 015e 0026     		movs	r6, #0
 431:evgenii.c     ****             reflectance_digital(&dig);
 2504              		.loc 1 431 0
 2505 0160 0124     		movs	r4, #1
 2506              	.LVL339:
 2507              	.L173:
 449:evgenii.c     ****             {
 2508              		.loc 1 449 0
 2509 0162 FFF7FEFF 		bl	Ultra_GetDistance
 2510              	.LVL340:
 2511 0166 0C28     		cmp	r0, #12
 2512 0168 0EDC     		bgt	.L172
 449:evgenii.c     ****             {
 2513              		.loc 1 449 0 is_stmt 0 discriminator 1
 2514 016a 15F1030F 		cmn	r5, #3
 2515 016e 0BD1     		bne	.L172
 2516              	.LVL341:
 454:evgenii.c     ****                 motor_forward(0,0);
 2517              		.loc 1 454 0 is_stmt 1
 2518 0170 5A20     		movs	r0, #90
 2519 0172 FFF7FEFF 		bl	tankTurnEvg
 2520              	.LVL342:
 455:evgenii.c     ****                 vTaskDelay(100);
 2521              		.loc 1 455 0
 2522 0176 0021     		movs	r1, #0
 2523 0178 0846     		mov	r0, r1
 2524 017a FFF7FEFF 		bl	motor_forward
 2525              	.LVL343:
 456:evgenii.c     ****             }
ARM GAS  C:\Users\EVGENY~1\AppData\Local\Temp\ccpzgcQX.s 			page 64


 2526              		.loc 1 456 0
 2527 017e 6420     		movs	r0, #100
 2528 0180 FFF7FEFF 		bl	vTaskDelay
 2529              	.LVL344:
 452:evgenii.c     ****                 
 2530              		.loc 1 452 0
 2531 0184 0127     		movs	r7, #1
 451:evgenii.c     ****                 dirRight = true;
 2532              		.loc 1 451 0
 2533 0186 0026     		movs	r6, #0
 2534              	.LVL345:
 2535              	.L172:
 459:evgenii.c     ****         {
 2536              		.loc 1 459 0
 2537 0188 7EB1     		cbz	r6, .L174
 459:evgenii.c     ****         {
 2538              		.loc 1 459 0 is_stmt 0 discriminator 1
 2539 018a FFF7FEFF 		bl	Ultra_GetDistance
 2540              	.LVL346:
 2541 018e 0C28     		cmp	r0, #12
 2542 0190 0BDC     		bgt	.L174
 2543              	.LVL347:
 464:evgenii.c     ****             motor_forward(0,0);
 2544              		.loc 1 464 0 is_stmt 1
 2545 0192 B420     		movs	r0, #180
 2546 0194 FFF7FEFF 		bl	tankTurnEvg
 2547              	.LVL348:
 465:evgenii.c     ****             vTaskDelay(100);
 2548              		.loc 1 465 0
 2549 0198 0021     		movs	r1, #0
 2550 019a 0846     		mov	r0, r1
 2551 019c FFF7FEFF 		bl	motor_forward
 2552              	.LVL349:
 466:evgenii.c     ****         }
 2553              		.loc 1 466 0
 2554 01a0 6420     		movs	r0, #100
 2555 01a2 FFF7FEFF 		bl	vTaskDelay
 2556              	.LVL350:
 463:evgenii.c     ****             tankTurnEvg(180);
 2557              		.loc 1 463 0
 2558 01a6 0127     		movs	r7, #1
 462:evgenii.c     ****             dirRight = true; 
 2559              		.loc 1 462 0
 2560 01a8 0026     		movs	r6, #0
 2561              	.LVL351:
 2562              	.L174:
 468:evgenii.c     ****         {
 2563              		.loc 1 468 0
 2564 01aa 8FB3     		cbz	r7, .L167
 468:evgenii.c     ****         {
 2565              		.loc 1 468 0 is_stmt 0 discriminator 1
 2566 01ac 02A8     		add	r0, sp, #8
 2567 01ae FFF7FEFF 		bl	noRestrict
 2568              	.LVL352:
 2569 01b2 68B3     		cbz	r0, .L167
 468:evgenii.c     ****         {
 2570              		.loc 1 468 0 discriminator 2
ARM GAS  C:\Users\EVGENY~1\AppData\Local\Temp\ccpzgcQX.s 			page 65


 2571 01b4 022D     		cmp	r5, #2
 2572 01b6 2BDC     		bgt	.L167
 2573              	.LVL353:
 472:evgenii.c     ****             X++;
 2574              		.loc 1 472 0 is_stmt 1
 2575 01b8 0021     		movs	r1, #0
 2576 01ba 9620     		movs	r0, #150
 2577 01bc FFF7FEFF 		bl	driveThruMaze
 2578              	.LVL354:
 473:evgenii.c     ****             print_mqtt(POSI_TOPIC, "%i %i", X, Y);
 2579              		.loc 1 473 0
 2580 01c0 0135     		adds	r5, r5, #1
 2581              	.LVL355:
 474:evgenii.c     ****             motor_forward(200,110);
 2582              		.loc 1 474 0
 2583 01c2 029B     		ldr	r3, [sp, #8]
 2584 01c4 2A46     		mov	r2, r5
 2585 01c6 4F49     		ldr	r1, .L190+16
 2586 01c8 4F48     		ldr	r0, .L190+20
 2587 01ca FFF7FEFF 		bl	print_mqtt
 2588              	.LVL356:
 475:evgenii.c     ****             tankTurnEvg(left);
 2589              		.loc 1 475 0
 2590 01ce 6E21     		movs	r1, #110
 2591 01d0 C820     		movs	r0, #200
 2592 01d2 FFF7FEFF 		bl	motor_forward
 2593              	.LVL357:
 476:evgenii.c     ****             motor_forward(0,0);
 2594              		.loc 1 476 0
 2595 01d6 6FF05900 		mvn	r0, #89
 2596 01da FFF7FEFF 		bl	tankTurnEvg
 2597              	.LVL358:
 477:evgenii.c     ****             vTaskDelay(100);
 2598              		.loc 1 477 0
 2599 01de 0021     		movs	r1, #0
 2600 01e0 0846     		mov	r0, r1
 2601 01e2 FFF7FEFF 		bl	motor_forward
 2602              	.LVL359:
 478:evgenii.c     ****             if(Ultra_GetDistance() < 13)
 2603              		.loc 1 478 0
 2604 01e6 6420     		movs	r0, #100
 2605 01e8 FFF7FEFF 		bl	vTaskDelay
 2606              	.LVL360:
 479:evgenii.c     ****             {
 2607              		.loc 1 479 0
 2608 01ec FFF7FEFF 		bl	Ultra_GetDistance
 2609              	.LVL361:
 2610 01f0 0C28     		cmp	r0, #12
 2611 01f2 0BDC     		bgt	.L188
 2612              	.LVL362:
 484:evgenii.c     ****                 motor_forward(0,0);
 2613              		.loc 1 484 0
 2614 01f4 5A20     		movs	r0, #90
 2615 01f6 FFF7FEFF 		bl	tankTurnEvg
 2616              	.LVL363:
 485:evgenii.c     ****                 vTaskDelay(100);
 2617              		.loc 1 485 0
ARM GAS  C:\Users\EVGENY~1\AppData\Local\Temp\ccpzgcQX.s 			page 66


 2618 01fa 0021     		movs	r1, #0
 2619 01fc 0846     		mov	r0, r1
 2620 01fe FFF7FEFF 		bl	motor_forward
 2621              	.LVL364:
 486:evgenii.c     ****             }
 2622              		.loc 1 486 0
 2623 0202 6420     		movs	r0, #100
 2624 0204 FFF7FEFF 		bl	vTaskDelay
 2625              	.LVL365:
 482:evgenii.c     ****                 
 2626              		.loc 1 482 0
 2627 0208 0024     		movs	r4, #0
 2628 020a 01E0     		b	.L167
 2629              	.LVL366:
 2630              	.L188:
 470:evgenii.c     ****             dirUp = true;
 2631              		.loc 1 470 0
 2632 020c 0027     		movs	r7, #0
 471:evgenii.c     ****             driveThruMaze(SPEED,0);
 2633              		.loc 1 471 0
 2634 020e 0124     		movs	r4, #1
 2635              	.LVL367:
 2636              	.L167:
 400:evgenii.c     ****     {
 2637              		.loc 1 400 0
 2638 0210 029B     		ldr	r3, [sp, #8]
 2639 0212 0A2B     		cmp	r3, #10
 2640 0214 7FF72FAF 		ble	.L176
 490:evgenii.c     ****     {
 2641              		.loc 1 490 0
 2642 0218 0B2B     		cmp	r3, #11
 2643 021a 61D1     		bne	.L177
 492:evgenii.c     ****         {
 2644              		.loc 1 492 0
 2645 021c 002D     		cmp	r5, #0
 2646 021e 20DA     		bge	.L178
 494:evgenii.c     ****             tankTurnEvg(right);
 2647              		.loc 1 494 0
 2648 0220 6E21     		movs	r1, #110
 2649 0222 C820     		movs	r0, #200
 2650 0224 FFF7FEFF 		bl	motor_forward
 2651              	.LVL368:
 495:evgenii.c     ****             while(X!=0)
 2652              		.loc 1 495 0
 2653 0228 5A20     		movs	r0, #90
 2654 022a FFF7FEFF 		bl	tankTurnEvg
 2655              	.LVL369:
 496:evgenii.c     ****             {
 2656              		.loc 1 496 0
 2657 022e 0DE0     		b	.L179
 2658              	.L180:
 498:evgenii.c     ****                 X++;
 2659              		.loc 1 498 0
 2660 0230 0021     		movs	r1, #0
 2661 0232 9620     		movs	r0, #150
 2662 0234 FFF7FEFF 		bl	driveForward
 2663              	.LVL370:
ARM GAS  C:\Users\EVGENY~1\AppData\Local\Temp\ccpzgcQX.s 			page 67


 499:evgenii.c     ****                 print_mqtt(POSI_TOPIC, "%i %i", X, Y);
 2664              		.loc 1 499 0
 2665 0238 0135     		adds	r5, r5, #1
 2666              	.LVL371:
 500:evgenii.c     ****                 vTaskDelay(100);
 2667              		.loc 1 500 0
 2668 023a 029B     		ldr	r3, [sp, #8]
 2669 023c 2A46     		mov	r2, r5
 2670 023e 3149     		ldr	r1, .L190+16
 2671 0240 3148     		ldr	r0, .L190+20
 2672 0242 FFF7FEFF 		bl	print_mqtt
 2673              	.LVL372:
 501:evgenii.c     ****             }
 2674              		.loc 1 501 0
 2675 0246 6420     		movs	r0, #100
 2676 0248 FFF7FEFF 		bl	vTaskDelay
 2677              	.LVL373:
 2678              	.L179:
 496:evgenii.c     ****             {
 2679              		.loc 1 496 0
 2680 024c 002D     		cmp	r5, #0
 2681 024e EFD1     		bne	.L180
 503:evgenii.c     ****             tankTurnEvg(left);
 2682              		.loc 1 503 0
 2683 0250 6E21     		movs	r1, #110
 2684 0252 C820     		movs	r0, #200
 2685 0254 FFF7FEFF 		bl	motor_forward
 2686              	.LVL374:
 504:evgenii.c     ****         }
 2687              		.loc 1 504 0
 2688 0258 6FF05900 		mvn	r0, #89
 2689 025c FFF7FEFF 		bl	tankTurnEvg
 2690              	.LVL375:
 2691 0260 2EE0     		b	.L184
 2692              	.L178:
 506:evgenii.c     ****         {
 2693              		.loc 1 506 0
 2694 0262 002D     		cmp	r5, #0
 2695 0264 2CDD     		ble	.L184
 508:evgenii.c     ****             tankTurnEvg(left);
 2696              		.loc 1 508 0
 2697 0266 6E21     		movs	r1, #110
 2698 0268 C820     		movs	r0, #200
 2699 026a FFF7FEFF 		bl	motor_forward
 2700              	.LVL376:
 509:evgenii.c     ****             while(X!=0)
 2701              		.loc 1 509 0
 2702 026e 6FF05900 		mvn	r0, #89
 2703 0272 FFF7FEFF 		bl	tankTurnEvg
 2704              	.LVL377:
 510:evgenii.c     ****             {
 2705              		.loc 1 510 0
 2706 0276 0DE0     		b	.L182
 2707              	.L183:
 512:evgenii.c     ****                 X--;
 2708              		.loc 1 512 0
 2709 0278 0021     		movs	r1, #0
ARM GAS  C:\Users\EVGENY~1\AppData\Local\Temp\ccpzgcQX.s 			page 68


 2710 027a 9620     		movs	r0, #150
 2711 027c FFF7FEFF 		bl	driveThruMaze
 2712              	.LVL378:
 513:evgenii.c     ****                 print_mqtt(POSI_TOPIC, "%i %i", X, Y);
 2713              		.loc 1 513 0
 2714 0280 013D     		subs	r5, r5, #1
 2715              	.LVL379:
 514:evgenii.c     ****                 vTaskDelay(100);
 2716              		.loc 1 514 0
 2717 0282 029B     		ldr	r3, [sp, #8]
 2718 0284 2A46     		mov	r2, r5
 2719 0286 1F49     		ldr	r1, .L190+16
 2720 0288 1F48     		ldr	r0, .L190+20
 2721 028a FFF7FEFF 		bl	print_mqtt
 2722              	.LVL380:
 515:evgenii.c     ****             }
 2723              		.loc 1 515 0
 2724 028e 6420     		movs	r0, #100
 2725 0290 FFF7FEFF 		bl	vTaskDelay
 2726              	.LVL381:
 2727              	.L182:
 510:evgenii.c     ****             {
 2728              		.loc 1 510 0
 2729 0294 002D     		cmp	r5, #0
 2730 0296 EFD1     		bne	.L183
 517:evgenii.c     ****             tankTurnEvg(right);
 2731              		.loc 1 517 0
 2732 0298 6E21     		movs	r1, #110
 2733 029a C820     		movs	r0, #200
 2734 029c FFF7FEFF 		bl	motor_forward
 2735              	.LVL382:
 518:evgenii.c     ****         }
 2736              		.loc 1 518 0
 2737 02a0 5A20     		movs	r0, #90
 2738 02a2 FFF7FEFF 		bl	tankTurnEvg
 2739              	.LVL383:
 2740 02a6 0BE0     		b	.L184
 2741              	.L185:
 522:evgenii.c     ****             Y++;
 2742              		.loc 1 522 0
 2743 02a8 0021     		movs	r1, #0
 2744 02aa 9620     		movs	r0, #150
 2745 02ac FFF7FEFF 		bl	driveThruMaze
 2746              	.LVL384:
 523:evgenii.c     ****             print_mqtt(POSI_TOPIC, "%i %i", X, Y);
 2747              		.loc 1 523 0
 2748 02b0 029B     		ldr	r3, [sp, #8]
 2749 02b2 0133     		adds	r3, r3, #1
 2750 02b4 0293     		str	r3, [sp, #8]
 524:evgenii.c     ****         }
 2751              		.loc 1 524 0
 2752 02b6 2A46     		mov	r2, r5
 2753 02b8 1249     		ldr	r1, .L190+16
 2754 02ba 1348     		ldr	r0, .L190+20
 2755 02bc FFF7FEFF 		bl	print_mqtt
 2756              	.LVL385:
 2757              	.L184:
ARM GAS  C:\Users\EVGENY~1\AppData\Local\Temp\ccpzgcQX.s 			page 69


 520:evgenii.c     ****         {
 2758              		.loc 1 520 0
 2759 02c0 029B     		ldr	r3, [sp, #8]
 2760 02c2 0C2B     		cmp	r3, #12
 2761 02c4 F0DD     		ble	.L185
 526:evgenii.c     ****         motor_forward(100,700);
 2762              		.loc 1 526 0
 2763 02c6 0021     		movs	r1, #0
 2764 02c8 0846     		mov	r0, r1
 2765 02ca FFF7FEFF 		bl	motor_forward
 2766              	.LVL386:
 527:evgenii.c     ****         print_mqtt(STOP_TOPIC, "END");
 2767              		.loc 1 527 0
 2768 02ce 4FF42F71 		mov	r1, #700
 2769 02d2 6420     		movs	r0, #100
 2770 02d4 FFF7FEFF 		bl	motor_forward
 2771              	.LVL387:
 528:evgenii.c     ****     }
 2772              		.loc 1 528 0
 2773 02d8 0C49     		ldr	r1, .L190+24
 2774 02da 0D48     		ldr	r0, .L190+28
 2775 02dc FFF7FEFF 		bl	print_mqtt
 2776              	.LVL388:
 2777              	.L177:
 530:evgenii.c     ****     end_mqtt(startTime, stopTime);
 2778              		.loc 1 530 0
 2779 02e0 FFF7FEFF 		bl	xTaskGetTickCount
 2780              	.LVL389:
 531:evgenii.c     **** }
 2781              		.loc 1 531 0
 2782 02e4 0146     		mov	r1, r0
 2783 02e6 4046     		mov	r0, r8
 2784              	.LVL390:
 2785 02e8 FFF7FEFF 		bl	end_mqtt
 2786              	.LVL391:
 532:evgenii.c     **** 
 2787              		.loc 1 532 0
 2788 02ec 06B0     		add	sp, sp, #24
 2789              		.cfi_def_cfa_offset 24
 2790              		@ sp needed
 2791 02ee BDE8F081 		pop	{r4, r5, r6, r7, r8, pc}
 2792              	.LVL392:
 2793              	.L191:
 2794 02f2 00BF     		.align	2
 2795              	.L190:
 2796 02f4 54020000 		.word	.LC27
 2797 02f8 14020000 		.word	.LC22
 2798 02fc 28010000 		.word	.LC9
 2799 0300 30020000 		.word	.LC25
 2800 0304 5C020000 		.word	.LC28
 2801 0308 64020000 		.word	.LC29
 2802 030c 78020000 		.word	.LC30
 2803 0310 30010000 		.word	.LC10
 2804              		.cfi_endproc
 2805              	.LFE96:
 2806              		.size	maze, .-maze
 2807              		.section	.rodata.str1.4,"aMS",%progbits,1
ARM GAS  C:\Users\EVGENY~1\AppData\Local\Temp\ccpzgcQX.s 			page 70


 2808              		.align	2
 2809              	.LC0:
 2810 0000 50726573 		.ascii	"Press IR send to start and button on PSoC to stop\000"
 2810      73204952 
 2810      2073656E 
 2810      6420746F 
 2810      20737461 
 2811 0032 0000     		.space	2
 2812              	.LC1:
 2813 0034 64697374 		.ascii	"distance = %d\015\012\000"
 2813      616E6365 
 2813      203D2025 
 2813      640D0A00 
 2814              	.LC2:
 2815 0044 0A0A2063 		.ascii	"\012\012 clearing the buffer\012\000"
 2815      6C656172 
 2815      696E6720 
 2815      74686520 
 2815      62756666 
 2816              	.LC3:
 2817 005c 50726573 		.ascii	"Press a button\000"
 2817      73206120 
 2817      62757474 
 2817      6F6E00
 2818 006b 00       		.space	1
 2819              	.LC4:
 2820 006c 2F204D69 		.ascii	"/ Milliseconds since boot or the last button press "
 2820      6C6C6973 
 2820      65636F6E 
 2820      64732073 
 2820      696E6365 
 2821 009f 69732025 		.ascii	"is %d, or: %02dm:%02d.%03ds\000"
 2821      642C206F 
 2821      723A2025 
 2821      3032646D 
 2821      3A253032 
 2822 00bb 00       		.space	1
 2823              	.LC5:
 2824 00bc 5A756D6F 		.ascii	"Zumo06/button/\000"
 2824      30362F62 
 2824      7574746F 
 2824      6E2F00
 2825 00cb 00       		.space	1
 2826              	.LC6:
 2827 00cc 0A547572 		.ascii	"\012Turn value is %i so I turn left\012\000"
 2827      6E207661 
 2827      6C756520 
 2827      69732025 
 2827      6920736F 
 2828 00ee 0000     		.space	2
 2829              	.LC7:
 2830 00f0 0A547572 		.ascii	"\012Turn value is %i so I turn right\012\000"
 2830      6E207661 
 2830      6C756520 
 2830      69732025 
 2830      6920736F 
 2831 0113 00       		.space	1
ARM GAS  C:\Users\EVGENY~1\AppData\Local\Temp\ccpzgcQX.s 			page 71


 2832              	.LC8:
 2833 0114 456E6420 		.ascii	"End of the programm\000"
 2833      6F662074 
 2833      68652070 
 2833      726F6772 
 2833      616D6D00 
 2834              	.LC9:
 2835 0128 20256C75 		.ascii	" %lu\000"
 2835      00
 2836 012d 000000   		.space	3
 2837              	.LC10:
 2838 0130 5A756D6F 		.ascii	"Zumo06/stop/\000"
 2838      30362F73 
 2838      746F702F 
 2838      00
 2839 013d 000000   		.space	3
 2840              	.LC11:
 2841 0140 656C6170 		.ascii	"elapsed: %lums, %02lus\000"
 2841      7365643A 
 2841      20256C75 
 2841      6D732C20 
 2841      2530326C 
 2842 0157 00       		.space	1
 2843              	.LC12:
 2844 0158 5A756D6F 		.ascii	"Zumo06/time/\000"
 2844      30362F74 
 2844      696D652F 
 2844      00
 2845 0165 000000   		.space	3
 2846              	.LC13:
 2847 0168 0A0A426F 		.ascii	"\012\012Boot!\000"
 2847      6F742100 
 2848              	.LC14:
 2849 0170 2F205475 		.ascii	"/ Turn direction - right\000"
 2849      726E2064 
 2849      69726563 
 2849      74696F6E 
 2849      202D2072 
 2850 0189 000000   		.space	3
 2851              	.LC15:
 2852 018c 5A756D6F 		.ascii	"Zumo06/turn/\000"
 2852      30362F74 
 2852      75726E2F 
 2852      00
 2853 0199 000000   		.space	3
 2854              	.LC16:
 2855 019c 2F205475 		.ascii	"/ Turn direction - left\000"
 2855      726E2064 
 2855      69726563 
 2855      74696F6E 
 2855      202D206C 
 2856              	.LC17:
 2857 01b4 4E756D62 		.ascii	"Number of lines is %i\012\000"
 2857      6572206F 
 2857      66206C69 
 2857      6E657320 
 2857      69732025 
ARM GAS  C:\Users\EVGENY~1\AppData\Local\Temp\ccpzgcQX.s 			page 72


 2858 01cb 00       		.space	1
 2859              	.LC18:
 2860 01cc 6F6E6520 		.ascii	"one loop, %lu lines passed by\012\000"
 2860      6C6F6F70 
 2860      2C20256C 
 2860      75206C69 
 2860      6E657320 
 2861 01eb 00       		.space	1
 2862              	.LC19:
 2863 01ec 74696D65 		.ascii	"time elapsed: %ims\000"
 2863      20656C61 
 2863      70736564 
 2863      3A202569 
 2863      6D7300
 2864 01ff 00       		.space	1
 2865              	.LC20:
 2866 0200 5A756D6F 		.ascii	"Zumo06/lap/\000"
 2866      30362F6C 
 2866      61702F00 
 2867              	.LC21:
 2868 020c 7A756D6F 		.ascii	"zumo\000"
 2868      00
 2869 0211 000000   		.space	3
 2870              	.LC22:
 2871 0214 5A756D6F 		.ascii	"Zumo06/ready/\000"
 2871      30362F72 
 2871      65616479 
 2871      2F00
 2872 0222 0000     		.space	2
 2873              	.LC23:
 2874 0224 6C696E65 		.ascii	"line\000"
 2874      00
 2875 0229 000000   		.space	3
 2876              	.LC24:
 2877 022c 20256900 		.ascii	" %i\000"
 2878              	.LC25:
 2879 0230 5A756D6F 		.ascii	"Zumo06/start/\000"
 2879      30362F73 
 2879      74617274 
 2879      2F00
 2880 023e 0000     		.space	2
 2881              	.LC26:
 2882 0240 5A756D6F 		.ascii	"Zumo06/obstacle/\000"
 2882      30362F6F 
 2882      62737461 
 2882      636C652F 
 2882      00
 2883 0251 000000   		.space	3
 2884              	.LC27:
 2885 0254 6D617A65 		.ascii	"maze\000"
 2885      00
 2886 0259 000000   		.space	3
 2887              	.LC28:
 2888 025c 25692025 		.ascii	"%i %i\000"
 2888      6900
 2889 0262 0000     		.space	2
 2890              	.LC29:
ARM GAS  C:\Users\EVGENY~1\AppData\Local\Temp\ccpzgcQX.s 			page 73


 2891 0264 5A756D6F 		.ascii	"Zumo06/position/\000"
 2891      30362F70 
 2891      6F736974 
 2891      696F6E2F 
 2891      00
 2892 0275 000000   		.space	3
 2893              	.LC30:
 2894 0278 454E4400 		.ascii	"END\000"
 2895              		.text
 2896              	.Letext0:
 2897              		.file 2 "c:\\program files (x86)\\cypress\\psoc creator\\4.2\\psoc creator\\import\\gnu\\arm\\5.4.
 2898              		.file 3 "c:\\program files (x86)\\cypress\\psoc creator\\4.2\\psoc creator\\import\\gnu\\arm\\5.4.
 2899              		.file 4 "Generated_Source\\PSoC5/cytypes.h"
 2900              		.file 5 ".\\ZumoLibrary/Reflectance.h"
 2901              		.file 6 ".\\ZumoLibrary/Motor.h"
 2902              		.file 7 ".\\ZumoLibrary/Ultra.h"
 2903              		.file 8 "c:\\program files (x86)\\cypress\\psoc creator\\4.2\\psoc creator\\import\\gnu\\arm\\5.4.
 2904              		.file 9 "..\\FreeRTOS\\Source\\include/task.h"
 2905              		.file 10 "Generated_Source\\PSoC5/SW1.h"
 2906              		.file 11 ".\\ZumoLibrary/IR.h"
 2907              		.file 12 ".\\ZumoLibrary/mqtt_sender.h"
 2908              		.file 13 "Generated_Source\\PSoC5/BatteryLed.h"
 2909              		.file 14 "c:\\program files (x86)\\cypress\\psoc creator\\4.2\\psoc creator\\import\\gnu\\arm\\5.4
 2910              		.file 15 "Generated_Source\\PSoC5/core_cm3.h"
 2911              		.file 16 "<built-in>"
 2912              		.section	.debug_info,"",%progbits
 2913              	.Ldebug_info0:
 2914 0000 A9200000 		.4byte	0x20a9
 2915 0004 0400     		.2byte	0x4
 2916 0006 00000000 		.4byte	.Ldebug_abbrev0
 2917 000a 04       		.byte	0x4
 2918 000b 01       		.uleb128 0x1
 2919 000c BC030000 		.4byte	.LASF106
 2920 0010 0C       		.byte	0xc
 2921 0011 AA020000 		.4byte	.LASF107
 2922 0015 8F010000 		.4byte	.LASF108
 2923 0019 00000000 		.4byte	.Ldebug_ranges0+0
 2924 001d 00000000 		.4byte	0
 2925 0021 00000000 		.4byte	.Ldebug_line0
 2926 0025 02       		.uleb128 0x2
 2927 0026 08       		.byte	0x8
 2928 0027 07       		.byte	0x7
 2929 0028 74000000 		.4byte	.LASF0
 2930 002c 02       		.uleb128 0x2
 2931 002d 04       		.byte	0x4
 2932 002e 07       		.byte	0x7
 2933 002f 02020000 		.4byte	.LASF1
 2934 0033 02       		.uleb128 0x2
 2935 0034 01       		.byte	0x1
 2936 0035 06       		.byte	0x6
 2937 0036 D5000000 		.4byte	.LASF2
 2938 003a 03       		.uleb128 0x3
 2939 003b 3E000000 		.4byte	.LASF5
 2940 003f 02       		.byte	0x2
 2941 0040 1D       		.byte	0x1d
 2942 0041 45000000 		.4byte	0x45
 2943 0045 02       		.uleb128 0x2
ARM GAS  C:\Users\EVGENY~1\AppData\Local\Temp\ccpzgcQX.s 			page 74


 2944 0046 01       		.byte	0x1
 2945 0047 08       		.byte	0x8
 2946 0048 7D030000 		.4byte	.LASF3
 2947 004c 02       		.uleb128 0x2
 2948 004d 02       		.byte	0x2
 2949 004e 05       		.byte	0x5
 2950 004f 9F030000 		.4byte	.LASF4
 2951 0053 03       		.uleb128 0x3
 2952 0054 79040000 		.4byte	.LASF6
 2953 0058 02       		.byte	0x2
 2954 0059 2B       		.byte	0x2b
 2955 005a 5E000000 		.4byte	0x5e
 2956 005e 02       		.uleb128 0x2
 2957 005f 02       		.byte	0x2
 2958 0060 07       		.byte	0x7
 2959 0061 53020000 		.4byte	.LASF7
 2960 0065 03       		.uleb128 0x3
 2961 0066 84040000 		.4byte	.LASF8
 2962 006a 02       		.byte	0x2
 2963 006b 3F       		.byte	0x3f
 2964 006c 70000000 		.4byte	0x70
 2965 0070 02       		.uleb128 0x2
 2966 0071 04       		.byte	0x4
 2967 0072 05       		.byte	0x5
 2968 0073 18010000 		.4byte	.LASF9
 2969 0077 03       		.uleb128 0x3
 2970 0078 7A010000 		.4byte	.LASF10
 2971 007c 02       		.byte	0x2
 2972 007d 41       		.byte	0x41
 2973 007e 82000000 		.4byte	0x82
 2974 0082 02       		.uleb128 0x2
 2975 0083 04       		.byte	0x4
 2976 0084 07       		.byte	0x7
 2977 0085 23020000 		.4byte	.LASF11
 2978 0089 02       		.uleb128 0x2
 2979 008a 08       		.byte	0x8
 2980 008b 05       		.byte	0x5
 2981 008c C7000000 		.4byte	.LASF12
 2982 0090 04       		.uleb128 0x4
 2983 0091 04       		.byte	0x4
 2984 0092 05       		.byte	0x5
 2985 0093 696E7400 		.ascii	"int\000"
 2986 0097 03       		.uleb128 0x3
 2987 0098 D4040000 		.4byte	.LASF13
 2988 009c 03       		.byte	0x3
 2989 009d 18       		.byte	0x18
 2990 009e 3A000000 		.4byte	0x3a
 2991 00a2 03       		.uleb128 0x3
 2992 00a3 57010000 		.4byte	.LASF14
 2993 00a7 03       		.byte	0x3
 2994 00a8 24       		.byte	0x24
 2995 00a9 53000000 		.4byte	0x53
 2996 00ad 03       		.uleb128 0x3
 2997 00ae 75030000 		.4byte	.LASF15
 2998 00b2 03       		.byte	0x3
 2999 00b3 2C       		.byte	0x2c
 3000 00b4 65000000 		.4byte	0x65
ARM GAS  C:\Users\EVGENY~1\AppData\Local\Temp\ccpzgcQX.s 			page 75


 3001 00b8 03       		.uleb128 0x3
 3002 00b9 56040000 		.4byte	.LASF16
 3003 00bd 03       		.byte	0x3
 3004 00be 30       		.byte	0x30
 3005 00bf 77000000 		.4byte	0x77
 3006 00c3 05       		.uleb128 0x5
 3007 00c4 51010000 		.4byte	.LASF17
 3008 00c8 04       		.byte	0x4
 3009 00c9 E401     		.2byte	0x1e4
 3010 00cb 45000000 		.4byte	0x45
 3011 00cf 05       		.uleb128 0x5
 3012 00d0 67010000 		.4byte	.LASF18
 3013 00d4 04       		.byte	0x4
 3014 00d5 E601     		.2byte	0x1e6
 3015 00d7 82000000 		.4byte	0x82
 3016 00db 05       		.uleb128 0x5
 3017 00dc E6040000 		.4byte	.LASF19
 3018 00e0 04       		.byte	0x4
 3019 00e1 E801     		.2byte	0x1e8
 3020 00e3 4C000000 		.4byte	0x4c
 3021 00e7 02       		.uleb128 0x2
 3022 00e8 04       		.byte	0x4
 3023 00e9 04       		.byte	0x4
 3024 00ea 27030000 		.4byte	.LASF20
 3025 00ee 02       		.uleb128 0x2
 3026 00ef 08       		.byte	0x8
 3027 00f0 04       		.byte	0x4
 3028 00f1 60010000 		.4byte	.LASF21
 3029 00f5 02       		.uleb128 0x2
 3030 00f6 01       		.byte	0x1
 3031 00f7 08       		.byte	0x8
 3032 00f8 6B040000 		.4byte	.LASF22
 3033 00fc 02       		.uleb128 0x2
 3034 00fd 08       		.byte	0x8
 3035 00fe 04       		.byte	0x4
 3036 00ff 5F040000 		.4byte	.LASF23
 3037 0103 02       		.uleb128 0x2
 3038 0104 04       		.byte	0x4
 3039 0105 07       		.byte	0x7
 3040 0106 D4020000 		.4byte	.LASF24
 3041 010a 06       		.uleb128 0x6
 3042 010b 70040000 		.4byte	.LASF109
 3043 010f 0C       		.byte	0xc
 3044 0110 05       		.byte	0x5
 3045 0111 0E       		.byte	0xe
 3046 0112 59010000 		.4byte	0x159
 3047 0116 07       		.uleb128 0x7
 3048 0117 4C3300   		.ascii	"L3\000"
 3049 011a 05       		.byte	0x5
 3050 011b 0F       		.byte	0xf
 3051 011c A2000000 		.4byte	0xa2
 3052 0120 00       		.byte	0
 3053 0121 07       		.uleb128 0x7
 3054 0122 4C3200   		.ascii	"L2\000"
 3055 0125 05       		.byte	0x5
 3056 0126 10       		.byte	0x10
 3057 0127 A2000000 		.4byte	0xa2
ARM GAS  C:\Users\EVGENY~1\AppData\Local\Temp\ccpzgcQX.s 			page 76


 3058 012b 02       		.byte	0x2
 3059 012c 07       		.uleb128 0x7
 3060 012d 4C3100   		.ascii	"L1\000"
 3061 0130 05       		.byte	0x5
 3062 0131 11       		.byte	0x11
 3063 0132 A2000000 		.4byte	0xa2
 3064 0136 04       		.byte	0x4
 3065 0137 07       		.uleb128 0x7
 3066 0138 523100   		.ascii	"R1\000"
 3067 013b 05       		.byte	0x5
 3068 013c 12       		.byte	0x12
 3069 013d A2000000 		.4byte	0xa2
 3070 0141 06       		.byte	0x6
 3071 0142 07       		.uleb128 0x7
 3072 0143 523200   		.ascii	"R2\000"
 3073 0146 05       		.byte	0x5
 3074 0147 13       		.byte	0x13
 3075 0148 A2000000 		.4byte	0xa2
 3076 014c 08       		.byte	0x8
 3077 014d 07       		.uleb128 0x7
 3078 014e 523300   		.ascii	"R3\000"
 3079 0151 05       		.byte	0x5
 3080 0152 14       		.byte	0x14
 3081 0153 A2000000 		.4byte	0xa2
 3082 0157 0A       		.byte	0xa
 3083 0158 00       		.byte	0
 3084 0159 08       		.uleb128 0x8
 3085 015a F6010000 		.4byte	.LASF33
 3086 015e 01       		.byte	0x1
 3087 015f 35       		.byte	0x35
 3088 0160 00000000 		.4byte	.LFB86
 3089 0164 7C000000 		.4byte	.LFE86-.LFB86
 3090 0168 01       		.uleb128 0x1
 3091 0169 9C       		.byte	0x9c
 3092 016a AD020000 		.4byte	0x2ad
 3093 016e 09       		.uleb128 0x9
 3094 016f 20000000 		.4byte	.LBB2
 3095 0173 44000000 		.4byte	.LBE2-.LBB2
 3096 0177 38020000 		.4byte	0x238
 3097 017b 0A       		.uleb128 0xa
 3098 017c 6400     		.ascii	"d\000"
 3099 017e 01       		.byte	0x1
 3100 017f 40       		.byte	0x40
 3101 0180 90000000 		.4byte	0x90
 3102 0184 00000000 		.4byte	.LLST0
 3103 0188 0B       		.uleb128 0xb
 3104 0189 28000000 		.4byte	.LVL6
 3105 018d A91F0000 		.4byte	0x1fa9
 3106 0191 A2010000 		.4byte	0x1a2
 3107 0195 0C       		.uleb128 0xc
 3108 0196 01       		.uleb128 0x1
 3109 0197 50       		.byte	0x50
 3110 0198 02       		.uleb128 0x2
 3111 0199 09       		.byte	0x9
 3112 019a 96       		.byte	0x96
 3113 019b 0C       		.uleb128 0xc
 3114 019c 01       		.uleb128 0x1
ARM GAS  C:\Users\EVGENY~1\AppData\Local\Temp\ccpzgcQX.s 			page 77


 3115 019d 51       		.byte	0x51
 3116 019e 02       		.uleb128 0x2
 3117 019f 08       		.byte	0x8
 3118 01a0 32       		.byte	0x32
 3119 01a1 00       		.byte	0
 3120 01a2 0D       		.uleb128 0xd
 3121 01a3 2C000000 		.4byte	.LVL7
 3122 01a7 B41F0000 		.4byte	0x1fb4
 3123 01ab 0B       		.uleb128 0xb
 3124 01ac 36000000 		.4byte	.LVL10
 3125 01b0 BF1F0000 		.4byte	0x1fbf
 3126 01b4 C8010000 		.4byte	0x1c8
 3127 01b8 0C       		.uleb128 0xc
 3128 01b9 01       		.uleb128 0x1
 3129 01ba 50       		.byte	0x50
 3130 01bb 05       		.uleb128 0x5
 3131 01bc 03       		.byte	0x3
 3132 01bd 34000000 		.4byte	.LC1
 3133 01c1 0C       		.uleb128 0xc
 3134 01c2 01       		.uleb128 0x1
 3135 01c3 51       		.byte	0x51
 3136 01c4 02       		.uleb128 0x2
 3137 01c5 74       		.byte	0x74
 3138 01c6 00       		.sleb128 0
 3139 01c7 00       		.byte	0
 3140 01c8 0B       		.uleb128 0xb
 3141 01c9 3C000000 		.4byte	.LVL11
 3142 01cd CA1F0000 		.4byte	0x1fca
 3143 01d1 DC010000 		.4byte	0x1dc
 3144 01d5 0C       		.uleb128 0xc
 3145 01d6 01       		.uleb128 0x1
 3146 01d7 50       		.byte	0x50
 3147 01d8 02       		.uleb128 0x2
 3148 01d9 08       		.byte	0x8
 3149 01da 64       		.byte	0x64
 3150 01db 00       		.byte	0
 3151 01dc 0B       		.uleb128 0xb
 3152 01dd 48000000 		.4byte	.LVL12
 3153 01e1 A91F0000 		.4byte	0x1fa9
 3154 01e5 F4010000 		.4byte	0x1f4
 3155 01e9 0C       		.uleb128 0xc
 3156 01ea 01       		.uleb128 0x1
 3157 01eb 50       		.byte	0x50
 3158 01ec 01       		.uleb128 0x1
 3159 01ed 30       		.byte	0x30
 3160 01ee 0C       		.uleb128 0xc
 3161 01ef 01       		.uleb128 0x1
 3162 01f0 51       		.byte	0x51
 3163 01f1 01       		.uleb128 0x1
 3164 01f2 3A       		.byte	0x3a
 3165 01f3 00       		.byte	0
 3166 01f4 0B       		.uleb128 0xb
 3167 01f5 50000000 		.4byte	.LVL13
 3168 01f9 D61F0000 		.4byte	0x1fd6
 3169 01fd 0E020000 		.4byte	0x20e
 3170 0201 0C       		.uleb128 0xc
 3171 0202 01       		.uleb128 0x1
ARM GAS  C:\Users\EVGENY~1\AppData\Local\Temp\ccpzgcQX.s 			page 78


 3172 0203 50       		.byte	0x50
 3173 0204 02       		.uleb128 0x2
 3174 0205 08       		.byte	0x8
 3175 0206 64       		.byte	0x64
 3176 0207 0C       		.uleb128 0xc
 3177 0208 01       		.uleb128 0x1
 3178 0209 51       		.byte	0x51
 3179 020a 02       		.uleb128 0x2
 3180 020b 08       		.byte	0x8
 3181 020c 96       		.byte	0x96
 3182 020d 00       		.byte	0
 3183 020e 0B       		.uleb128 0xb
 3184 020f 5C000000 		.4byte	.LVL14
 3185 0213 E11F0000 		.4byte	0x1fe1
 3186 0217 2E020000 		.4byte	0x22e
 3187 021b 0C       		.uleb128 0xc
 3188 021c 01       		.uleb128 0x1
 3189 021d 50       		.byte	0x50
 3190 021e 01       		.uleb128 0x1
 3191 021f 30       		.byte	0x30
 3192 0220 0C       		.uleb128 0xc
 3193 0221 01       		.uleb128 0x1
 3194 0222 51       		.byte	0x51
 3195 0223 02       		.uleb128 0x2
 3196 0224 09       		.byte	0x9
 3197 0225 96       		.byte	0x96
 3198 0226 0C       		.uleb128 0xc
 3199 0227 01       		.uleb128 0x1
 3200 0228 52       		.byte	0x52
 3201 0229 03       		.uleb128 0x3
 3202 022a 0A       		.byte	0xa
 3203 022b CE01     		.2byte	0x1ce
 3204 022d 00       		.byte	0
 3205 022e 0D       		.uleb128 0xd
 3206 022f 60000000 		.4byte	.LVL15
 3207 0233 EC1F0000 		.4byte	0x1fec
 3208 0237 00       		.byte	0
 3209 0238 0B       		.uleb128 0xb
 3210 0239 08000000 		.4byte	.LVL0
 3211 023d BF1F0000 		.4byte	0x1fbf
 3212 0241 4F020000 		.4byte	0x24f
 3213 0245 0C       		.uleb128 0xc
 3214 0246 01       		.uleb128 0x1
 3215 0247 50       		.byte	0x50
 3216 0248 05       		.uleb128 0x5
 3217 0249 03       		.byte	0x3
 3218 024a 00000000 		.4byte	.LC0
 3219 024e 00       		.byte	0
 3220 024f 0D       		.uleb128 0xd
 3221 0250 0C000000 		.4byte	.LVL1
 3222 0254 F71F0000 		.4byte	0x1ff7
 3223 0258 0D       		.uleb128 0xd
 3224 0259 10000000 		.4byte	.LVL2
 3225 025d 02200000 		.4byte	0x2002
 3226 0261 0B       		.uleb128 0xb
 3227 0262 18000000 		.4byte	.LVL3
 3228 0266 A91F0000 		.4byte	0x1fa9
ARM GAS  C:\Users\EVGENY~1\AppData\Local\Temp\ccpzgcQX.s 			page 79


 3229 026a 79020000 		.4byte	0x279
 3230 026e 0C       		.uleb128 0xc
 3231 026f 01       		.uleb128 0x1
 3232 0270 50       		.byte	0x50
 3233 0271 01       		.uleb128 0x1
 3234 0272 30       		.byte	0x30
 3235 0273 0C       		.uleb128 0xc
 3236 0274 01       		.uleb128 0x1
 3237 0275 51       		.byte	0x51
 3238 0276 01       		.uleb128 0x1
 3239 0277 30       		.byte	0x30
 3240 0278 00       		.byte	0
 3241 0279 0D       		.uleb128 0xd
 3242 027a 1C000000 		.4byte	.LVL4
 3243 027e 0D200000 		.4byte	0x200d
 3244 0282 0D       		.uleb128 0xd
 3245 0283 20000000 		.4byte	.LVL5
 3246 0287 18200000 		.4byte	0x2018
 3247 028b 0B       		.uleb128 0xb
 3248 028c 6C000000 		.4byte	.LVL16
 3249 0290 A91F0000 		.4byte	0x1fa9
 3250 0294 A3020000 		.4byte	0x2a3
 3251 0298 0C       		.uleb128 0xc
 3252 0299 01       		.uleb128 0x1
 3253 029a 50       		.byte	0x50
 3254 029b 01       		.uleb128 0x1
 3255 029c 30       		.byte	0x30
 3256 029d 0C       		.uleb128 0xc
 3257 029e 01       		.uleb128 0x1
 3258 029f 51       		.byte	0x51
 3259 02a0 01       		.uleb128 0x1
 3260 02a1 30       		.byte	0x30
 3261 02a2 00       		.byte	0
 3262 02a3 0D       		.uleb128 0xd
 3263 02a4 70000000 		.4byte	.LVL17
 3264 02a8 23200000 		.4byte	0x2023
 3265 02ac 00       		.byte	0
 3266 02ad 0E       		.uleb128 0xe
 3267 02ae 4A040000 		.4byte	.LASF28
 3268 02b2 01       		.byte	0x1
 3269 02b3 E6       		.byte	0xe6
 3270 02b4 00000000 		.4byte	.LFB91
 3271 02b8 A0000000 		.4byte	.LFE91-.LFB91
 3272 02bc 01       		.uleb128 0x1
 3273 02bd 9C       		.byte	0x9c
 3274 02be 1C040000 		.4byte	0x41c
 3275 02c2 0F       		.uleb128 0xf
 3276 02c3 DD020000 		.4byte	.LASF25
 3277 02c7 01       		.byte	0x1
 3278 02c8 E8       		.byte	0xe8
 3279 02c9 B8000000 		.4byte	0xb8
 3280 02cd 29000000 		.4byte	.LLST1
 3281 02d1 0F       		.uleb128 0xf
 3282 02d2 A7000000 		.4byte	.LASF26
 3283 02d6 01       		.byte	0x1
 3284 02d7 E8       		.byte	0xe8
 3285 02d8 B8000000 		.4byte	0xb8
ARM GAS  C:\Users\EVGENY~1\AppData\Local\Temp\ccpzgcQX.s 			page 80


 3286 02dc 48000000 		.4byte	.LLST2
 3287 02e0 0F       		.uleb128 0xf
 3288 02e1 91000000 		.4byte	.LASF27
 3289 02e5 01       		.byte	0x1
 3290 02e6 E8       		.byte	0xe8
 3291 02e7 B8000000 		.4byte	0xb8
 3292 02eb 72000000 		.4byte	.LLST3
 3293 02ef 0B       		.uleb128 0xb
 3294 02f0 0A000000 		.4byte	.LVL20
 3295 02f4 2E200000 		.4byte	0x202e
 3296 02f8 06030000 		.4byte	0x306
 3297 02fc 0C       		.uleb128 0xc
 3298 02fd 01       		.uleb128 0x1
 3299 02fe 50       		.byte	0x50
 3300 02ff 05       		.uleb128 0x5
 3301 0300 03       		.byte	0x3
 3302 0301 44000000 		.4byte	.LC2
 3303 0305 00       		.byte	0
 3304 0306 0B       		.uleb128 0xb
 3305 0307 10000000 		.4byte	.LVL21
 3306 030b 2E200000 		.4byte	0x202e
 3307 030f 1D030000 		.4byte	0x31d
 3308 0313 0C       		.uleb128 0xc
 3309 0314 01       		.uleb128 0x1
 3310 0315 50       		.byte	0x50
 3311 0316 05       		.uleb128 0x5
 3312 0317 03       		.byte	0x3
 3313 0318 5C000000 		.4byte	.LC3
 3314 031c 00       		.byte	0
 3315 031d 0D       		.uleb128 0xd
 3316 031e 14000000 		.4byte	.LVL22
 3317 0322 3D200000 		.4byte	0x203d
 3318 0326 0B       		.uleb128 0xb
 3319 0327 1E000000 		.4byte	.LVL25
 3320 032b CA1F0000 		.4byte	0x1fca
 3321 032f 39030000 		.4byte	0x339
 3322 0333 0C       		.uleb128 0xc
 3323 0334 01       		.uleb128 0x1
 3324 0335 50       		.byte	0x50
 3325 0336 01       		.uleb128 0x1
 3326 0337 31       		.byte	0x31
 3327 0338 00       		.byte	0
 3328 0339 0D       		.uleb128 0xd
 3329 033a 22000000 		.4byte	.LVL26
 3330 033e EC1F0000 		.4byte	0x1fec
 3331 0342 0D       		.uleb128 0xd
 3332 0343 2A000000 		.4byte	.LVL27
 3333 0347 3D200000 		.4byte	0x203d
 3334 034b 0B       		.uleb128 0xb
 3335 034c 34000000 		.4byte	.LVL30
 3336 0350 CA1F0000 		.4byte	0x1fca
 3337 0354 5E030000 		.4byte	0x35e
 3338 0358 0C       		.uleb128 0xc
 3339 0359 01       		.uleb128 0x1
 3340 035a 50       		.byte	0x50
 3341 035b 01       		.uleb128 0x1
 3342 035c 31       		.byte	0x31
ARM GAS  C:\Users\EVGENY~1\AppData\Local\Temp\ccpzgcQX.s 			page 81


 3343 035d 00       		.byte	0
 3344 035e 0D       		.uleb128 0xd
 3345 035f 38000000 		.4byte	.LVL31
 3346 0363 EC1F0000 		.4byte	0x1fec
 3347 0367 10       		.uleb128 0x10
 3348 0368 80000000 		.4byte	.LVL32
 3349 036c 49200000 		.4byte	0x2049
 3350 0370 0C       		.uleb128 0xc
 3351 0371 01       		.uleb128 0x1
 3352 0372 50       		.byte	0x50
 3353 0373 05       		.uleb128 0x5
 3354 0374 03       		.byte	0x3
 3355 0375 BC000000 		.4byte	.LC5
 3356 0379 0C       		.uleb128 0xc
 3357 037a 01       		.uleb128 0x1
 3358 037b 51       		.byte	0x51
 3359 037c 05       		.uleb128 0x5
 3360 037d 03       		.byte	0x3
 3361 037e 6C000000 		.4byte	.LC4
 3362 0382 0C       		.uleb128 0xc
 3363 0383 01       		.uleb128 0x1
 3364 0384 52       		.byte	0x52
 3365 0385 02       		.uleb128 0x2
 3366 0386 74       		.byte	0x74
 3367 0387 00       		.sleb128 0
 3368 0388 0C       		.uleb128 0xc
 3369 0389 01       		.uleb128 0x1
 3370 038a 53       		.byte	0x53
 3371 038b 1A       		.uleb128 0x1a
 3372 038c 74       		.byte	0x74
 3373 038d 00       		.sleb128 0
 3374 038e F7       		.byte	0xf7
 3375 038f 2C       		.uleb128 0x2c
 3376 0390 F7       		.byte	0xf7
 3377 0391 25       		.uleb128 0x25
 3378 0392 0C       		.byte	0xc
 3379 0393 73B2E745 		.4byte	0x45e7b273
 3380 0397 F7       		.byte	0xf7
 3381 0398 25       		.uleb128 0x25
 3382 0399 1E       		.byte	0x1e
 3383 039a 08       		.byte	0x8
 3384 039b 20       		.byte	0x20
 3385 039c F7       		.byte	0xf7
 3386 039d 25       		.uleb128 0x25
 3387 039e 25       		.byte	0x25
 3388 039f F7       		.byte	0xf7
 3389 03a0 2C       		.uleb128 0x2c
 3390 03a1 3E       		.byte	0x3e
 3391 03a2 25       		.byte	0x25
 3392 03a3 75       		.byte	0x75
 3393 03a4 00       		.sleb128 0
 3394 03a5 1C       		.byte	0x1c
 3395 03a6 0C       		.uleb128 0xc
 3396 03a7 02       		.uleb128 0x2
 3397 03a8 7D       		.byte	0x7d
 3398 03a9 00       		.sleb128 0
 3399 03aa 4C       		.uleb128 0x4c
ARM GAS  C:\Users\EVGENY~1\AppData\Local\Temp\ccpzgcQX.s 			page 82


 3400 03ab 74       		.byte	0x74
 3401 03ac 00       		.sleb128 0
 3402 03ad F7       		.byte	0xf7
 3403 03ae 2C       		.uleb128 0x2c
 3404 03af F7       		.byte	0xf7
 3405 03b0 25       		.uleb128 0x25
 3406 03b1 0C       		.byte	0xc
 3407 03b2 D34D6210 		.4byte	0x10624dd3
 3408 03b6 F7       		.byte	0xf7
 3409 03b7 25       		.uleb128 0x25
 3410 03b8 1E       		.byte	0x1e
 3411 03b9 08       		.byte	0x8
 3412 03ba 20       		.byte	0x20
 3413 03bb F7       		.byte	0xf7
 3414 03bc 25       		.uleb128 0x25
 3415 03bd 25       		.byte	0x25
 3416 03be F7       		.byte	0xf7
 3417 03bf 2C       		.uleb128 0x2c
 3418 03c0 36       		.byte	0x36
 3419 03c1 25       		.byte	0x25
 3420 03c2 74       		.byte	0x74
 3421 03c3 00       		.sleb128 0
 3422 03c4 F7       		.byte	0xf7
 3423 03c5 2C       		.uleb128 0x2c
 3424 03c6 F7       		.byte	0xf7
 3425 03c7 25       		.uleb128 0x25
 3426 03c8 0C       		.byte	0xc
 3427 03c9 D34D6210 		.4byte	0x10624dd3
 3428 03cd F7       		.byte	0xf7
 3429 03ce 25       		.uleb128 0x25
 3430 03cf 1E       		.byte	0x1e
 3431 03d0 08       		.byte	0x8
 3432 03d1 20       		.byte	0x20
 3433 03d2 F7       		.byte	0xf7
 3434 03d3 25       		.uleb128 0x25
 3435 03d4 25       		.byte	0x25
 3436 03d5 F7       		.byte	0xf7
 3437 03d6 2C       		.uleb128 0x2c
 3438 03d7 36       		.byte	0x36
 3439 03d8 25       		.byte	0x25
 3440 03d9 F7       		.byte	0xf7
 3441 03da 2C       		.uleb128 0x2c
 3442 03db F7       		.byte	0xf7
 3443 03dc 25       		.uleb128 0x25
 3444 03dd F4       		.byte	0xf4
 3445 03de 25       		.uleb128 0x25
 3446 03df 08       		.byte	0x8
 3447 03e0 89888888 		.8byte	0x88888889
 3447      00000000 
 3448 03e8 1E       		.byte	0x1e
 3449 03e9 08       		.byte	0x8
 3450 03ea 20       		.byte	0x20
 3451 03eb F7       		.byte	0xf7
 3452 03ec 25       		.uleb128 0x25
 3453 03ed 25       		.byte	0x25
 3454 03ee F7       		.byte	0xf7
 3455 03ef 2C       		.uleb128 0x2c
ARM GAS  C:\Users\EVGENY~1\AppData\Local\Temp\ccpzgcQX.s 			page 83


 3456 03f0 35       		.byte	0x35
 3457 03f1 25       		.byte	0x25
 3458 03f2 3F       		.byte	0x3f
 3459 03f3 1E       		.byte	0x1e
 3460 03f4 32       		.byte	0x32
 3461 03f5 24       		.byte	0x24
 3462 03f6 1C       		.byte	0x1c
 3463 03f7 0C       		.uleb128 0xc
 3464 03f8 02       		.uleb128 0x2
 3465 03f9 7D       		.byte	0x7d
 3466 03fa 04       		.sleb128 4
 3467 03fb 1E       		.uleb128 0x1e
 3468 03fc 74       		.byte	0x74
 3469 03fd 00       		.sleb128 0
 3470 03fe 74       		.byte	0x74
 3471 03ff 00       		.sleb128 0
 3472 0400 F7       		.byte	0xf7
 3473 0401 2C       		.uleb128 0x2c
 3474 0402 F7       		.byte	0xf7
 3475 0403 25       		.uleb128 0x25
 3476 0404 0C       		.byte	0xc
 3477 0405 D34D6210 		.4byte	0x10624dd3
 3478 0409 F7       		.byte	0xf7
 3479 040a 25       		.uleb128 0x25
 3480 040b 1E       		.byte	0x1e
 3481 040c 08       		.byte	0x8
 3482 040d 20       		.byte	0x20
 3483 040e F7       		.byte	0xf7
 3484 040f 25       		.uleb128 0x25
 3485 0410 25       		.byte	0x25
 3486 0411 F7       		.byte	0xf7
 3487 0412 2C       		.uleb128 0x2c
 3488 0413 36       		.byte	0x36
 3489 0414 25       		.byte	0x25
 3490 0415 0A       		.byte	0xa
 3491 0416 E803     		.2byte	0x3e8
 3492 0418 1E       		.byte	0x1e
 3493 0419 1C       		.byte	0x1c
 3494 041a 00       		.byte	0
 3495 041b 00       		.byte	0
 3496 041c 11       		.uleb128 0x11
 3497 041d EB010000 		.4byte	.LASF29
 3498 0421 01       		.byte	0x1
 3499 0422 7B02     		.2byte	0x27b
 3500 0424 90000000 		.4byte	0x90
 3501 0428 00000000 		.4byte	.LFB99
 3502 042c 1E000000 		.4byte	.LFE99-.LFB99
 3503 0430 01       		.uleb128 0x1
 3504 0431 9C       		.byte	0x9c
 3505 0432 4E040000 		.4byte	0x44e
 3506 0436 12       		.uleb128 0x12
 3507 0437 5900     		.ascii	"Y\000"
 3508 0439 01       		.byte	0x1
 3509 043a 7B02     		.2byte	0x27b
 3510 043c 4E040000 		.4byte	0x44e
 3511 0440 91000000 		.4byte	.LLST4
 3512 0444 0D       		.uleb128 0xd
ARM GAS  C:\Users\EVGENY~1\AppData\Local\Temp\ccpzgcQX.s 			page 84


 3513 0445 08000000 		.4byte	.LVL34
 3514 0449 B41F0000 		.4byte	0x1fb4
 3515 044d 00       		.byte	0
 3516 044e 13       		.uleb128 0x13
 3517 044f 04       		.byte	0x4
 3518 0450 90000000 		.4byte	0x90
 3519 0454 14       		.uleb128 0x14
 3520 0455 A4040000 		.4byte	.LASF30
 3521 0459 01       		.byte	0x1
 3522 045a 8B02     		.2byte	0x28b
 3523 045c 00000000 		.4byte	.LFB100
 3524 0460 18000000 		.4byte	.LFE100-.LFB100
 3525 0464 01       		.uleb128 0x1
 3526 0465 9C       		.byte	0x9c
 3527 0466 AF040000 		.4byte	0x4af
 3528 046a 15       		.uleb128 0x15
 3529 046b 99030000 		.4byte	.LASF31
 3530 046f 01       		.byte	0x1
 3531 0470 8B02     		.2byte	0x28b
 3532 0472 B8000000 		.4byte	0xb8
 3533 0476 AF000000 		.4byte	.LLST5
 3534 047a 16       		.uleb128 0x16
 3535 047b 6C656400 		.ascii	"led\000"
 3536 047f 01       		.byte	0x1
 3537 0480 8C02     		.2byte	0x28c
 3538 0482 AF040000 		.4byte	0x4af
 3539 0486 CD000000 		.4byte	.LLST6
 3540 048a 0B       		.uleb128 0xb
 3541 048b 10000000 		.4byte	.LVL41
 3542 048f 54200000 		.4byte	0x2054
 3543 0493 9E040000 		.4byte	0x49e
 3544 0497 0C       		.uleb128 0xc
 3545 0498 01       		.uleb128 0x1
 3546 0499 50       		.byte	0x50
 3547 049a 02       		.uleb128 0x2
 3548 049b 74       		.byte	0x74
 3549 049c 00       		.sleb128 0
 3550 049d 00       		.byte	0
 3551 049e 10       		.uleb128 0x10
 3552 049f 16000000 		.4byte	.LVL42
 3553 04a3 CA1F0000 		.4byte	0x1fca
 3554 04a7 0C       		.uleb128 0xc
 3555 04a8 01       		.uleb128 0x1
 3556 04a9 50       		.byte	0x50
 3557 04aa 02       		.uleb128 0x2
 3558 04ab 75       		.byte	0x75
 3559 04ac 00       		.sleb128 0
 3560 04ad 00       		.byte	0
 3561 04ae 00       		.byte	0
 3562 04af 02       		.uleb128 0x2
 3563 04b0 01       		.byte	0x1
 3564 04b1 02       		.byte	0x2
 3565 04b2 6F030000 		.4byte	.LASF32
 3566 04b6 17       		.uleb128 0x17
 3567 04b7 0A010000 		.4byte	.LASF34
 3568 04bb 01       		.byte	0x1
 3569 04bc 9202     		.2byte	0x292
ARM GAS  C:\Users\EVGENY~1\AppData\Local\Temp\ccpzgcQX.s 			page 85


 3570 04be 00000000 		.4byte	.LFB101
 3571 04c2 18000000 		.4byte	.LFE101-.LFB101
 3572 04c6 01       		.uleb128 0x1
 3573 04c7 9C       		.byte	0x9c
 3574 04c8 09050000 		.4byte	0x509
 3575 04cc 15       		.uleb128 0x15
 3576 04cd EC040000 		.4byte	.LASF35
 3577 04d1 01       		.byte	0x1
 3578 04d2 9202     		.2byte	0x292
 3579 04d4 97000000 		.4byte	0x97
 3580 04d8 EC000000 		.4byte	.LLST7
 3581 04dc 15       		.uleb128 0x15
 3582 04dd 99030000 		.4byte	.LASF31
 3583 04e1 01       		.byte	0x1
 3584 04e2 9202     		.2byte	0x292
 3585 04e4 B8000000 		.4byte	0xb8
 3586 04e8 0D010000 		.4byte	.LLST8
 3587 04ec 10       		.uleb128 0x10
 3588 04ed 12000000 		.4byte	.LVL46
 3589 04f1 5F200000 		.4byte	0x205f
 3590 04f5 0C       		.uleb128 0xc
 3591 04f6 01       		.uleb128 0x1
 3592 04f7 50       		.byte	0x50
 3593 04f8 01       		.uleb128 0x1
 3594 04f9 31       		.byte	0x31
 3595 04fa 0C       		.uleb128 0xc
 3596 04fb 01       		.uleb128 0x1
 3597 04fc 51       		.byte	0x51
 3598 04fd 01       		.uleb128 0x1
 3599 04fe 30       		.byte	0x30
 3600 04ff 0C       		.uleb128 0xc
 3601 0500 02       		.uleb128 0x2
 3602 0501 7D       		.byte	0x7d
 3603 0502 00       		.sleb128 0
 3604 0503 03       		.uleb128 0x3
 3605 0504 F3       		.byte	0xf3
 3606 0505 01       		.uleb128 0x1
 3607 0506 51       		.byte	0x51
 3608 0507 00       		.byte	0
 3609 0508 00       		.byte	0
 3610 0509 17       		.uleb128 0x17
 3611 050a 8E040000 		.4byte	.LASF36
 3612 050e 01       		.byte	0x1
 3613 050f 9602     		.2byte	0x296
 3614 0511 00000000 		.4byte	.LFB102
 3615 0515 18000000 		.4byte	.LFE102-.LFB102
 3616 0519 01       		.uleb128 0x1
 3617 051a 9C       		.byte	0x9c
 3618 051b 5C050000 		.4byte	0x55c
 3619 051f 15       		.uleb128 0x15
 3620 0520 EC040000 		.4byte	.LASF35
 3621 0524 01       		.byte	0x1
 3622 0525 9602     		.2byte	0x296
 3623 0527 97000000 		.4byte	0x97
 3624 052b 3A010000 		.4byte	.LLST9
 3625 052f 15       		.uleb128 0x15
 3626 0530 99030000 		.4byte	.LASF31
ARM GAS  C:\Users\EVGENY~1\AppData\Local\Temp\ccpzgcQX.s 			page 86


 3627 0534 01       		.byte	0x1
 3628 0535 9602     		.2byte	0x296
 3629 0537 B8000000 		.4byte	0xb8
 3630 053b 5B010000 		.4byte	.LLST10
 3631 053f 10       		.uleb128 0x10
 3632 0540 12000000 		.4byte	.LVL50
 3633 0544 5F200000 		.4byte	0x205f
 3634 0548 0C       		.uleb128 0xc
 3635 0549 01       		.uleb128 0x1
 3636 054a 50       		.byte	0x50
 3637 054b 01       		.uleb128 0x1
 3638 054c 30       		.byte	0x30
 3639 054d 0C       		.uleb128 0xc
 3640 054e 01       		.uleb128 0x1
 3641 054f 51       		.byte	0x51
 3642 0550 01       		.uleb128 0x1
 3643 0551 31       		.byte	0x31
 3644 0552 0C       		.uleb128 0xc
 3645 0553 02       		.uleb128 0x2
 3646 0554 7D       		.byte	0x7d
 3647 0555 00       		.sleb128 0
 3648 0556 03       		.uleb128 0x3
 3649 0557 F3       		.byte	0xf3
 3650 0558 01       		.uleb128 0x1
 3651 0559 51       		.byte	0x51
 3652 055a 00       		.byte	0
 3653 055b 00       		.byte	0
 3654 055c 0E       		.uleb128 0xe
 3655 055d B0030000 		.4byte	.LASF37
 3656 0561 01       		.byte	0x1
 3657 0562 1D       		.byte	0x1d
 3658 0563 00000000 		.4byte	.LFB85
 3659 0567 68000000 		.4byte	.LFE85-.LFB85
 3660 056b 01       		.uleb128 0x1
 3661 056c 9C       		.byte	0x9c
 3662 056d 90060000 		.4byte	0x690
 3663 0571 0D       		.uleb128 0xd
 3664 0572 06000000 		.4byte	.LVL51
 3665 0576 02200000 		.4byte	0x2002
 3666 057a 0B       		.uleb128 0xb
 3667 057b 0E000000 		.4byte	.LVL52
 3668 057f A91F0000 		.4byte	0x1fa9
 3669 0583 92050000 		.4byte	0x592
 3670 0587 0C       		.uleb128 0xc
 3671 0588 01       		.uleb128 0x1
 3672 0589 50       		.byte	0x50
 3673 058a 01       		.uleb128 0x1
 3674 058b 30       		.byte	0x30
 3675 058c 0C       		.uleb128 0xc
 3676 058d 01       		.uleb128 0x1
 3677 058e 51       		.byte	0x51
 3678 058f 01       		.uleb128 0x1
 3679 0590 30       		.byte	0x30
 3680 0591 00       		.byte	0
 3681 0592 0D       		.uleb128 0xd
 3682 0593 12000000 		.4byte	.LVL53
 3683 0597 0D200000 		.4byte	0x200d
ARM GAS  C:\Users\EVGENY~1\AppData\Local\Temp\ccpzgcQX.s 			page 87


 3684 059b 0D       		.uleb128 0xd
 3685 059c 16000000 		.4byte	.LVL54
 3686 05a0 18200000 		.4byte	0x2018
 3687 05a4 0B       		.uleb128 0xb
 3688 05a5 20000000 		.4byte	.LVL55
 3689 05a9 A91F0000 		.4byte	0x1fa9
 3690 05ad BF050000 		.4byte	0x5bf
 3691 05b1 0C       		.uleb128 0xc
 3692 05b2 01       		.uleb128 0x1
 3693 05b3 50       		.byte	0x50
 3694 05b4 02       		.uleb128 0x2
 3695 05b5 08       		.byte	0x8
 3696 05b6 7D       		.byte	0x7d
 3697 05b7 0C       		.uleb128 0xc
 3698 05b8 01       		.uleb128 0x1
 3699 05b9 51       		.byte	0x51
 3700 05ba 03       		.uleb128 0x3
 3701 05bb 0A       		.byte	0xa
 3702 05bc BE0A     		.2byte	0xabe
 3703 05be 00       		.byte	0
 3704 05bf 0B       		.uleb128 0xb
 3705 05c0 28000000 		.4byte	.LVL56
 3706 05c4 09050000 		.4byte	0x509
 3707 05c8 D9050000 		.4byte	0x5d9
 3708 05cc 0C       		.uleb128 0xc
 3709 05cd 01       		.uleb128 0x1
 3710 05ce 50       		.byte	0x50
 3711 05cf 02       		.uleb128 0x2
 3712 05d0 09       		.byte	0x9
 3713 05d1 FF       		.byte	0xff
 3714 05d2 0C       		.uleb128 0xc
 3715 05d3 01       		.uleb128 0x1
 3716 05d4 51       		.byte	0x51
 3717 05d5 02       		.uleb128 0x2
 3718 05d6 08       		.byte	0x8
 3719 05d7 67       		.byte	0x67
 3720 05d8 00       		.byte	0
 3721 05d9 0B       		.uleb128 0xb
 3722 05da 32000000 		.4byte	.LVL57
 3723 05de A91F0000 		.4byte	0x1fa9
 3724 05e2 F4050000 		.4byte	0x5f4
 3725 05e6 0C       		.uleb128 0xc
 3726 05e7 01       		.uleb128 0x1
 3727 05e8 50       		.byte	0x50
 3728 05e9 02       		.uleb128 0x2
 3729 05ea 08       		.byte	0x8
 3730 05eb 7D       		.byte	0x7d
 3731 05ec 0C       		.uleb128 0xc
 3732 05ed 01       		.uleb128 0x1
 3733 05ee 51       		.byte	0x51
 3734 05ef 03       		.uleb128 0x3
 3735 05f0 0A       		.byte	0xa
 3736 05f1 2E09     		.2byte	0x92e
 3737 05f3 00       		.byte	0
 3738 05f4 0B       		.uleb128 0xb
 3739 05f5 3A000000 		.4byte	.LVL58
 3740 05f9 09050000 		.4byte	0x509
ARM GAS  C:\Users\EVGENY~1\AppData\Local\Temp\ccpzgcQX.s 			page 88


 3741 05fd 0E060000 		.4byte	0x60e
 3742 0601 0C       		.uleb128 0xc
 3743 0602 01       		.uleb128 0x1
 3744 0603 50       		.byte	0x50
 3745 0604 02       		.uleb128 0x2
 3746 0605 09       		.byte	0x9
 3747 0606 FF       		.byte	0xff
 3748 0607 0C       		.uleb128 0xc
 3749 0608 01       		.uleb128 0x1
 3750 0609 51       		.byte	0x51
 3751 060a 02       		.uleb128 0x2
 3752 060b 08       		.byte	0x8
 3753 060c 67       		.byte	0x67
 3754 060d 00       		.byte	0
 3755 060e 0B       		.uleb128 0xb
 3756 060f 44000000 		.4byte	.LVL59
 3757 0613 A91F0000 		.4byte	0x1fa9
 3758 0617 29060000 		.4byte	0x629
 3759 061b 0C       		.uleb128 0xc
 3760 061c 01       		.uleb128 0x1
 3761 061d 50       		.byte	0x50
 3762 061e 02       		.uleb128 0x2
 3763 061f 08       		.byte	0x8
 3764 0620 7D       		.byte	0x7d
 3765 0621 0C       		.uleb128 0xc
 3766 0622 01       		.uleb128 0x1
 3767 0623 51       		.byte	0x51
 3768 0624 03       		.uleb128 0x3
 3769 0625 0A       		.byte	0xa
 3770 0626 F609     		.2byte	0x9f6
 3771 0628 00       		.byte	0
 3772 0629 0B       		.uleb128 0xb
 3773 062a 4C000000 		.4byte	.LVL60
 3774 062e 09050000 		.4byte	0x509
 3775 0632 43060000 		.4byte	0x643
 3776 0636 0C       		.uleb128 0xc
 3777 0637 01       		.uleb128 0x1
 3778 0638 50       		.byte	0x50
 3779 0639 02       		.uleb128 0x2
 3780 063a 09       		.byte	0x9
 3781 063b FF       		.byte	0xff
 3782 063c 0C       		.uleb128 0xc
 3783 063d 01       		.uleb128 0x1
 3784 063e 51       		.byte	0x51
 3785 063f 02       		.uleb128 0x2
 3786 0640 08       		.byte	0x8
 3787 0641 67       		.byte	0x67
 3788 0642 00       		.byte	0
 3789 0643 0B       		.uleb128 0xb
 3790 0644 56000000 		.4byte	.LVL61
 3791 0648 A91F0000 		.4byte	0x1fa9
 3792 064c 5E060000 		.4byte	0x65e
 3793 0650 0C       		.uleb128 0xc
 3794 0651 01       		.uleb128 0x1
 3795 0652 50       		.byte	0x50
 3796 0653 02       		.uleb128 0x2
 3797 0654 08       		.byte	0x8
ARM GAS  C:\Users\EVGENY~1\AppData\Local\Temp\ccpzgcQX.s 			page 89


 3798 0655 7D       		.byte	0x7d
 3799 0656 0C       		.uleb128 0xc
 3800 0657 01       		.uleb128 0x1
 3801 0658 51       		.byte	0x51
 3802 0659 03       		.uleb128 0x3
 3803 065a 0A       		.byte	0xa
 3804 065b 3A02     		.2byte	0x23a
 3805 065d 00       		.byte	0
 3806 065e 0B       		.uleb128 0xb
 3807 065f 5E000000 		.4byte	.LVL62
 3808 0663 A91F0000 		.4byte	0x1fa9
 3809 0667 76060000 		.4byte	0x676
 3810 066b 0C       		.uleb128 0xc
 3811 066c 01       		.uleb128 0x1
 3812 066d 50       		.byte	0x50
 3813 066e 01       		.uleb128 0x1
 3814 066f 30       		.byte	0x30
 3815 0670 0C       		.uleb128 0xc
 3816 0671 01       		.uleb128 0x1
 3817 0672 51       		.byte	0x51
 3818 0673 01       		.uleb128 0x1
 3819 0674 30       		.byte	0x30
 3820 0675 00       		.byte	0
 3821 0676 0D       		.uleb128 0xd
 3822 0677 62000000 		.4byte	.LVL63
 3823 067b 23200000 		.4byte	0x2023
 3824 067f 10       		.uleb128 0x10
 3825 0680 68000000 		.4byte	.LVL64
 3826 0684 54040000 		.4byte	0x454
 3827 0688 0C       		.uleb128 0xc
 3828 0689 01       		.uleb128 0x1
 3829 068a 50       		.byte	0x50
 3830 068b 02       		.uleb128 0x2
 3831 068c 08       		.byte	0x8
 3832 068d 64       		.byte	0x64
 3833 068e 00       		.byte	0
 3834 068f 00       		.byte	0
 3835 0690 11       		.uleb128 0x11
 3836 0691 EB020000 		.4byte	.LASF38
 3837 0695 01       		.byte	0x1
 3838 0696 9A02     		.2byte	0x29a
 3839 0698 90000000 		.4byte	0x90
 3840 069c 00000000 		.4byte	.LFB103
 3841 06a0 22000000 		.4byte	.LFE103-.LFB103
 3842 06a4 01       		.uleb128 0x1
 3843 06a5 9C       		.byte	0x9c
 3844 06a6 F6060000 		.4byte	0x6f6
 3845 06aa 12       		.uleb128 0x12
 3846 06ab 6D696E00 		.ascii	"min\000"
 3847 06af 01       		.byte	0x1
 3848 06b0 9A02     		.2byte	0x29a
 3849 06b2 90000000 		.4byte	0x90
 3850 06b6 88010000 		.4byte	.LLST11
 3851 06ba 12       		.uleb128 0x12
 3852 06bb 6D617800 		.ascii	"max\000"
 3853 06bf 01       		.byte	0x1
 3854 06c0 9A02     		.2byte	0x29a
ARM GAS  C:\Users\EVGENY~1\AppData\Local\Temp\ccpzgcQX.s 			page 90


 3855 06c2 90000000 		.4byte	0x90
 3856 06c6 A6010000 		.4byte	.LLST12
 3857 06ca 18       		.uleb128 0x18
 3858 06cb B4020000 		.4byte	.LASF39
 3859 06cf 01       		.byte	0x1
 3860 06d0 9C02     		.2byte	0x29c
 3861 06d2 90000000 		.4byte	0x90
 3862 06d6 D2010000 		.4byte	.LLST13
 3863 06da 0D       		.uleb128 0xd
 3864 06db 0A000000 		.4byte	.LVL66
 3865 06df 3D200000 		.4byte	0x203d
 3866 06e3 0D       		.uleb128 0xd
 3867 06e4 0E000000 		.4byte	.LVL67
 3868 06e8 6A200000 		.4byte	0x206a
 3869 06ec 0D       		.uleb128 0xd
 3870 06ed 12000000 		.4byte	.LVL68
 3871 06f1 75200000 		.4byte	0x2075
 3872 06f5 00       		.byte	0
 3873 06f6 08       		.uleb128 0x8
 3874 06f7 F2040000 		.4byte	.LASF40
 3875 06fb 01       		.byte	0x1
 3876 06fc 54       		.byte	0x54
 3877 06fd 00000000 		.4byte	.LFB87
 3878 0701 B0000000 		.4byte	.LFE87-.LFB87
 3879 0705 01       		.uleb128 0x1
 3880 0706 9C       		.byte	0x9c
 3881 0707 A5080000 		.4byte	0x8a5
 3882 070b 09       		.uleb128 0x9
 3883 070c 20000000 		.4byte	.LBB3
 3884 0710 70000000 		.4byte	.LBE3-.LBB3
 3885 0714 30080000 		.4byte	0x830
 3886 0718 0A       		.uleb128 0xa
 3887 0719 6400     		.ascii	"d\000"
 3888 071b 01       		.byte	0x1
 3889 071c 5E       		.byte	0x5e
 3890 071d 90000000 		.4byte	0x90
 3891 0721 F5010000 		.4byte	.LLST14
 3892 0725 0F       		.uleb128 0xf
 3893 0726 60000000 		.4byte	.LASF41
 3894 072a 01       		.byte	0x1
 3895 072b 62       		.byte	0x62
 3896 072c 90000000 		.4byte	0x90
 3897 0730 13020000 		.4byte	.LLST15
 3898 0734 0B       		.uleb128 0xb
 3899 0735 28000000 		.4byte	.LVL78
 3900 0739 A91F0000 		.4byte	0x1fa9
 3901 073d 4E070000 		.4byte	0x74e
 3902 0741 0C       		.uleb128 0xc
 3903 0742 01       		.uleb128 0x1
 3904 0743 50       		.byte	0x50
 3905 0744 02       		.uleb128 0x2
 3906 0745 08       		.byte	0x8
 3907 0746 7D       		.byte	0x7d
 3908 0747 0C       		.uleb128 0xc
 3909 0748 01       		.uleb128 0x1
 3910 0749 51       		.byte	0x51
 3911 074a 02       		.uleb128 0x2
ARM GAS  C:\Users\EVGENY~1\AppData\Local\Temp\ccpzgcQX.s 			page 91


 3912 074b 08       		.byte	0x8
 3913 074c 32       		.byte	0x32
 3914 074d 00       		.byte	0
 3915 074e 0D       		.uleb128 0xd
 3916 074f 2C000000 		.4byte	.LVL79
 3917 0753 B41F0000 		.4byte	0x1fb4
 3918 0757 0B       		.uleb128 0xb
 3919 0758 34000000 		.4byte	.LVL82
 3920 075c CA1F0000 		.4byte	0x1fca
 3921 0760 6B070000 		.4byte	0x76b
 3922 0764 0C       		.uleb128 0xc
 3923 0765 01       		.uleb128 0x1
 3924 0766 50       		.byte	0x50
 3925 0767 02       		.uleb128 0x2
 3926 0768 08       		.byte	0x8
 3927 0769 C8       		.byte	0xc8
 3928 076a 00       		.byte	0
 3929 076b 0B       		.uleb128 0xb
 3930 076c 3E000000 		.4byte	.LVL83
 3931 0770 90060000 		.4byte	0x690
 3932 0774 86070000 		.4byte	0x786
 3933 0778 0C       		.uleb128 0xc
 3934 0779 01       		.uleb128 0x1
 3935 077a 50       		.byte	0x50
 3936 077b 02       		.uleb128 0x2
 3937 077c 08       		.byte	0x8
 3938 077d 67       		.byte	0x67
 3939 077e 0C       		.uleb128 0xc
 3940 077f 01       		.uleb128 0x1
 3941 0780 51       		.byte	0x51
 3942 0781 03       		.uleb128 0x3
 3943 0782 0A       		.byte	0xa
 3944 0783 3501     		.2byte	0x135
 3945 0785 00       		.byte	0
 3946 0786 0B       		.uleb128 0xb
 3947 0787 4C000000 		.4byte	.LVL86
 3948 078b A91F0000 		.4byte	0x1fa9
 3949 078f 9E070000 		.4byte	0x79e
 3950 0793 0C       		.uleb128 0xc
 3951 0794 01       		.uleb128 0x1
 3952 0795 50       		.byte	0x50
 3953 0796 01       		.uleb128 0x1
 3954 0797 30       		.byte	0x30
 3955 0798 0C       		.uleb128 0xc
 3956 0799 01       		.uleb128 0x1
 3957 079a 51       		.byte	0x51
 3958 079b 01       		.uleb128 0x1
 3959 079c 3A       		.byte	0x3a
 3960 079d 00       		.byte	0
 3961 079e 0B       		.uleb128 0xb
 3962 079f 54000000 		.4byte	.LVL87
 3963 07a3 D61F0000 		.4byte	0x1fd6
 3964 07a7 B8070000 		.4byte	0x7b8
 3965 07ab 0C       		.uleb128 0xc
 3966 07ac 01       		.uleb128 0x1
 3967 07ad 50       		.byte	0x50
 3968 07ae 02       		.uleb128 0x2
ARM GAS  C:\Users\EVGENY~1\AppData\Local\Temp\ccpzgcQX.s 			page 92


 3969 07af 08       		.byte	0x8
 3970 07b0 64       		.byte	0x64
 3971 07b1 0C       		.uleb128 0xc
 3972 07b2 01       		.uleb128 0x1
 3973 07b3 51       		.byte	0x51
 3974 07b4 02       		.uleb128 0x2
 3975 07b5 08       		.byte	0x8
 3976 07b6 96       		.byte	0x96
 3977 07b7 00       		.byte	0
 3978 07b8 0B       		.uleb128 0xb
 3979 07b9 6E000000 		.4byte	.LVL88
 3980 07bd B6040000 		.4byte	0x4b6
 3981 07c1 D2070000 		.4byte	0x7d2
 3982 07c5 0C       		.uleb128 0xc
 3983 07c6 01       		.uleb128 0x1
 3984 07c7 50       		.byte	0x50
 3985 07c8 02       		.uleb128 0x2
 3986 07c9 09       		.byte	0x9
 3987 07ca FF       		.byte	0xff
 3988 07cb 0C       		.uleb128 0xc
 3989 07cc 01       		.uleb128 0x1
 3990 07cd 51       		.byte	0x51
 3991 07ce 02       		.uleb128 0x2
 3992 07cf 74       		.byte	0x74
 3993 07d0 00       		.sleb128 0
 3994 07d1 00       		.byte	0
 3995 07d2 0B       		.uleb128 0xb
 3996 07d3 76000000 		.4byte	.LVL89
 3997 07d7 BF1F0000 		.4byte	0x1fbf
 3998 07db EF070000 		.4byte	0x7ef
 3999 07df 0C       		.uleb128 0xc
 4000 07e0 01       		.uleb128 0x1
 4001 07e1 50       		.byte	0x50
 4002 07e2 05       		.uleb128 0x5
 4003 07e3 03       		.byte	0x3
 4004 07e4 CC000000 		.4byte	.LC6
 4005 07e8 0C       		.uleb128 0xc
 4006 07e9 01       		.uleb128 0x1
 4007 07ea 51       		.byte	0x51
 4008 07eb 02       		.uleb128 0x2
 4009 07ec 74       		.byte	0x74
 4010 07ed 00       		.sleb128 0
 4011 07ee 00       		.byte	0
 4012 07ef 0B       		.uleb128 0xb
 4013 07f0 80000000 		.4byte	.LVL90
 4014 07f4 09050000 		.4byte	0x509
 4015 07f8 09080000 		.4byte	0x809
 4016 07fc 0C       		.uleb128 0xc
 4017 07fd 01       		.uleb128 0x1
 4018 07fe 50       		.byte	0x50
 4019 07ff 02       		.uleb128 0x2
 4020 0800 09       		.byte	0x9
 4021 0801 FF       		.byte	0xff
 4022 0802 0C       		.uleb128 0xc
 4023 0803 01       		.uleb128 0x1
 4024 0804 51       		.byte	0x51
 4025 0805 02       		.uleb128 0x2
ARM GAS  C:\Users\EVGENY~1\AppData\Local\Temp\ccpzgcQX.s 			page 93


 4026 0806 74       		.byte	0x74
 4027 0807 00       		.sleb128 0
 4028 0808 00       		.byte	0
 4029 0809 0B       		.uleb128 0xb
 4030 080a 88000000 		.4byte	.LVL91
 4031 080e BF1F0000 		.4byte	0x1fbf
 4032 0812 26080000 		.4byte	0x826
 4033 0816 0C       		.uleb128 0xc
 4034 0817 01       		.uleb128 0x1
 4035 0818 50       		.byte	0x50
 4036 0819 05       		.uleb128 0x5
 4037 081a 03       		.byte	0x3
 4038 081b F0000000 		.4byte	.LC7
 4039 081f 0C       		.uleb128 0xc
 4040 0820 01       		.uleb128 0x1
 4041 0821 51       		.byte	0x51
 4042 0822 02       		.uleb128 0x2
 4043 0823 74       		.byte	0x74
 4044 0824 00       		.sleb128 0
 4045 0825 00       		.byte	0
 4046 0826 0D       		.uleb128 0xd
 4047 0827 8C000000 		.4byte	.LVL92
 4048 082b EC1F0000 		.4byte	0x1fec
 4049 082f 00       		.byte	0
 4050 0830 0B       		.uleb128 0xb
 4051 0831 08000000 		.4byte	.LVL72
 4052 0835 BF1F0000 		.4byte	0x1fbf
 4053 0839 47080000 		.4byte	0x847
 4054 083d 0C       		.uleb128 0xc
 4055 083e 01       		.uleb128 0x1
 4056 083f 50       		.byte	0x50
 4057 0840 05       		.uleb128 0x5
 4058 0841 03       		.byte	0x3
 4059 0842 00000000 		.4byte	.LC0
 4060 0846 00       		.byte	0
 4061 0847 0D       		.uleb128 0xd
 4062 0848 0C000000 		.4byte	.LVL73
 4063 084c F71F0000 		.4byte	0x1ff7
 4064 0850 0D       		.uleb128 0xd
 4065 0851 10000000 		.4byte	.LVL74
 4066 0855 02200000 		.4byte	0x2002
 4067 0859 0B       		.uleb128 0xb
 4068 085a 18000000 		.4byte	.LVL75
 4069 085e A91F0000 		.4byte	0x1fa9
 4070 0862 71080000 		.4byte	0x871
 4071 0866 0C       		.uleb128 0xc
 4072 0867 01       		.uleb128 0x1
 4073 0868 50       		.byte	0x50
 4074 0869 01       		.uleb128 0x1
 4075 086a 30       		.byte	0x30
 4076 086b 0C       		.uleb128 0xc
 4077 086c 01       		.uleb128 0x1
 4078 086d 51       		.byte	0x51
 4079 086e 01       		.uleb128 0x1
 4080 086f 30       		.byte	0x30
 4081 0870 00       		.byte	0
 4082 0871 0D       		.uleb128 0xd
ARM GAS  C:\Users\EVGENY~1\AppData\Local\Temp\ccpzgcQX.s 			page 94


 4083 0872 1C000000 		.4byte	.LVL76
 4084 0876 0D200000 		.4byte	0x200d
 4085 087a 0D       		.uleb128 0xd
 4086 087b 20000000 		.4byte	.LVL77
 4087 087f 18200000 		.4byte	0x2018
 4088 0883 0B       		.uleb128 0xb
 4089 0884 98000000 		.4byte	.LVL93
 4090 0888 A91F0000 		.4byte	0x1fa9
 4091 088c 9B080000 		.4byte	0x89b
 4092 0890 0C       		.uleb128 0xc
 4093 0891 01       		.uleb128 0x1
 4094 0892 50       		.byte	0x50
 4095 0893 01       		.uleb128 0x1
 4096 0894 30       		.byte	0x30
 4097 0895 0C       		.uleb128 0xc
 4098 0896 01       		.uleb128 0x1
 4099 0897 51       		.byte	0x51
 4100 0898 01       		.uleb128 0x1
 4101 0899 30       		.byte	0x30
 4102 089a 00       		.byte	0
 4103 089b 0D       		.uleb128 0xd
 4104 089c 9C000000 		.4byte	.LVL94
 4105 08a0 23200000 		.4byte	0x2023
 4106 08a4 00       		.byte	0
 4107 08a5 17       		.uleb128 0x17
 4108 08a6 E1000000 		.4byte	.LASF42
 4109 08aa 01       		.byte	0x1
 4110 08ab A202     		.2byte	0x2a2
 4111 08ad 00000000 		.4byte	.LFB104
 4112 08b1 74000000 		.4byte	.LFE104-.LFB104
 4113 08b5 01       		.uleb128 0x1
 4114 08b6 9C       		.byte	0x9c
 4115 08b7 22090000 		.4byte	0x922
 4116 08bb 15       		.uleb128 0x15
 4117 08bc A9030000 		.4byte	.LASF43
 4118 08c0 01       		.byte	0x1
 4119 08c1 A202     		.2byte	0x2a2
 4120 08c3 DB000000 		.4byte	0xdb
 4121 08c7 31020000 		.4byte	.LLST16
 4122 08cb 18       		.uleb128 0x18
 4123 08cc 48000000 		.4byte	.LASF44
 4124 08d0 01       		.byte	0x1
 4125 08d1 A402     		.2byte	0x2a4
 4126 08d3 C3000000 		.4byte	0xc3
 4127 08d7 6B020000 		.4byte	.LLST17
 4128 08db 18       		.uleb128 0x18
 4129 08dc 21000000 		.4byte	.LASF45
 4130 08e0 01       		.byte	0x1
 4131 08e1 A402     		.2byte	0x2a4
 4132 08e3 C3000000 		.4byte	0xc3
 4133 08e7 7E020000 		.4byte	.LLST18
 4134 08eb 18       		.uleb128 0x18
 4135 08ec 00030000 		.4byte	.LASF46
 4136 08f0 01       		.byte	0x1
 4137 08f1 A402     		.2byte	0x2a4
 4138 08f3 C3000000 		.4byte	0xc3
 4139 08f7 A9020000 		.4byte	.LLST19
ARM GAS  C:\Users\EVGENY~1\AppData\Local\Temp\ccpzgcQX.s 			page 95


 4140 08fb 18       		.uleb128 0x18
 4141 08fc 99030000 		.4byte	.LASF31
 4142 0900 01       		.byte	0x1
 4143 0901 B202     		.2byte	0x2b2
 4144 0903 CF000000 		.4byte	0xcf
 4145 0907 C7020000 		.4byte	.LLST20
 4146 090b 10       		.uleb128 0x10
 4147 090c 6A000000 		.4byte	.LVL108
 4148 0910 5F200000 		.4byte	0x205f
 4149 0914 0C       		.uleb128 0xc
 4150 0915 01       		.uleb128 0x1
 4151 0916 52       		.byte	0x52
 4152 0917 02       		.uleb128 0x2
 4153 0918 08       		.byte	0x8
 4154 0919 64       		.byte	0x64
 4155 091a 0C       		.uleb128 0xc
 4156 091b 01       		.uleb128 0x1
 4157 091c 53       		.byte	0x53
 4158 091d 02       		.uleb128 0x2
 4159 091e 08       		.byte	0x8
 4160 091f 64       		.byte	0x64
 4161 0920 00       		.byte	0
 4162 0921 00       		.byte	0
 4163 0922 19       		.uleb128 0x19
 4164 0923 656E6400 		.ascii	"end\000"
 4165 0927 01       		.byte	0x1
 4166 0928 B702     		.2byte	0x2b7
 4167 092a 00000000 		.4byte	.LFB105
 4168 092e 1C000000 		.4byte	.LFE105-.LFB105
 4169 0932 01       		.uleb128 0x1
 4170 0933 9C       		.byte	0x9c
 4171 0934 71090000 		.4byte	0x971
 4172 0938 0B       		.uleb128 0xb
 4173 0939 08000000 		.4byte	.LVL109
 4174 093d 2E200000 		.4byte	0x202e
 4175 0941 4F090000 		.4byte	0x94f
 4176 0945 0C       		.uleb128 0xc
 4177 0946 01       		.uleb128 0x1
 4178 0947 50       		.byte	0x50
 4179 0948 05       		.uleb128 0x5
 4180 0949 03       		.byte	0x3
 4181 094a 14010000 		.4byte	.LC8
 4182 094e 00       		.byte	0
 4183 094f 0B       		.uleb128 0xb
 4184 0950 10000000 		.4byte	.LVL110
 4185 0954 A91F0000 		.4byte	0x1fa9
 4186 0958 67090000 		.4byte	0x967
 4187 095c 0C       		.uleb128 0xc
 4188 095d 01       		.uleb128 0x1
 4189 095e 50       		.byte	0x50
 4190 095f 01       		.uleb128 0x1
 4191 0960 30       		.byte	0x30
 4192 0961 0C       		.uleb128 0xc
 4193 0962 01       		.uleb128 0x1
 4194 0963 51       		.byte	0x51
 4195 0964 01       		.uleb128 0x1
 4196 0965 30       		.byte	0x30
ARM GAS  C:\Users\EVGENY~1\AppData\Local\Temp\ccpzgcQX.s 			page 96


 4197 0966 00       		.byte	0
 4198 0967 0D       		.uleb128 0xd
 4199 0968 14000000 		.4byte	.LVL111
 4200 096c 23200000 		.4byte	0x2023
 4201 0970 00       		.byte	0
 4202 0971 17       		.uleb128 0x17
 4203 0972 39010000 		.4byte	.LASF47
 4204 0976 01       		.byte	0x1
 4205 0977 BD02     		.2byte	0x2bd
 4206 0979 00000000 		.4byte	.LFB106
 4207 097d 48000000 		.4byte	.LFE106-.LFB106
 4208 0981 01       		.uleb128 0x1
 4209 0982 9C       		.byte	0x9c
 4210 0983 3C0A0000 		.4byte	0xa3c
 4211 0987 15       		.uleb128 0x15
 4212 0988 0C050000 		.4byte	.LASF48
 4213 098c 01       		.byte	0x1
 4214 098d BD02     		.2byte	0x2bd
 4215 098f B8000000 		.4byte	0xb8
 4216 0993 E6020000 		.4byte	.LLST21
 4217 0997 15       		.uleb128 0x15
 4218 0998 12050000 		.4byte	.LASF49
 4219 099c 01       		.byte	0x1
 4220 099d BD02     		.2byte	0x2bd
 4221 099f B8000000 		.4byte	0xb8
 4222 09a3 12030000 		.4byte	.LLST22
 4223 09a7 18       		.uleb128 0x18
 4224 09a8 66020000 		.4byte	.LASF50
 4225 09ac 01       		.byte	0x1
 4226 09ad C002     		.2byte	0x2c0
 4227 09af B8000000 		.4byte	0xb8
 4228 09b3 3E030000 		.4byte	.LLST23
 4229 09b7 0B       		.uleb128 0xb
 4230 09b8 0E000000 		.4byte	.LVL115
 4231 09bc A91F0000 		.4byte	0x1fa9
 4232 09c0 CF090000 		.4byte	0x9cf
 4233 09c4 0C       		.uleb128 0xc
 4234 09c5 01       		.uleb128 0x1
 4235 09c6 50       		.byte	0x50
 4236 09c7 01       		.uleb128 0x1
 4237 09c8 30       		.byte	0x30
 4238 09c9 0C       		.uleb128 0xc
 4239 09ca 01       		.uleb128 0x1
 4240 09cb 51       		.byte	0x51
 4241 09cc 01       		.uleb128 0x1
 4242 09cd 30       		.byte	0x30
 4243 09ce 00       		.byte	0
 4244 09cf 0D       		.uleb128 0xd
 4245 09d0 12000000 		.4byte	.LVL116
 4246 09d4 23200000 		.4byte	0x2023
 4247 09d8 0B       		.uleb128 0xb
 4248 09d9 1E000000 		.4byte	.LVL118
 4249 09dd 49200000 		.4byte	0x2049
 4250 09e1 FE090000 		.4byte	0x9fe
 4251 09e5 0C       		.uleb128 0xc
 4252 09e6 01       		.uleb128 0x1
 4253 09e7 50       		.byte	0x50
ARM GAS  C:\Users\EVGENY~1\AppData\Local\Temp\ccpzgcQX.s 			page 97


 4254 09e8 05       		.uleb128 0x5
 4255 09e9 03       		.byte	0x3
 4256 09ea 30010000 		.4byte	.LC10
 4257 09ee 0C       		.uleb128 0xc
 4258 09ef 01       		.uleb128 0x1
 4259 09f0 51       		.byte	0x51
 4260 09f1 05       		.uleb128 0x5
 4261 09f2 03       		.byte	0x3
 4262 09f3 28010000 		.4byte	.LC9
 4263 09f7 0C       		.uleb128 0xc
 4264 09f8 01       		.uleb128 0x1
 4265 09f9 52       		.byte	0x52
 4266 09fa 02       		.uleb128 0x2
 4267 09fb 75       		.byte	0x75
 4268 09fc 00       		.sleb128 0
 4269 09fd 00       		.byte	0
 4270 09fe 10       		.uleb128 0x10
 4271 09ff 30000000 		.4byte	.LVL119
 4272 0a03 49200000 		.4byte	0x2049
 4273 0a07 0C       		.uleb128 0xc
 4274 0a08 01       		.uleb128 0x1
 4275 0a09 50       		.byte	0x50
 4276 0a0a 05       		.uleb128 0x5
 4277 0a0b 03       		.byte	0x3
 4278 0a0c 58010000 		.4byte	.LC12
 4279 0a10 0C       		.uleb128 0xc
 4280 0a11 01       		.uleb128 0x1
 4281 0a12 51       		.byte	0x51
 4282 0a13 05       		.uleb128 0x5
 4283 0a14 03       		.byte	0x3
 4284 0a15 40010000 		.4byte	.LC11
 4285 0a19 0C       		.uleb128 0xc
 4286 0a1a 01       		.uleb128 0x1
 4287 0a1b 52       		.byte	0x52
 4288 0a1c 02       		.uleb128 0x2
 4289 0a1d 74       		.byte	0x74
 4290 0a1e 00       		.sleb128 0
 4291 0a1f 0C       		.uleb128 0xc
 4292 0a20 01       		.uleb128 0x1
 4293 0a21 53       		.byte	0x53
 4294 0a22 17       		.uleb128 0x17
 4295 0a23 74       		.byte	0x74
 4296 0a24 00       		.sleb128 0
 4297 0a25 F7       		.byte	0xf7
 4298 0a26 2C       		.uleb128 0x2c
 4299 0a27 F7       		.byte	0xf7
 4300 0a28 25       		.uleb128 0x25
 4301 0a29 0C       		.byte	0xc
 4302 0a2a D34D6210 		.4byte	0x10624dd3
 4303 0a2e F7       		.byte	0xf7
 4304 0a2f 25       		.uleb128 0x25
 4305 0a30 1E       		.byte	0x1e
 4306 0a31 08       		.byte	0x8
 4307 0a32 20       		.byte	0x20
 4308 0a33 F7       		.byte	0xf7
 4309 0a34 25       		.uleb128 0x25
 4310 0a35 25       		.byte	0x25
ARM GAS  C:\Users\EVGENY~1\AppData\Local\Temp\ccpzgcQX.s 			page 98


 4311 0a36 F7       		.byte	0xf7
 4312 0a37 2C       		.uleb128 0x2c
 4313 0a38 36       		.byte	0x36
 4314 0a39 25       		.byte	0x25
 4315 0a3a 00       		.byte	0
 4316 0a3b 00       		.byte	0
 4317 0a3c 17       		.uleb128 0x17
 4318 0a3d 0F020000 		.4byte	.LASF51
 4319 0a41 01       		.byte	0x1
 4320 0a42 C802     		.2byte	0x2c8
 4321 0a44 00000000 		.4byte	.LFB107
 4322 0a48 6C000000 		.4byte	.LFE107-.LFB107
 4323 0a4c 01       		.uleb128 0x1
 4324 0a4d 9C       		.byte	0x9c
 4325 0a4e 410B0000 		.4byte	0xb41
 4326 0a52 15       		.uleb128 0x15
 4327 0a53 2D030000 		.4byte	.LASF52
 4328 0a57 01       		.byte	0x1
 4329 0a58 C802     		.2byte	0x2c8
 4330 0a5a 90000000 		.4byte	0x90
 4331 0a5e 63030000 		.4byte	.LLST24
 4332 0a62 12       		.uleb128 0x12
 4333 0a63 495200   		.ascii	"IR\000"
 4334 0a66 01       		.byte	0x1
 4335 0a67 C802     		.2byte	0x2c8
 4336 0a69 90000000 		.4byte	0x90
 4337 0a6d 8F030000 		.4byte	.LLST25
 4338 0a71 15       		.uleb128 0x15
 4339 0a72 21010000 		.4byte	.LASF53
 4340 0a76 01       		.byte	0x1
 4341 0a77 C802     		.2byte	0x2c8
 4342 0a79 90000000 		.4byte	0x90
 4343 0a7d BB030000 		.4byte	.LLST26
 4344 0a81 15       		.uleb128 0x15
 4345 0a82 1A000000 		.4byte	.LASF54
 4346 0a86 01       		.byte	0x1
 4347 0a87 C802     		.2byte	0x2c8
 4348 0a89 90000000 		.4byte	0x90
 4349 0a8d E7030000 		.4byte	.LLST27
 4350 0a91 15       		.uleb128 0x15
 4351 0a92 5E030000 		.4byte	.LASF55
 4352 0a96 01       		.byte	0x1
 4353 0a97 C802     		.2byte	0x2c8
 4354 0a99 90000000 		.4byte	0x90
 4355 0a9d 13040000 		.4byte	.LLST28
 4356 0aa1 0B       		.uleb128 0xb
 4357 0aa2 12000000 		.4byte	.LVL123
 4358 0aa6 2E200000 		.4byte	0x202e
 4359 0aaa B80A0000 		.4byte	0xab8
 4360 0aae 0C       		.uleb128 0xc
 4361 0aaf 01       		.uleb128 0x1
 4362 0ab0 50       		.byte	0x50
 4363 0ab1 05       		.uleb128 0x5
 4364 0ab2 03       		.byte	0x3
 4365 0ab3 68010000 		.4byte	.LC13
 4366 0ab7 00       		.byte	0
 4367 0ab8 0D       		.uleb128 0xd
ARM GAS  C:\Users\EVGENY~1\AppData\Local\Temp\ccpzgcQX.s 			page 99


 4368 0ab9 1A000000 		.4byte	.LVL124
 4369 0abd 02200000 		.4byte	0x2002
 4370 0ac1 0B       		.uleb128 0xb
 4371 0ac2 22000000 		.4byte	.LVL125
 4372 0ac6 A91F0000 		.4byte	0x1fa9
 4373 0aca D90A0000 		.4byte	0xad9
 4374 0ace 0C       		.uleb128 0xc
 4375 0acf 01       		.uleb128 0x1
 4376 0ad0 50       		.byte	0x50
 4377 0ad1 01       		.uleb128 0x1
 4378 0ad2 30       		.byte	0x30
 4379 0ad3 0C       		.uleb128 0xc
 4380 0ad4 01       		.uleb128 0x1
 4381 0ad5 51       		.byte	0x51
 4382 0ad6 01       		.uleb128 0x1
 4383 0ad7 30       		.byte	0x30
 4384 0ad8 00       		.byte	0
 4385 0ad9 0D       		.uleb128 0xd
 4386 0ada 2A000000 		.4byte	.LVL126
 4387 0ade 0D200000 		.4byte	0x200d
 4388 0ae2 0D       		.uleb128 0xd
 4389 0ae3 2E000000 		.4byte	.LVL127
 4390 0ae7 80200000 		.4byte	0x2080
 4391 0aeb 0D       		.uleb128 0xd
 4392 0aec 36000000 		.4byte	.LVL128
 4393 0af0 8B200000 		.4byte	0x208b
 4394 0af4 0B       		.uleb128 0xb
 4395 0af5 4C000000 		.4byte	.LVL129
 4396 0af9 96200000 		.4byte	0x2096
 4397 0afd 2E0B0000 		.4byte	0xb2e
 4398 0b01 0C       		.uleb128 0xc
 4399 0b02 01       		.uleb128 0x1
 4400 0b03 50       		.byte	0x50
 4401 0b04 03       		.uleb128 0x3
 4402 0b05 0A       		.byte	0xa
 4403 0b06 C832     		.2byte	0x32c8
 4404 0b08 0C       		.uleb128 0xc
 4405 0b09 01       		.uleb128 0x1
 4406 0b0a 51       		.byte	0x51
 4407 0b0b 03       		.uleb128 0x3
 4408 0b0c 0A       		.byte	0xa
 4409 0b0d F82A     		.2byte	0x2af8
 4410 0b0f 0C       		.uleb128 0xc
 4411 0b10 01       		.uleb128 0x1
 4412 0b11 52       		.byte	0x52
 4413 0b12 03       		.uleb128 0x3
 4414 0b13 0A       		.byte	0xa
 4415 0b14 983A     		.2byte	0x3a98
 4416 0b16 0C       		.uleb128 0xc
 4417 0b17 01       		.uleb128 0x1
 4418 0b18 53       		.byte	0x53
 4419 0b19 03       		.uleb128 0x3
 4420 0b1a 0A       		.byte	0xa
 4421 0b1b 983A     		.2byte	0x3a98
 4422 0b1d 0C       		.uleb128 0xc
 4423 0b1e 02       		.uleb128 0x2
 4424 0b1f 7D       		.byte	0x7d
ARM GAS  C:\Users\EVGENY~1\AppData\Local\Temp\ccpzgcQX.s 			page 100


 4425 0b20 00       		.sleb128 0
 4426 0b21 03       		.uleb128 0x3
 4427 0b22 0A       		.byte	0xa
 4428 0b23 F82A     		.2byte	0x2af8
 4429 0b25 0C       		.uleb128 0xc
 4430 0b26 02       		.uleb128 0x2
 4431 0b27 7D       		.byte	0x7d
 4432 0b28 04       		.sleb128 4
 4433 0b29 03       		.uleb128 0x3
 4434 0b2a 0A       		.byte	0xa
 4435 0b2b C832     		.2byte	0x32c8
 4436 0b2d 00       		.byte	0
 4437 0b2e 0D       		.uleb128 0xd
 4438 0b2f 54000000 		.4byte	.LVL130
 4439 0b33 EC1F0000 		.4byte	0x1fec
 4440 0b37 0D       		.uleb128 0xd
 4441 0b38 62000000 		.4byte	.LVL131
 4442 0b3c F71F0000 		.4byte	0x1ff7
 4443 0b40 00       		.byte	0
 4444 0b41 08       		.uleb128 0x8
 4445 0b42 17020000 		.4byte	.LASF56
 4446 0b46 01       		.byte	0x1
 4447 0b47 FD       		.byte	0xfd
 4448 0b48 00000000 		.4byte	.LFB92
 4449 0b4c 9C000000 		.4byte	.LFE92-.LFB92
 4450 0b50 01       		.uleb128 0x1
 4451 0b51 9C       		.byte	0x9c
 4452 0b52 870C0000 		.4byte	0xc87
 4453 0b56 0B       		.uleb128 0xb
 4454 0b57 12000000 		.4byte	.LVL133
 4455 0b5b 3C0A0000 		.4byte	0xa3c
 4456 0b5f 7E0B0000 		.4byte	0xb7e
 4457 0b63 0C       		.uleb128 0xc
 4458 0b64 01       		.uleb128 0x1
 4459 0b65 50       		.byte	0x50
 4460 0b66 01       		.uleb128 0x1
 4461 0b67 31       		.byte	0x31
 4462 0b68 0C       		.uleb128 0xc
 4463 0b69 01       		.uleb128 0x1
 4464 0b6a 51       		.byte	0x51
 4465 0b6b 01       		.uleb128 0x1
 4466 0b6c 31       		.byte	0x31
 4467 0b6d 0C       		.uleb128 0xc
 4468 0b6e 01       		.uleb128 0x1
 4469 0b6f 52       		.byte	0x52
 4470 0b70 01       		.uleb128 0x1
 4471 0b71 30       		.byte	0x30
 4472 0b72 0C       		.uleb128 0xc
 4473 0b73 01       		.uleb128 0x1
 4474 0b74 53       		.byte	0x53
 4475 0b75 01       		.uleb128 0x1
 4476 0b76 30       		.byte	0x30
 4477 0b77 0C       		.uleb128 0xc
 4478 0b78 02       		.uleb128 0x2
 4479 0b79 7D       		.byte	0x7d
 4480 0b7a 00       		.sleb128 0
 4481 0b7b 01       		.uleb128 0x1
ARM GAS  C:\Users\EVGENY~1\AppData\Local\Temp\ccpzgcQX.s 			page 101


 4482 0b7c 31       		.byte	0x31
 4483 0b7d 00       		.byte	0
 4484 0b7e 0B       		.uleb128 0xb
 4485 0b7f 1C000000 		.4byte	.LVL134
 4486 0b83 A91F0000 		.4byte	0x1fa9
 4487 0b87 980B0000 		.4byte	0xb98
 4488 0b8b 0C       		.uleb128 0xc
 4489 0b8c 01       		.uleb128 0x1
 4490 0b8d 50       		.byte	0x50
 4491 0b8e 02       		.uleb128 0x2
 4492 0b8f 09       		.byte	0x9
 4493 0b90 96       		.byte	0x96
 4494 0b91 0C       		.uleb128 0xc
 4495 0b92 01       		.uleb128 0x1
 4496 0b93 51       		.byte	0x51
 4497 0b94 02       		.uleb128 0x2
 4498 0b95 08       		.byte	0x8
 4499 0b96 50       		.byte	0x50
 4500 0b97 00       		.byte	0
 4501 0b98 0D       		.uleb128 0xd
 4502 0b99 20000000 		.4byte	.LVL135
 4503 0b9d B41F0000 		.4byte	0x1fb4
 4504 0ba1 0B       		.uleb128 0xb
 4505 0ba2 2C000000 		.4byte	.LVL136
 4506 0ba6 A91F0000 		.4byte	0x1fa9
 4507 0baa B90B0000 		.4byte	0xbb9
 4508 0bae 0C       		.uleb128 0xc
 4509 0baf 01       		.uleb128 0x1
 4510 0bb0 50       		.byte	0x50
 4511 0bb1 01       		.uleb128 0x1
 4512 0bb2 30       		.byte	0x30
 4513 0bb3 0C       		.uleb128 0xc
 4514 0bb4 01       		.uleb128 0x1
 4515 0bb5 51       		.byte	0x51
 4516 0bb6 01       		.uleb128 0x1
 4517 0bb7 30       		.byte	0x30
 4518 0bb8 00       		.byte	0
 4519 0bb9 0B       		.uleb128 0xb
 4520 0bba 34000000 		.4byte	.LVL137
 4521 0bbe D61F0000 		.4byte	0x1fd6
 4522 0bc2 D30B0000 		.4byte	0xbd3
 4523 0bc6 0C       		.uleb128 0xc
 4524 0bc7 01       		.uleb128 0x1
 4525 0bc8 50       		.byte	0x50
 4526 0bc9 02       		.uleb128 0x2
 4527 0bca 09       		.byte	0x9
 4528 0bcb 96       		.byte	0x96
 4529 0bcc 0C       		.uleb128 0xc
 4530 0bcd 01       		.uleb128 0x1
 4531 0bce 51       		.byte	0x51
 4532 0bcf 02       		.uleb128 0x2
 4533 0bd0 08       		.byte	0x8
 4534 0bd1 96       		.byte	0x96
 4535 0bd2 00       		.byte	0
 4536 0bd3 0D       		.uleb128 0xd
 4537 0bd4 38000000 		.4byte	.LVL138
 4538 0bd8 75200000 		.4byte	0x2075
ARM GAS  C:\Users\EVGENY~1\AppData\Local\Temp\ccpzgcQX.s 			page 102


 4539 0bdc 0B       		.uleb128 0xb
 4540 0bdd 50000000 		.4byte	.LVL139
 4541 0be1 A5080000 		.4byte	0x8a5
 4542 0be5 F00B0000 		.4byte	0xbf0
 4543 0be9 0C       		.uleb128 0xc
 4544 0bea 01       		.uleb128 0x1
 4545 0beb 50       		.byte	0x50
 4546 0bec 02       		.uleb128 0x2
 4547 0bed 08       		.byte	0x8
 4548 0bee 5A       		.byte	0x5a
 4549 0bef 00       		.byte	0
 4550 0bf0 0B       		.uleb128 0xb
 4551 0bf1 58000000 		.4byte	.LVL140
 4552 0bf5 A91F0000 		.4byte	0x1fa9
 4553 0bf9 080C0000 		.4byte	0xc08
 4554 0bfd 0C       		.uleb128 0xc
 4555 0bfe 01       		.uleb128 0x1
 4556 0bff 50       		.byte	0x50
 4557 0c00 01       		.uleb128 0x1
 4558 0c01 30       		.byte	0x30
 4559 0c02 0C       		.uleb128 0xc
 4560 0c03 01       		.uleb128 0x1
 4561 0c04 51       		.byte	0x51
 4562 0c05 01       		.uleb128 0x1
 4563 0c06 30       		.byte	0x30
 4564 0c07 00       		.byte	0
 4565 0c08 0B       		.uleb128 0xb
 4566 0c09 60000000 		.4byte	.LVL141
 4567 0c0d 49200000 		.4byte	0x2049
 4568 0c11 280C0000 		.4byte	0xc28
 4569 0c15 0C       		.uleb128 0xc
 4570 0c16 01       		.uleb128 0x1
 4571 0c17 50       		.byte	0x50
 4572 0c18 05       		.uleb128 0x5
 4573 0c19 03       		.byte	0x3
 4574 0c1a 8C010000 		.4byte	.LC15
 4575 0c1e 0C       		.uleb128 0xc
 4576 0c1f 01       		.uleb128 0x1
 4577 0c20 51       		.byte	0x51
 4578 0c21 05       		.uleb128 0x5
 4579 0c22 03       		.byte	0x3
 4580 0c23 70010000 		.4byte	.LC14
 4581 0c27 00       		.byte	0
 4582 0c28 0B       		.uleb128 0xb
 4583 0c29 6A000000 		.4byte	.LVL142
 4584 0c2d A5080000 		.4byte	0x8a5
 4585 0c31 3C0C0000 		.4byte	0xc3c
 4586 0c35 0C       		.uleb128 0xc
 4587 0c36 01       		.uleb128 0x1
 4588 0c37 50       		.byte	0x50
 4589 0c38 02       		.uleb128 0x2
 4590 0c39 09       		.byte	0x9
 4591 0c3a A6       		.byte	0xa6
 4592 0c3b 00       		.byte	0
 4593 0c3c 0B       		.uleb128 0xb
 4594 0c3d 72000000 		.4byte	.LVL143
 4595 0c41 A91F0000 		.4byte	0x1fa9
ARM GAS  C:\Users\EVGENY~1\AppData\Local\Temp\ccpzgcQX.s 			page 103


 4596 0c45 540C0000 		.4byte	0xc54
 4597 0c49 0C       		.uleb128 0xc
 4598 0c4a 01       		.uleb128 0x1
 4599 0c4b 50       		.byte	0x50
 4600 0c4c 01       		.uleb128 0x1
 4601 0c4d 30       		.byte	0x30
 4602 0c4e 0C       		.uleb128 0xc
 4603 0c4f 01       		.uleb128 0x1
 4604 0c50 51       		.byte	0x51
 4605 0c51 01       		.uleb128 0x1
 4606 0c52 30       		.byte	0x30
 4607 0c53 00       		.byte	0
 4608 0c54 0B       		.uleb128 0xb
 4609 0c55 7A000000 		.4byte	.LVL144
 4610 0c59 49200000 		.4byte	0x2049
 4611 0c5d 740C0000 		.4byte	0xc74
 4612 0c61 0C       		.uleb128 0xc
 4613 0c62 01       		.uleb128 0x1
 4614 0c63 50       		.byte	0x50
 4615 0c64 05       		.uleb128 0x5
 4616 0c65 03       		.byte	0x3
 4617 0c66 8C010000 		.4byte	.LC15
 4618 0c6a 0C       		.uleb128 0xc
 4619 0c6b 01       		.uleb128 0x1
 4620 0c6c 51       		.byte	0x51
 4621 0c6d 05       		.uleb128 0x5
 4622 0c6e 03       		.byte	0x3
 4623 0c6f 9C010000 		.4byte	.LC16
 4624 0c73 00       		.byte	0
 4625 0c74 0D       		.uleb128 0xd
 4626 0c75 7E000000 		.4byte	.LVL145
 4627 0c79 EC1F0000 		.4byte	0x1fec
 4628 0c7d 0D       		.uleb128 0xd
 4629 0c7e 86000000 		.4byte	.LVL146
 4630 0c82 22090000 		.4byte	0x922
 4631 0c86 00       		.byte	0
 4632 0c87 11       		.uleb128 0x11
 4633 0c88 3E020000 		.4byte	.LASF57
 4634 0c8c 01       		.byte	0x1
 4635 0c8d E102     		.2byte	0x2e1
 4636 0c8f A2000000 		.4byte	0xa2
 4637 0c93 00000000 		.4byte	.LFB108
 4638 0c97 3E000000 		.4byte	.LFE108-.LFB108
 4639 0c9b 01       		.uleb128 0x1
 4640 0c9c 9C       		.byte	0x9c
 4641 0c9d BF0C0000 		.4byte	0xcbf
 4642 0ca1 1A       		.uleb128 0x1a
 4643 0ca2 64696700 		.ascii	"dig\000"
 4644 0ca6 01       		.byte	0x1
 4645 0ca7 E102     		.2byte	0x2e1
 4646 0ca9 0A010000 		.4byte	0x10a
 4647 0cad 02       		.uleb128 0x2
 4648 0cae 91       		.byte	0x91
 4649 0caf 6C       		.sleb128 -20
 4650 0cb0 1B       		.uleb128 0x1b
 4651 0cb1 73756D00 		.ascii	"sum\000"
 4652 0cb5 01       		.byte	0x1
ARM GAS  C:\Users\EVGENY~1\AppData\Local\Temp\ccpzgcQX.s 			page 104


 4653 0cb6 E402     		.2byte	0x2e4
 4654 0cb8 A2000000 		.4byte	0xa2
 4655 0cbc 01       		.uleb128 0x1
 4656 0cbd 50       		.byte	0x50
 4657 0cbe 00       		.byte	0
 4658 0cbf 17       		.uleb128 0x17
 4659 0cc0 0D000000 		.4byte	.LASF58
 4660 0cc4 01       		.byte	0x1
 4661 0cc5 1902     		.2byte	0x219
 4662 0cc7 00000000 		.4byte	.LFB97
 4663 0ccb 94000000 		.4byte	.LFE97-.LFB97
 4664 0ccf 01       		.uleb128 0x1
 4665 0cd0 9C       		.byte	0x9c
 4666 0cd1 110E0000 		.4byte	0xe11
 4667 0cd5 15       		.uleb128 0x15
 4668 0cd6 EC040000 		.4byte	.LASF35
 4669 0cda 01       		.byte	0x1
 4670 0cdb 1902     		.2byte	0x219
 4671 0cdd C3000000 		.4byte	0xc3
 4672 0ce1 33040000 		.4byte	.LLST29
 4673 0ce5 15       		.uleb128 0x15
 4674 0ce6 99030000 		.4byte	.LASF31
 4675 0cea 01       		.byte	0x1
 4676 0ceb 1902     		.2byte	0x219
 4677 0ced CF000000 		.4byte	0xcf
 4678 0cf1 54040000 		.4byte	.LLST30
 4679 0cf5 1B       		.uleb128 0x1b
 4680 0cf6 64696700 		.ascii	"dig\000"
 4681 0cfa 01       		.byte	0x1
 4682 0cfb 1C02     		.2byte	0x21c
 4683 0cfd 0A010000 		.4byte	0x10a
 4684 0d01 02       		.uleb128 0x2
 4685 0d02 91       		.byte	0x91
 4686 0d03 64       		.sleb128 -28
 4687 0d04 1C       		.uleb128 0x1c
 4688 0d05 AF040000 		.4byte	.LASF59
 4689 0d09 01       		.byte	0x1
 4690 0d0a 1E02     		.2byte	0x21e
 4691 0d0c AF040000 		.4byte	0x4af
 4692 0d10 01       		.byte	0x1
 4693 0d11 1C       		.uleb128 0x1c
 4694 0d12 19030000 		.4byte	.LASF60
 4695 0d16 01       		.byte	0x1
 4696 0d17 1E02     		.2byte	0x21e
 4697 0d19 AF040000 		.4byte	0x4af
 4698 0d1d 00       		.byte	0
 4699 0d1e 0B       		.uleb128 0xb
 4700 0d1f 0E000000 		.4byte	.LVL150
 4701 0d23 A1200000 		.4byte	0x20a1
 4702 0d27 320D0000 		.4byte	0xd32
 4703 0d2b 0C       		.uleb128 0xc
 4704 0d2c 01       		.uleb128 0x1
 4705 0d2d 50       		.byte	0x50
 4706 0d2e 02       		.uleb128 0x2
 4707 0d2f 91       		.byte	0x91
 4708 0d30 64       		.sleb128 -28
 4709 0d31 00       		.byte	0
ARM GAS  C:\Users\EVGENY~1\AppData\Local\Temp\ccpzgcQX.s 			page 105


 4710 0d32 0B       		.uleb128 0xb
 4711 0d33 18000000 		.4byte	.LVL151
 4712 0d37 A91F0000 		.4byte	0x1fa9
 4713 0d3b 4C0D0000 		.4byte	0xd4c
 4714 0d3f 0C       		.uleb128 0xc
 4715 0d40 01       		.uleb128 0x1
 4716 0d41 50       		.byte	0x50
 4717 0d42 02       		.uleb128 0x2
 4718 0d43 74       		.byte	0x74
 4719 0d44 00       		.sleb128 0
 4720 0d45 0C       		.uleb128 0xc
 4721 0d46 01       		.uleb128 0x1
 4722 0d47 51       		.byte	0x51
 4723 0d48 02       		.uleb128 0x2
 4724 0d49 75       		.byte	0x75
 4725 0d4a 00       		.sleb128 0
 4726 0d4b 00       		.byte	0
 4727 0d4c 0B       		.uleb128 0xb
 4728 0d4d 1E000000 		.4byte	.LVL152
 4729 0d51 A1200000 		.4byte	0x20a1
 4730 0d55 600D0000 		.4byte	0xd60
 4731 0d59 0C       		.uleb128 0xc
 4732 0d5a 01       		.uleb128 0x1
 4733 0d5b 50       		.byte	0x50
 4734 0d5c 02       		.uleb128 0x2
 4735 0d5d 91       		.byte	0x91
 4736 0d5e 64       		.sleb128 -28
 4737 0d5f 00       		.byte	0
 4738 0d60 0D       		.uleb128 0xd
 4739 0d61 28000000 		.4byte	.LVL153
 4740 0d65 870C0000 		.4byte	0xc87
 4741 0d69 0B       		.uleb128 0xb
 4742 0d6a 44000000 		.4byte	.LVL154
 4743 0d6e 09050000 		.4byte	0x509
 4744 0d72 830D0000 		.4byte	0xd83
 4745 0d76 0C       		.uleb128 0xc
 4746 0d77 01       		.uleb128 0x1
 4747 0d78 50       		.byte	0x50
 4748 0d79 02       		.uleb128 0x2
 4749 0d7a 74       		.byte	0x74
 4750 0d7b 00       		.sleb128 0
 4751 0d7c 0C       		.uleb128 0xc
 4752 0d7d 01       		.uleb128 0x1
 4753 0d7e 51       		.byte	0x51
 4754 0d7f 02       		.uleb128 0x2
 4755 0d80 75       		.byte	0x75
 4756 0d81 00       		.sleb128 0
 4757 0d82 00       		.byte	0
 4758 0d83 0B       		.uleb128 0xb
 4759 0d84 4A000000 		.4byte	.LVL155
 4760 0d88 A1200000 		.4byte	0x20a1
 4761 0d8c 970D0000 		.4byte	0xd97
 4762 0d90 0C       		.uleb128 0xc
 4763 0d91 01       		.uleb128 0x1
 4764 0d92 50       		.byte	0x50
 4765 0d93 02       		.uleb128 0x2
 4766 0d94 91       		.byte	0x91
ARM GAS  C:\Users\EVGENY~1\AppData\Local\Temp\ccpzgcQX.s 			page 106


 4767 0d95 64       		.sleb128 -28
 4768 0d96 00       		.byte	0
 4769 0d97 0B       		.uleb128 0xb
 4770 0d98 5E000000 		.4byte	.LVL156
 4771 0d9c B6040000 		.4byte	0x4b6
 4772 0da0 B10D0000 		.4byte	0xdb1
 4773 0da4 0C       		.uleb128 0xc
 4774 0da5 01       		.uleb128 0x1
 4775 0da6 50       		.byte	0x50
 4776 0da7 02       		.uleb128 0x2
 4777 0da8 74       		.byte	0x74
 4778 0da9 00       		.sleb128 0
 4779 0daa 0C       		.uleb128 0xc
 4780 0dab 01       		.uleb128 0x1
 4781 0dac 51       		.byte	0x51
 4782 0dad 02       		.uleb128 0x2
 4783 0dae 75       		.byte	0x75
 4784 0daf 00       		.sleb128 0
 4785 0db0 00       		.byte	0
 4786 0db1 0B       		.uleb128 0xb
 4787 0db2 64000000 		.4byte	.LVL157
 4788 0db6 A1200000 		.4byte	0x20a1
 4789 0dba C50D0000 		.4byte	0xdc5
 4790 0dbe 0C       		.uleb128 0xc
 4791 0dbf 01       		.uleb128 0x1
 4792 0dc0 50       		.byte	0x50
 4793 0dc1 02       		.uleb128 0x2
 4794 0dc2 91       		.byte	0x91
 4795 0dc3 64       		.sleb128 -28
 4796 0dc4 00       		.byte	0
 4797 0dc5 0B       		.uleb128 0xb
 4798 0dc6 6C000000 		.4byte	.LVL158
 4799 0dca A91F0000 		.4byte	0x1fa9
 4800 0dce DF0D0000 		.4byte	0xddf
 4801 0dd2 0C       		.uleb128 0xc
 4802 0dd3 01       		.uleb128 0x1
 4803 0dd4 50       		.byte	0x50
 4804 0dd5 02       		.uleb128 0x2
 4805 0dd6 74       		.byte	0x74
 4806 0dd7 00       		.sleb128 0
 4807 0dd8 0C       		.uleb128 0xc
 4808 0dd9 01       		.uleb128 0x1
 4809 0dda 51       		.byte	0x51
 4810 0ddb 02       		.uleb128 0x2
 4811 0ddc 75       		.byte	0x75
 4812 0ddd 00       		.sleb128 0
 4813 0dde 00       		.byte	0
 4814 0ddf 0B       		.uleb128 0xb
 4815 0de0 72000000 		.4byte	.LVL159
 4816 0de4 A1200000 		.4byte	0x20a1
 4817 0de8 F30D0000 		.4byte	0xdf3
 4818 0dec 0C       		.uleb128 0xc
 4819 0ded 01       		.uleb128 0x1
 4820 0dee 50       		.byte	0x50
 4821 0def 02       		.uleb128 0x2
 4822 0df0 91       		.byte	0x91
 4823 0df1 64       		.sleb128 -28
ARM GAS  C:\Users\EVGENY~1\AppData\Local\Temp\ccpzgcQX.s 			page 107


 4824 0df2 00       		.byte	0
 4825 0df3 0D       		.uleb128 0xd
 4826 0df4 7C000000 		.4byte	.LVL160
 4827 0df8 870C0000 		.4byte	0xc87
 4828 0dfc 10       		.uleb128 0x10
 4829 0dfd 90000000 		.4byte	.LVL161
 4830 0e01 A91F0000 		.4byte	0x1fa9
 4831 0e05 0C       		.uleb128 0xc
 4832 0e06 01       		.uleb128 0x1
 4833 0e07 50       		.byte	0x50
 4834 0e08 01       		.uleb128 0x1
 4835 0e09 30       		.byte	0x30
 4836 0e0a 0C       		.uleb128 0xc
 4837 0e0b 01       		.uleb128 0x1
 4838 0e0c 51       		.byte	0x51
 4839 0e0d 01       		.uleb128 0x1
 4840 0e0e 30       		.byte	0x30
 4841 0e0f 00       		.byte	0
 4842 0e10 00       		.byte	0
 4843 0e11 08       		.uleb128 0x8
 4844 0e12 2D010000 		.4byte	.LASF61
 4845 0e16 01       		.byte	0x1
 4846 0e17 79       		.byte	0x79
 4847 0e18 00000000 		.4byte	.LFB88
 4848 0e1c 58000000 		.4byte	.LFE88-.LFB88
 4849 0e20 01       		.uleb128 0x1
 4850 0e21 9C       		.byte	0x9c
 4851 0e22 010F0000 		.4byte	0xf01
 4852 0e26 0F       		.uleb128 0xf
 4853 0e27 07000000 		.4byte	.LASF62
 4854 0e2b 01       		.byte	0x1
 4855 0e2c 7B       		.byte	0x7b
 4856 0e2d 90000000 		.4byte	0x90
 4857 0e31 72040000 		.4byte	.LLST31
 4858 0e35 1D       		.uleb128 0x1d
 4859 0e36 64696700 		.ascii	"dig\000"
 4860 0e3a 01       		.byte	0x1
 4861 0e3b 7C       		.byte	0x7c
 4862 0e3c 0A010000 		.4byte	0x10a
 4863 0e40 02       		.uleb128 0x2
 4864 0e41 91       		.byte	0x91
 4865 0e42 6C       		.sleb128 -20
 4866 0e43 0B       		.uleb128 0xb
 4867 0e44 14000000 		.4byte	.LVL163
 4868 0e48 3C0A0000 		.4byte	0xa3c
 4869 0e4c 6D0E0000 		.4byte	0xe6d
 4870 0e50 0C       		.uleb128 0xc
 4871 0e51 01       		.uleb128 0x1
 4872 0e52 50       		.byte	0x50
 4873 0e53 01       		.uleb128 0x1
 4874 0e54 31       		.byte	0x31
 4875 0e55 0C       		.uleb128 0xc
 4876 0e56 01       		.uleb128 0x1
 4877 0e57 51       		.byte	0x51
 4878 0e58 02       		.uleb128 0x2
 4879 0e59 74       		.byte	0x74
 4880 0e5a 00       		.sleb128 0
ARM GAS  C:\Users\EVGENY~1\AppData\Local\Temp\ccpzgcQX.s 			page 108


 4881 0e5b 0C       		.uleb128 0xc
 4882 0e5c 01       		.uleb128 0x1
 4883 0e5d 52       		.byte	0x52
 4884 0e5e 01       		.uleb128 0x1
 4885 0e5f 31       		.byte	0x31
 4886 0e60 0C       		.uleb128 0xc
 4887 0e61 01       		.uleb128 0x1
 4888 0e62 53       		.byte	0x53
 4889 0e63 01       		.uleb128 0x1
 4890 0e64 31       		.byte	0x31
 4891 0e65 0C       		.uleb128 0xc
 4892 0e66 02       		.uleb128 0x2
 4893 0e67 7D       		.byte	0x7d
 4894 0e68 00       		.sleb128 0
 4895 0e69 02       		.uleb128 0x2
 4896 0e6a 74       		.byte	0x74
 4897 0e6b 00       		.sleb128 0
 4898 0e6c 00       		.byte	0
 4899 0e6d 0B       		.uleb128 0xb
 4900 0e6e 1A000000 		.4byte	.LVL164
 4901 0e72 A1200000 		.4byte	0x20a1
 4902 0e76 810E0000 		.4byte	0xe81
 4903 0e7a 0C       		.uleb128 0xc
 4904 0e7b 01       		.uleb128 0x1
 4905 0e7c 50       		.byte	0x50
 4906 0e7d 02       		.uleb128 0x2
 4907 0e7e 91       		.byte	0x91
 4908 0e7f 6C       		.sleb128 -20
 4909 0e80 00       		.byte	0
 4910 0e81 0B       		.uleb128 0xb
 4911 0e82 24000000 		.4byte	.LVL166
 4912 0e86 BF0C0000 		.4byte	0xcbf
 4913 0e8a 9A0E0000 		.4byte	0xe9a
 4914 0e8e 0C       		.uleb128 0xc
 4915 0e8f 01       		.uleb128 0x1
 4916 0e90 50       		.byte	0x50
 4917 0e91 02       		.uleb128 0x2
 4918 0e92 08       		.byte	0x8
 4919 0e93 64       		.byte	0x64
 4920 0e94 0C       		.uleb128 0xc
 4921 0e95 01       		.uleb128 0x1
 4922 0e96 51       		.byte	0x51
 4923 0e97 01       		.uleb128 0x1
 4924 0e98 30       		.byte	0x30
 4925 0e99 00       		.byte	0
 4926 0e9a 0B       		.uleb128 0xb
 4927 0e9b 32000000 		.4byte	.LVL168
 4928 0e9f A91F0000 		.4byte	0x1fa9
 4929 0ea3 B20E0000 		.4byte	0xeb2
 4930 0ea7 0C       		.uleb128 0xc
 4931 0ea8 01       		.uleb128 0x1
 4932 0ea9 50       		.byte	0x50
 4933 0eaa 01       		.uleb128 0x1
 4934 0eab 30       		.byte	0x30
 4935 0eac 0C       		.uleb128 0xc
 4936 0ead 01       		.uleb128 0x1
 4937 0eae 51       		.byte	0x51
ARM GAS  C:\Users\EVGENY~1\AppData\Local\Temp\ccpzgcQX.s 			page 109


 4938 0eaf 01       		.uleb128 0x1
 4939 0eb0 30       		.byte	0x30
 4940 0eb1 00       		.byte	0
 4941 0eb2 0B       		.uleb128 0xb
 4942 0eb3 40000000 		.4byte	.LVL169
 4943 0eb7 3C0A0000 		.4byte	0xa3c
 4944 0ebb DA0E0000 		.4byte	0xeda
 4945 0ebf 0C       		.uleb128 0xc
 4946 0ec0 01       		.uleb128 0x1
 4947 0ec1 50       		.byte	0x50
 4948 0ec2 01       		.uleb128 0x1
 4949 0ec3 30       		.byte	0x30
 4950 0ec4 0C       		.uleb128 0xc
 4951 0ec5 01       		.uleb128 0x1
 4952 0ec6 51       		.byte	0x51
 4953 0ec7 01       		.uleb128 0x1
 4954 0ec8 31       		.byte	0x31
 4955 0ec9 0C       		.uleb128 0xc
 4956 0eca 01       		.uleb128 0x1
 4957 0ecb 52       		.byte	0x52
 4958 0ecc 01       		.uleb128 0x1
 4959 0ecd 30       		.byte	0x30
 4960 0ece 0C       		.uleb128 0xc
 4961 0ecf 01       		.uleb128 0x1
 4962 0ed0 53       		.byte	0x53
 4963 0ed1 01       		.uleb128 0x1
 4964 0ed2 30       		.byte	0x30
 4965 0ed3 0C       		.uleb128 0xc
 4966 0ed4 02       		.uleb128 0x2
 4967 0ed5 7D       		.byte	0x7d
 4968 0ed6 00       		.sleb128 0
 4969 0ed7 01       		.uleb128 0x1
 4970 0ed8 30       		.byte	0x30
 4971 0ed9 00       		.byte	0
 4972 0eda 0B       		.uleb128 0xb
 4973 0edb 4C000000 		.4byte	.LVL170
 4974 0edf BF1F0000 		.4byte	0x1fbf
 4975 0ee3 F70E0000 		.4byte	0xef7
 4976 0ee7 0C       		.uleb128 0xc
 4977 0ee8 01       		.uleb128 0x1
 4978 0ee9 50       		.byte	0x50
 4979 0eea 05       		.uleb128 0x5
 4980 0eeb 03       		.byte	0x3
 4981 0eec B4010000 		.4byte	.LC17
 4982 0ef0 0C       		.uleb128 0xc
 4983 0ef1 01       		.uleb128 0x1
 4984 0ef2 51       		.byte	0x51
 4985 0ef3 02       		.uleb128 0x2
 4986 0ef4 74       		.byte	0x74
 4987 0ef5 00       		.sleb128 0
 4988 0ef6 00       		.byte	0
 4989 0ef7 0D       		.uleb128 0xd
 4990 0ef8 50000000 		.4byte	.LVL171
 4991 0efc 22090000 		.4byte	0x922
 4992 0f00 00       		.byte	0
 4993 0f01 08       		.uleb128 0x8
 4994 0f02 98040000 		.4byte	.LASF63
ARM GAS  C:\Users\EVGENY~1\AppData\Local\Temp\ccpzgcQX.s 			page 110


 4995 0f06 01       		.byte	0x1
 4996 0f07 92       		.byte	0x92
 4997 0f08 00000000 		.4byte	.LFB89
 4998 0f0c B6000000 		.4byte	.LFE89-.LFB89
 4999 0f10 01       		.uleb128 0x1
 5000 0f11 9C       		.byte	0x9c
 5001 0f12 71100000 		.4byte	0x1071
 5002 0f16 1D       		.uleb128 0x1d
 5003 0f17 64696700 		.ascii	"dig\000"
 5004 0f1b 01       		.byte	0x1
 5005 0f1c 94       		.byte	0x94
 5006 0f1d 0A010000 		.4byte	0x10a
 5007 0f21 02       		.uleb128 0x2
 5008 0f22 91       		.byte	0x91
 5009 0f23 6C       		.sleb128 -20
 5010 0f24 0B       		.uleb128 0xb
 5011 0f25 14000000 		.4byte	.LVL173
 5012 0f29 3C0A0000 		.4byte	0xa3c
 5013 0f2d 4D0F0000 		.4byte	0xf4d
 5014 0f31 0C       		.uleb128 0xc
 5015 0f32 01       		.uleb128 0x1
 5016 0f33 50       		.byte	0x50
 5017 0f34 01       		.uleb128 0x1
 5018 0f35 31       		.byte	0x31
 5019 0f36 0C       		.uleb128 0xc
 5020 0f37 01       		.uleb128 0x1
 5021 0f38 51       		.byte	0x51
 5022 0f39 01       		.uleb128 0x1
 5023 0f3a 31       		.byte	0x31
 5024 0f3b 0C       		.uleb128 0xc
 5025 0f3c 01       		.uleb128 0x1
 5026 0f3d 52       		.byte	0x52
 5027 0f3e 01       		.uleb128 0x1
 5028 0f3f 31       		.byte	0x31
 5029 0f40 0C       		.uleb128 0xc
 5030 0f41 01       		.uleb128 0x1
 5031 0f42 53       		.byte	0x53
 5032 0f43 01       		.uleb128 0x1
 5033 0f44 31       		.byte	0x31
 5034 0f45 0C       		.uleb128 0xc
 5035 0f46 02       		.uleb128 0x2
 5036 0f47 7D       		.byte	0x7d
 5037 0f48 00       		.sleb128 0
 5038 0f49 02       		.uleb128 0x2
 5039 0f4a 74       		.byte	0x74
 5040 0f4b 00       		.sleb128 0
 5041 0f4c 00       		.byte	0
 5042 0f4d 0B       		.uleb128 0xb
 5043 0f4e 1A000000 		.4byte	.LVL174
 5044 0f52 A1200000 		.4byte	0x20a1
 5045 0f56 610F0000 		.4byte	0xf61
 5046 0f5a 0C       		.uleb128 0xc
 5047 0f5b 01       		.uleb128 0x1
 5048 0f5c 50       		.byte	0x50
 5049 0f5d 02       		.uleb128 0x2
 5050 0f5e 91       		.byte	0x91
 5051 0f5f 6C       		.sleb128 -20
ARM GAS  C:\Users\EVGENY~1\AppData\Local\Temp\ccpzgcQX.s 			page 111


 5052 0f60 00       		.byte	0
 5053 0f61 0B       		.uleb128 0xb
 5054 0f62 22000000 		.4byte	.LVL175
 5055 0f66 BF0C0000 		.4byte	0xcbf
 5056 0f6a 7B0F0000 		.4byte	0xf7b
 5057 0f6e 0C       		.uleb128 0xc
 5058 0f6f 01       		.uleb128 0x1
 5059 0f70 50       		.byte	0x50
 5060 0f71 02       		.uleb128 0x2
 5061 0f72 08       		.byte	0x8
 5062 0f73 64       		.byte	0x64
 5063 0f74 0C       		.uleb128 0xc
 5064 0f75 01       		.uleb128 0x1
 5065 0f76 51       		.byte	0x51
 5066 0f77 02       		.uleb128 0x2
 5067 0f78 74       		.byte	0x74
 5068 0f79 00       		.sleb128 0
 5069 0f7a 00       		.byte	0
 5070 0f7b 0B       		.uleb128 0xb
 5071 0f7c 28000000 		.4byte	.LVL176
 5072 0f80 A1200000 		.4byte	0x20a1
 5073 0f84 8F0F0000 		.4byte	0xf8f
 5074 0f88 0C       		.uleb128 0xc
 5075 0f89 01       		.uleb128 0x1
 5076 0f8a 50       		.byte	0x50
 5077 0f8b 02       		.uleb128 0x2
 5078 0f8c 91       		.byte	0x91
 5079 0f8d 6C       		.sleb128 -20
 5080 0f8e 00       		.byte	0
 5081 0f8f 0B       		.uleb128 0xb
 5082 0f90 30000000 		.4byte	.LVL177
 5083 0f94 A1200000 		.4byte	0x20a1
 5084 0f98 A30F0000 		.4byte	0xfa3
 5085 0f9c 0C       		.uleb128 0xc
 5086 0f9d 01       		.uleb128 0x1
 5087 0f9e 50       		.byte	0x50
 5088 0f9f 02       		.uleb128 0x2
 5089 0fa0 91       		.byte	0x91
 5090 0fa1 6C       		.sleb128 -20
 5091 0fa2 00       		.byte	0
 5092 0fa3 0B       		.uleb128 0xb
 5093 0fa4 38000000 		.4byte	.LVL178
 5094 0fa8 A91F0000 		.4byte	0x1fa9
 5095 0fac BD0F0000 		.4byte	0xfbd
 5096 0fb0 0C       		.uleb128 0xc
 5097 0fb1 01       		.uleb128 0x1
 5098 0fb2 50       		.byte	0x50
 5099 0fb3 02       		.uleb128 0x2
 5100 0fb4 08       		.byte	0x8
 5101 0fb5 7D       		.byte	0x7d
 5102 0fb6 0C       		.uleb128 0xc
 5103 0fb7 01       		.uleb128 0x1
 5104 0fb8 51       		.byte	0x51
 5105 0fb9 02       		.uleb128 0x2
 5106 0fba 74       		.byte	0x74
 5107 0fbb 00       		.sleb128 0
 5108 0fbc 00       		.byte	0
ARM GAS  C:\Users\EVGENY~1\AppData\Local\Temp\ccpzgcQX.s 			page 112


 5109 0fbd 0B       		.uleb128 0xb
 5110 0fbe 5E000000 		.4byte	.LVL179
 5111 0fc2 A1200000 		.4byte	0x20a1
 5112 0fc6 D10F0000 		.4byte	0xfd1
 5113 0fca 0C       		.uleb128 0xc
 5114 0fcb 01       		.uleb128 0x1
 5115 0fcc 50       		.byte	0x50
 5116 0fcd 02       		.uleb128 0x2
 5117 0fce 91       		.byte	0x91
 5118 0fcf 6C       		.sleb128 -20
 5119 0fd0 00       		.byte	0
 5120 0fd1 0B       		.uleb128 0xb
 5121 0fd2 68000000 		.4byte	.LVL180
 5122 0fd6 A91F0000 		.4byte	0x1fa9
 5123 0fda EB0F0000 		.4byte	0xfeb
 5124 0fde 0C       		.uleb128 0xc
 5125 0fdf 01       		.uleb128 0x1
 5126 0fe0 50       		.byte	0x50
 5127 0fe1 02       		.uleb128 0x2
 5128 0fe2 08       		.byte	0x8
 5129 0fe3 32       		.byte	0x32
 5130 0fe4 0C       		.uleb128 0xc
 5131 0fe5 01       		.uleb128 0x1
 5132 0fe6 51       		.byte	0x51
 5133 0fe7 02       		.uleb128 0x2
 5134 0fe8 74       		.byte	0x74
 5135 0fe9 00       		.sleb128 0
 5136 0fea 00       		.byte	0
 5137 0feb 0B       		.uleb128 0xb
 5138 0fec 6E000000 		.4byte	.LVL181
 5139 0ff0 A1200000 		.4byte	0x20a1
 5140 0ff4 FF0F0000 		.4byte	0xfff
 5141 0ff8 0C       		.uleb128 0xc
 5142 0ff9 01       		.uleb128 0x1
 5143 0ffa 50       		.byte	0x50
 5144 0ffb 02       		.uleb128 0x2
 5145 0ffc 91       		.byte	0x91
 5146 0ffd 6C       		.sleb128 -20
 5147 0ffe 00       		.byte	0
 5148 0fff 0B       		.uleb128 0xb
 5149 1000 80000000 		.4byte	.LVL182
 5150 1004 E11F0000 		.4byte	0x1fe1
 5151 1008 1F100000 		.4byte	0x101f
 5152 100c 0C       		.uleb128 0xc
 5153 100d 01       		.uleb128 0x1
 5154 100e 50       		.byte	0x50
 5155 100f 02       		.uleb128 0x2
 5156 1010 09       		.byte	0x9
 5157 1011 96       		.byte	0x96
 5158 1012 0C       		.uleb128 0xc
 5159 1013 01       		.uleb128 0x1
 5160 1014 51       		.byte	0x51
 5161 1015 02       		.uleb128 0x2
 5162 1016 74       		.byte	0x74
 5163 1017 00       		.sleb128 0
 5164 1018 0C       		.uleb128 0xc
 5165 1019 01       		.uleb128 0x1
ARM GAS  C:\Users\EVGENY~1\AppData\Local\Temp\ccpzgcQX.s 			page 113


 5166 101a 52       		.byte	0x52
 5167 101b 02       		.uleb128 0x2
 5168 101c 74       		.byte	0x74
 5169 101d 00       		.sleb128 0
 5170 101e 00       		.byte	0
 5171 101f 0B       		.uleb128 0xb
 5172 1020 86000000 		.4byte	.LVL183
 5173 1024 A1200000 		.4byte	0x20a1
 5174 1028 33100000 		.4byte	0x1033
 5175 102c 0C       		.uleb128 0xc
 5176 102d 01       		.uleb128 0x1
 5177 102e 50       		.byte	0x50
 5178 102f 02       		.uleb128 0x2
 5179 1030 91       		.byte	0x91
 5180 1031 6C       		.sleb128 -20
 5181 1032 00       		.byte	0
 5182 1033 0B       		.uleb128 0xb
 5183 1034 9A000000 		.4byte	.LVL184
 5184 1038 E11F0000 		.4byte	0x1fe1
 5185 103c 53100000 		.4byte	0x1053
 5186 1040 0C       		.uleb128 0xc
 5187 1041 01       		.uleb128 0x1
 5188 1042 50       		.byte	0x50
 5189 1043 02       		.uleb128 0x2
 5190 1044 74       		.byte	0x74
 5191 1045 00       		.sleb128 0
 5192 1046 0C       		.uleb128 0xc
 5193 1047 01       		.uleb128 0x1
 5194 1048 51       		.byte	0x51
 5195 1049 02       		.uleb128 0x2
 5196 104a 09       		.byte	0x9
 5197 104b C8       		.byte	0xc8
 5198 104c 0C       		.uleb128 0xc
 5199 104d 01       		.uleb128 0x1
 5200 104e 52       		.byte	0x52
 5201 104f 02       		.uleb128 0x2
 5202 1050 74       		.byte	0x74
 5203 1051 00       		.sleb128 0
 5204 1052 00       		.byte	0
 5205 1053 0B       		.uleb128 0xb
 5206 1054 A0000000 		.4byte	.LVL185
 5207 1058 A1200000 		.4byte	0x20a1
 5208 105c 67100000 		.4byte	0x1067
 5209 1060 0C       		.uleb128 0xc
 5210 1061 01       		.uleb128 0x1
 5211 1062 50       		.byte	0x50
 5212 1063 02       		.uleb128 0x2
 5213 1064 91       		.byte	0x91
 5214 1065 6C       		.sleb128 -20
 5215 1066 00       		.byte	0
 5216 1067 0D       		.uleb128 0xd
 5217 1068 B2000000 		.4byte	.LVL186
 5218 106c 22090000 		.4byte	0x922
 5219 1070 00       		.byte	0
 5220 1071 08       		.uleb128 0x8
 5221 1072 9E020000 		.4byte	.LASF64
 5222 1076 01       		.byte	0x1
ARM GAS  C:\Users\EVGENY~1\AppData\Local\Temp\ccpzgcQX.s 			page 114


 5223 1077 B4       		.byte	0xb4
 5224 1078 00000000 		.4byte	.LFB90
 5225 107c 38010000 		.4byte	.LFE90-.LFB90
 5226 1080 01       		.uleb128 0x1
 5227 1081 9C       		.byte	0x9c
 5228 1082 0E120000 		.4byte	0x120e
 5229 1086 0F       		.uleb128 0xf
 5230 1087 07000000 		.4byte	.LASF62
 5231 108b 01       		.byte	0x1
 5232 108c B6       		.byte	0xb6
 5233 108d B8000000 		.4byte	0xb8
 5234 1091 91040000 		.4byte	.LLST32
 5235 1095 1D       		.uleb128 0x1d
 5236 1096 64696700 		.ascii	"dig\000"
 5237 109a 01       		.byte	0x1
 5238 109b B7       		.byte	0xb7
 5239 109c 0A010000 		.4byte	0x10a
 5240 10a0 02       		.uleb128 0x2
 5241 10a1 91       		.byte	0x91
 5242 10a2 6C       		.sleb128 -20
 5243 10a3 0B       		.uleb128 0xb
 5244 10a4 14000000 		.4byte	.LVL188
 5245 10a8 3C0A0000 		.4byte	0xa3c
 5246 10ac CD100000 		.4byte	0x10cd
 5247 10b0 0C       		.uleb128 0xc
 5248 10b1 01       		.uleb128 0x1
 5249 10b2 50       		.byte	0x50
 5250 10b3 01       		.uleb128 0x1
 5251 10b4 31       		.byte	0x31
 5252 10b5 0C       		.uleb128 0xc
 5253 10b6 01       		.uleb128 0x1
 5254 10b7 51       		.byte	0x51
 5255 10b8 02       		.uleb128 0x2
 5256 10b9 74       		.byte	0x74
 5257 10ba 00       		.sleb128 0
 5258 10bb 0C       		.uleb128 0xc
 5259 10bc 01       		.uleb128 0x1
 5260 10bd 52       		.byte	0x52
 5261 10be 01       		.uleb128 0x1
 5262 10bf 31       		.byte	0x31
 5263 10c0 0C       		.uleb128 0xc
 5264 10c1 01       		.uleb128 0x1
 5265 10c2 53       		.byte	0x53
 5266 10c3 01       		.uleb128 0x1
 5267 10c4 31       		.byte	0x31
 5268 10c5 0C       		.uleb128 0xc
 5269 10c6 02       		.uleb128 0x2
 5270 10c7 7D       		.byte	0x7d
 5271 10c8 00       		.sleb128 0
 5272 10c9 02       		.uleb128 0x2
 5273 10ca 74       		.byte	0x74
 5274 10cb 00       		.sleb128 0
 5275 10cc 00       		.byte	0
 5276 10cd 0B       		.uleb128 0xb
 5277 10ce 1A000000 		.4byte	.LVL189
 5278 10d2 A1200000 		.4byte	0x20a1
 5279 10d6 E1100000 		.4byte	0x10e1
ARM GAS  C:\Users\EVGENY~1\AppData\Local\Temp\ccpzgcQX.s 			page 115


 5280 10da 0C       		.uleb128 0xc
 5281 10db 01       		.uleb128 0x1
 5282 10dc 50       		.byte	0x50
 5283 10dd 02       		.uleb128 0x2
 5284 10de 91       		.byte	0x91
 5285 10df 6C       		.sleb128 -20
 5286 10e0 00       		.byte	0
 5287 10e1 0B       		.uleb128 0xb
 5288 10e2 24000000 		.4byte	.LVL191
 5289 10e6 BF0C0000 		.4byte	0xcbf
 5290 10ea FA100000 		.4byte	0x10fa
 5291 10ee 0C       		.uleb128 0xc
 5292 10ef 01       		.uleb128 0x1
 5293 10f0 50       		.byte	0x50
 5294 10f1 02       		.uleb128 0x2
 5295 10f2 08       		.byte	0x8
 5296 10f3 64       		.byte	0x64
 5297 10f4 0C       		.uleb128 0xc
 5298 10f5 01       		.uleb128 0x1
 5299 10f6 51       		.byte	0x51
 5300 10f7 01       		.uleb128 0x1
 5301 10f8 30       		.byte	0x30
 5302 10f9 00       		.byte	0
 5303 10fa 0B       		.uleb128 0xb
 5304 10fb 2E000000 		.4byte	.LVL193
 5305 10ff BF1F0000 		.4byte	0x1fbf
 5306 1103 17110000 		.4byte	0x1117
 5307 1107 0C       		.uleb128 0xc
 5308 1108 01       		.uleb128 0x1
 5309 1109 50       		.byte	0x50
 5310 110a 05       		.uleb128 0x5
 5311 110b 03       		.byte	0x3
 5312 110c CC010000 		.4byte	.LC18
 5313 1110 0C       		.uleb128 0xc
 5314 1111 01       		.uleb128 0x1
 5315 1112 51       		.byte	0x51
 5316 1113 02       		.uleb128 0x2
 5317 1114 74       		.byte	0x74
 5318 1115 00       		.sleb128 0
 5319 1116 00       		.byte	0
 5320 1117 0B       		.uleb128 0xb
 5321 1118 34000000 		.4byte	.LVL194
 5322 111c A1200000 		.4byte	0x20a1
 5323 1120 2B110000 		.4byte	0x112b
 5324 1124 0C       		.uleb128 0xc
 5325 1125 01       		.uleb128 0x1
 5326 1126 50       		.byte	0x50
 5327 1127 02       		.uleb128 0x2
 5328 1128 91       		.byte	0x91
 5329 1129 6C       		.sleb128 -20
 5330 112a 00       		.byte	0
 5331 112b 0B       		.uleb128 0xb
 5332 112c 40000000 		.4byte	.LVL195
 5333 1130 A91F0000 		.4byte	0x1fa9
 5334 1134 43110000 		.4byte	0x1143
 5335 1138 0C       		.uleb128 0xc
 5336 1139 01       		.uleb128 0x1
ARM GAS  C:\Users\EVGENY~1\AppData\Local\Temp\ccpzgcQX.s 			page 116


 5337 113a 50       		.byte	0x50
 5338 113b 01       		.uleb128 0x1
 5339 113c 30       		.byte	0x30
 5340 113d 0C       		.uleb128 0xc
 5341 113e 01       		.uleb128 0x1
 5342 113f 51       		.byte	0x51
 5343 1140 01       		.uleb128 0x1
 5344 1141 30       		.byte	0x30
 5345 1142 00       		.byte	0
 5346 1143 0B       		.uleb128 0xb
 5347 1144 4E000000 		.4byte	.LVL196
 5348 1148 3C0A0000 		.4byte	0xa3c
 5349 114c 6B110000 		.4byte	0x116b
 5350 1150 0C       		.uleb128 0xc
 5351 1151 01       		.uleb128 0x1
 5352 1152 50       		.byte	0x50
 5353 1153 01       		.uleb128 0x1
 5354 1154 30       		.byte	0x30
 5355 1155 0C       		.uleb128 0xc
 5356 1156 01       		.uleb128 0x1
 5357 1157 51       		.byte	0x51
 5358 1158 01       		.uleb128 0x1
 5359 1159 31       		.byte	0x31
 5360 115a 0C       		.uleb128 0xc
 5361 115b 01       		.uleb128 0x1
 5362 115c 52       		.byte	0x52
 5363 115d 01       		.uleb128 0x1
 5364 115e 30       		.byte	0x30
 5365 115f 0C       		.uleb128 0xc
 5366 1160 01       		.uleb128 0x1
 5367 1161 53       		.byte	0x53
 5368 1162 01       		.uleb128 0x1
 5369 1163 30       		.byte	0x30
 5370 1164 0C       		.uleb128 0xc
 5371 1165 02       		.uleb128 0x2
 5372 1166 7D       		.byte	0x7d
 5373 1167 00       		.sleb128 0
 5374 1168 01       		.uleb128 0x1
 5375 1169 30       		.byte	0x30
 5376 116a 00       		.byte	0
 5377 116b 0B       		.uleb128 0xb
 5378 116c 60000000 		.4byte	.LVL197
 5379 1170 E11F0000 		.4byte	0x1fe1
 5380 1174 8A110000 		.4byte	0x118a
 5381 1178 0C       		.uleb128 0xc
 5382 1179 01       		.uleb128 0x1
 5383 117a 50       		.byte	0x50
 5384 117b 01       		.uleb128 0x1
 5385 117c 34       		.byte	0x34
 5386 117d 0C       		.uleb128 0xc
 5387 117e 01       		.uleb128 0x1
 5388 117f 51       		.byte	0x51
 5389 1180 02       		.uleb128 0x2
 5390 1181 09       		.byte	0x9
 5391 1182 FA       		.byte	0xfa
 5392 1183 0C       		.uleb128 0xc
 5393 1184 01       		.uleb128 0x1
ARM GAS  C:\Users\EVGENY~1\AppData\Local\Temp\ccpzgcQX.s 			page 117


 5394 1185 52       		.byte	0x52
 5395 1186 02       		.uleb128 0x2
 5396 1187 08       		.byte	0x8
 5397 1188 32       		.byte	0x32
 5398 1189 00       		.byte	0
 5399 118a 0B       		.uleb128 0xb
 5400 118b 66000000 		.4byte	.LVL198
 5401 118f A1200000 		.4byte	0x20a1
 5402 1193 9E110000 		.4byte	0x119e
 5403 1197 0C       		.uleb128 0xc
 5404 1198 01       		.uleb128 0x1
 5405 1199 50       		.byte	0x50
 5406 119a 02       		.uleb128 0x2
 5407 119b 91       		.byte	0x91
 5408 119c 6C       		.sleb128 -20
 5409 119d 00       		.byte	0
 5410 119e 0B       		.uleb128 0xb
 5411 119f A8000000 		.4byte	.LVL199
 5412 11a3 E11F0000 		.4byte	0x1fe1
 5413 11a7 BD110000 		.4byte	0x11bd
 5414 11ab 0C       		.uleb128 0xc
 5415 11ac 01       		.uleb128 0x1
 5416 11ad 50       		.byte	0x50
 5417 11ae 02       		.uleb128 0x2
 5418 11af 09       		.byte	0x9
 5419 11b0 E6       		.byte	0xe6
 5420 11b1 0C       		.uleb128 0xc
 5421 11b2 01       		.uleb128 0x1
 5422 11b3 51       		.byte	0x51
 5423 11b4 01       		.uleb128 0x1
 5424 11b5 3A       		.byte	0x3a
 5425 11b6 0C       		.uleb128 0xc
 5426 11b7 01       		.uleb128 0x1
 5427 11b8 52       		.byte	0x52
 5428 11b9 02       		.uleb128 0x2
 5429 11ba 08       		.byte	0x8
 5430 11bb 46       		.byte	0x46
 5431 11bc 00       		.byte	0
 5432 11bd 0B       		.uleb128 0xb
 5433 11be AE000000 		.4byte	.LVL200
 5434 11c2 A1200000 		.4byte	0x20a1
 5435 11c6 D1110000 		.4byte	0x11d1
 5436 11ca 0C       		.uleb128 0xc
 5437 11cb 01       		.uleb128 0x1
 5438 11cc 50       		.byte	0x50
 5439 11cd 02       		.uleb128 0x2
 5440 11ce 91       		.byte	0x91
 5441 11cf 6C       		.sleb128 -20
 5442 11d0 00       		.byte	0
 5443 11d1 0B       		.uleb128 0xb
 5444 11d2 F0000000 		.4byte	.LVL201
 5445 11d6 E11F0000 		.4byte	0x1fe1
 5446 11da F0110000 		.4byte	0x11f0
 5447 11de 0C       		.uleb128 0xc
 5448 11df 01       		.uleb128 0x1
 5449 11e0 50       		.byte	0x50
 5450 11e1 02       		.uleb128 0x2
ARM GAS  C:\Users\EVGENY~1\AppData\Local\Temp\ccpzgcQX.s 			page 118


 5451 11e2 09       		.byte	0x9
 5452 11e3 E6       		.byte	0xe6
 5453 11e4 0C       		.uleb128 0xc
 5454 11e5 01       		.uleb128 0x1
 5455 11e6 51       		.byte	0x51
 5456 11e7 01       		.uleb128 0x1
 5457 11e8 3A       		.byte	0x3a
 5458 11e9 0C       		.uleb128 0xc
 5459 11ea 01       		.uleb128 0x1
 5460 11eb 52       		.byte	0x52
 5461 11ec 02       		.uleb128 0x2
 5462 11ed 08       		.byte	0x8
 5463 11ee 32       		.byte	0x32
 5464 11ef 00       		.byte	0
 5465 11f0 0B       		.uleb128 0xb
 5466 11f1 F6000000 		.4byte	.LVL202
 5467 11f5 A1200000 		.4byte	0x20a1
 5468 11f9 04120000 		.4byte	0x1204
 5469 11fd 0C       		.uleb128 0xc
 5470 11fe 01       		.uleb128 0x1
 5471 11ff 50       		.byte	0x50
 5472 1200 02       		.uleb128 0x2
 5473 1201 91       		.byte	0x91
 5474 1202 6C       		.sleb128 -20
 5475 1203 00       		.byte	0
 5476 1204 0D       		.uleb128 0xd
 5477 1205 30010000 		.4byte	.LVL204
 5478 1209 22090000 		.4byte	0x922
 5479 120d 00       		.byte	0
 5480 120e 17       		.uleb128 0x17
 5481 120f 1C050000 		.4byte	.LASF65
 5482 1213 01       		.byte	0x1
 5483 1214 1901     		.2byte	0x119
 5484 1216 00000000 		.4byte	.LFB93
 5485 121a 54000000 		.4byte	.LFE93-.LFB93
 5486 121e 01       		.uleb128 0x1
 5487 121f 9C       		.byte	0x9c
 5488 1220 06130000 		.4byte	0x1306
 5489 1224 18       		.uleb128 0x18
 5490 1225 6E020000 		.4byte	.LASF66
 5491 1229 01       		.byte	0x1
 5492 122a 1B01     		.2byte	0x11b
 5493 122c 90000000 		.4byte	0x90
 5494 1230 B0040000 		.4byte	.LLST33
 5495 1234 18       		.uleb128 0x18
 5496 1235 E1010000 		.4byte	.LASF67
 5497 1239 01       		.byte	0x1
 5498 123a 1C01     		.2byte	0x11c
 5499 123c B8000000 		.4byte	0xb8
 5500 1240 CF040000 		.4byte	.LLST34
 5501 1244 18       		.uleb128 0x18
 5502 1245 6E010000 		.4byte	.LASF68
 5503 1249 01       		.byte	0x1
 5504 124a 1C01     		.2byte	0x11c
 5505 124c B8000000 		.4byte	0xb8
 5506 1250 F9040000 		.4byte	.LLST35
 5507 1254 18       		.uleb128 0x18
ARM GAS  C:\Users\EVGENY~1\AppData\Local\Temp\ccpzgcQX.s 			page 119


 5508 1255 66020000 		.4byte	.LASF50
 5509 1259 01       		.byte	0x1
 5510 125a 1C01     		.2byte	0x11c
 5511 125c B8000000 		.4byte	0xb8
 5512 1260 18050000 		.4byte	.LLST36
 5513 1264 0B       		.uleb128 0xb
 5514 1265 14000000 		.4byte	.LVL207
 5515 1269 3C0A0000 		.4byte	0xa3c
 5516 126d 8E120000 		.4byte	0x128e
 5517 1271 0C       		.uleb128 0xc
 5518 1272 01       		.uleb128 0x1
 5519 1273 50       		.byte	0x50
 5520 1274 01       		.uleb128 0x1
 5521 1275 31       		.byte	0x31
 5522 1276 0C       		.uleb128 0xc
 5523 1277 01       		.uleb128 0x1
 5524 1278 51       		.byte	0x51
 5525 1279 01       		.uleb128 0x1
 5526 127a 31       		.byte	0x31
 5527 127b 0C       		.uleb128 0xc
 5528 127c 01       		.uleb128 0x1
 5529 127d 52       		.byte	0x52
 5530 127e 01       		.uleb128 0x1
 5531 127f 31       		.byte	0x31
 5532 1280 0C       		.uleb128 0xc
 5533 1281 01       		.uleb128 0x1
 5534 1282 53       		.byte	0x53
 5535 1283 02       		.uleb128 0x2
 5536 1284 74       		.byte	0x74
 5537 1285 00       		.sleb128 0
 5538 1286 0C       		.uleb128 0xc
 5539 1287 02       		.uleb128 0x2
 5540 1288 7D       		.byte	0x7d
 5541 1289 00       		.sleb128 0
 5542 128a 02       		.uleb128 0x2
 5543 128b 74       		.byte	0x74
 5544 128c 00       		.sleb128 0
 5545 128d 00       		.byte	0
 5546 128e 0B       		.uleb128 0xb
 5547 128f 1C000000 		.4byte	.LVL208
 5548 1293 BF0C0000 		.4byte	0xcbf
 5549 1297 A8120000 		.4byte	0x12a8
 5550 129b 0C       		.uleb128 0xc
 5551 129c 01       		.uleb128 0x1
 5552 129d 50       		.byte	0x50
 5553 129e 02       		.uleb128 0x2
 5554 129f 08       		.byte	0x8
 5555 12a0 64       		.byte	0x64
 5556 12a1 0C       		.uleb128 0xc
 5557 12a2 01       		.uleb128 0x1
 5558 12a3 51       		.byte	0x51
 5559 12a4 02       		.uleb128 0x2
 5560 12a5 74       		.byte	0x74
 5561 12a6 00       		.sleb128 0
 5562 12a7 00       		.byte	0
 5563 12a8 0D       		.uleb128 0xd
 5564 12a9 20000000 		.4byte	.LVL209
ARM GAS  C:\Users\EVGENY~1\AppData\Local\Temp\ccpzgcQX.s 			page 120


 5565 12ad 18200000 		.4byte	0x2018
 5566 12b1 0D       		.uleb128 0xd
 5567 12b2 24000000 		.4byte	.LVL210
 5568 12b6 3D200000 		.4byte	0x203d
 5569 12ba 0B       		.uleb128 0xb
 5570 12bb 30000000 		.4byte	.LVL213
 5571 12bf BF0C0000 		.4byte	0xcbf
 5572 12c3 D3120000 		.4byte	0x12d3
 5573 12c7 0C       		.uleb128 0xc
 5574 12c8 01       		.uleb128 0x1
 5575 12c9 50       		.byte	0x50
 5576 12ca 02       		.uleb128 0x2
 5577 12cb 09       		.byte	0x9
 5578 12cc 96       		.byte	0x96
 5579 12cd 0C       		.uleb128 0xc
 5580 12ce 01       		.uleb128 0x1
 5581 12cf 51       		.byte	0x51
 5582 12d0 01       		.uleb128 0x1
 5583 12d1 30       		.byte	0x30
 5584 12d2 00       		.byte	0
 5585 12d3 0D       		.uleb128 0xd
 5586 12d4 3A000000 		.4byte	.LVL215
 5587 12d8 3D200000 		.4byte	0x203d
 5588 12dc 0B       		.uleb128 0xb
 5589 12dd 44000000 		.4byte	.LVL218
 5590 12e1 49200000 		.4byte	0x2049
 5591 12e5 FC120000 		.4byte	0x12fc
 5592 12e9 0C       		.uleb128 0xc
 5593 12ea 01       		.uleb128 0x1
 5594 12eb 50       		.byte	0x50
 5595 12ec 05       		.uleb128 0x5
 5596 12ed 03       		.byte	0x3
 5597 12ee 00020000 		.4byte	.LC20
 5598 12f2 0C       		.uleb128 0xc
 5599 12f3 01       		.uleb128 0x1
 5600 12f4 51       		.byte	0x51
 5601 12f5 05       		.uleb128 0x5
 5602 12f6 03       		.byte	0x3
 5603 12f7 EC010000 		.4byte	.LC19
 5604 12fb 00       		.byte	0
 5605 12fc 0D       		.uleb128 0xd
 5606 12fd 48000000 		.4byte	.LVL219
 5607 1301 22090000 		.4byte	0x922
 5608 1305 00       		.byte	0
 5609 1306 17       		.uleb128 0x17
 5610 1307 8B030000 		.4byte	.LASF69
 5611 130b 01       		.byte	0x1
 5612 130c 5D01     		.2byte	0x15d
 5613 130e 00000000 		.4byte	.LFB95
 5614 1312 88000000 		.4byte	.LFE95-.LFB95
 5615 1316 01       		.uleb128 0x1
 5616 1317 9C       		.byte	0x9c
 5617 1318 6E140000 		.4byte	0x146e
 5618 131c 18       		.uleb128 0x18
 5619 131d 6E020000 		.4byte	.LASF66
 5620 1321 01       		.byte	0x1
 5621 1322 5E01     		.2byte	0x15e
ARM GAS  C:\Users\EVGENY~1\AppData\Local\Temp\ccpzgcQX.s 			page 121


 5622 1324 90000000 		.4byte	0x90
 5623 1328 47050000 		.4byte	.LLST37
 5624 132c 1B       		.uleb128 0x1b
 5625 132d 64696700 		.ascii	"dig\000"
 5626 1331 01       		.byte	0x1
 5627 1332 5F01     		.2byte	0x15f
 5628 1334 0A010000 		.4byte	0x10a
 5629 1338 02       		.uleb128 0x2
 5630 1339 91       		.byte	0x91
 5631 133a 64       		.sleb128 -28
 5632 133b 18       		.uleb128 0x18
 5633 133c 49020000 		.4byte	.LASF70
 5634 1340 01       		.byte	0x1
 5635 1341 6001     		.2byte	0x160
 5636 1343 B8000000 		.4byte	0xb8
 5637 1347 66050000 		.4byte	.LLST38
 5638 134b 18       		.uleb128 0x18
 5639 134c 35020000 		.4byte	.LASF71
 5640 1350 01       		.byte	0x1
 5641 1351 6001     		.2byte	0x160
 5642 1353 B8000000 		.4byte	0xb8
 5643 1357 A6050000 		.4byte	.LLST39
 5644 135b 0B       		.uleb128 0xb
 5645 135c 14000000 		.4byte	.LVL222
 5646 1360 3C0A0000 		.4byte	0xa3c
 5647 1364 85130000 		.4byte	0x1385
 5648 1368 0C       		.uleb128 0xc
 5649 1369 01       		.uleb128 0x1
 5650 136a 50       		.byte	0x50
 5651 136b 01       		.uleb128 0x1
 5652 136c 31       		.byte	0x31
 5653 136d 0C       		.uleb128 0xc
 5654 136e 01       		.uleb128 0x1
 5655 136f 51       		.byte	0x51
 5656 1370 01       		.uleb128 0x1
 5657 1371 31       		.byte	0x31
 5658 1372 0C       		.uleb128 0xc
 5659 1373 01       		.uleb128 0x1
 5660 1374 52       		.byte	0x52
 5661 1375 01       		.uleb128 0x1
 5662 1376 31       		.byte	0x31
 5663 1377 0C       		.uleb128 0xc
 5664 1378 01       		.uleb128 0x1
 5665 1379 53       		.byte	0x53
 5666 137a 02       		.uleb128 0x2
 5667 137b 74       		.byte	0x74
 5668 137c 00       		.sleb128 0
 5669 137d 0C       		.uleb128 0xc
 5670 137e 02       		.uleb128 0x2
 5671 137f 7D       		.byte	0x7d
 5672 1380 00       		.sleb128 0
 5673 1381 02       		.uleb128 0x2
 5674 1382 74       		.byte	0x74
 5675 1383 00       		.sleb128 0
 5676 1384 00       		.byte	0
 5677 1385 0B       		.uleb128 0xb
 5678 1386 1C000000 		.4byte	.LVL223
ARM GAS  C:\Users\EVGENY~1\AppData\Local\Temp\ccpzgcQX.s 			page 122


 5679 138a 49200000 		.4byte	0x2049
 5680 138e A5130000 		.4byte	0x13a5
 5681 1392 0C       		.uleb128 0xc
 5682 1393 01       		.uleb128 0x1
 5683 1394 50       		.byte	0x50
 5684 1395 05       		.uleb128 0x5
 5685 1396 03       		.byte	0x3
 5686 1397 14020000 		.4byte	.LC22
 5687 139b 0C       		.uleb128 0xc
 5688 139c 01       		.uleb128 0x1
 5689 139d 51       		.byte	0x51
 5690 139e 05       		.uleb128 0x5
 5691 139f 03       		.byte	0x3
 5692 13a0 0C020000 		.4byte	.LC21
 5693 13a4 00       		.byte	0
 5694 13a5 0D       		.uleb128 0xd
 5695 13a6 20000000 		.4byte	.LVL224
 5696 13aa 18200000 		.4byte	0x2018
 5697 13ae 0B       		.uleb128 0xb
 5698 13af 2A000000 		.4byte	.LVL226
 5699 13b3 A1200000 		.4byte	0x20a1
 5700 13b7 C2130000 		.4byte	0x13c2
 5701 13bb 0C       		.uleb128 0xc
 5702 13bc 01       		.uleb128 0x1
 5703 13bd 50       		.byte	0x50
 5704 13be 02       		.uleb128 0x2
 5705 13bf 91       		.byte	0x91
 5706 13c0 64       		.sleb128 -28
 5707 13c1 00       		.byte	0
 5708 13c2 0B       		.uleb128 0xb
 5709 13c3 32000000 		.4byte	.LVL227
 5710 13c7 BF0C0000 		.4byte	0xcbf
 5711 13cb DB130000 		.4byte	0x13db
 5712 13cf 0C       		.uleb128 0xc
 5713 13d0 01       		.uleb128 0x1
 5714 13d1 50       		.byte	0x50
 5715 13d2 02       		.uleb128 0x2
 5716 13d3 08       		.byte	0x8
 5717 13d4 64       		.byte	0x64
 5718 13d5 0C       		.uleb128 0xc
 5719 13d6 01       		.uleb128 0x1
 5720 13d7 51       		.byte	0x51
 5721 13d8 01       		.uleb128 0x1
 5722 13d9 30       		.byte	0x30
 5723 13da 00       		.byte	0
 5724 13db 0B       		.uleb128 0xb
 5725 13dc 40000000 		.4byte	.LVL229
 5726 13e0 A91F0000 		.4byte	0x1fa9
 5727 13e4 F3130000 		.4byte	0x13f3
 5728 13e8 0C       		.uleb128 0xc
 5729 13e9 01       		.uleb128 0x1
 5730 13ea 50       		.byte	0x50
 5731 13eb 01       		.uleb128 0x1
 5732 13ec 30       		.byte	0x30
 5733 13ed 0C       		.uleb128 0xc
 5734 13ee 01       		.uleb128 0x1
 5735 13ef 51       		.byte	0x51
ARM GAS  C:\Users\EVGENY~1\AppData\Local\Temp\ccpzgcQX.s 			page 123


 5736 13f0 01       		.uleb128 0x1
 5737 13f1 30       		.byte	0x30
 5738 13f2 00       		.byte	0
 5739 13f3 0B       		.uleb128 0xb
 5740 13f4 48000000 		.4byte	.LVL230
 5741 13f8 49200000 		.4byte	0x2049
 5742 13fc 13140000 		.4byte	0x1413
 5743 1400 0C       		.uleb128 0xc
 5744 1401 01       		.uleb128 0x1
 5745 1402 50       		.byte	0x50
 5746 1403 05       		.uleb128 0x5
 5747 1404 03       		.byte	0x3
 5748 1405 14020000 		.4byte	.LC22
 5749 1409 0C       		.uleb128 0xc
 5750 140a 01       		.uleb128 0x1
 5751 140b 51       		.byte	0x51
 5752 140c 05       		.uleb128 0x5
 5753 140d 03       		.byte	0x3
 5754 140e 24020000 		.4byte	.LC23
 5755 1412 00       		.byte	0
 5756 1413 0D       		.uleb128 0xd
 5757 1414 4C000000 		.4byte	.LVL231
 5758 1418 80200000 		.4byte	0x2080
 5759 141c 0D       		.uleb128 0xd
 5760 141d 50000000 		.4byte	.LVL232
 5761 1421 18200000 		.4byte	0x2018
 5762 1425 0D       		.uleb128 0xd
 5763 1426 54000000 		.4byte	.LVL233
 5764 142a 3D200000 		.4byte	0x203d
 5765 142e 0B       		.uleb128 0xb
 5766 142f 60000000 		.4byte	.LVL236
 5767 1433 49200000 		.4byte	0x2049
 5768 1437 54140000 		.4byte	0x1454
 5769 143b 0C       		.uleb128 0xc
 5770 143c 01       		.uleb128 0x1
 5771 143d 50       		.byte	0x50
 5772 143e 05       		.uleb128 0x5
 5773 143f 03       		.byte	0x3
 5774 1440 30020000 		.4byte	.LC25
 5775 1444 0C       		.uleb128 0xc
 5776 1445 01       		.uleb128 0x1
 5777 1446 51       		.byte	0x51
 5778 1447 05       		.uleb128 0x5
 5779 1448 03       		.byte	0x3
 5780 1449 2C020000 		.4byte	.LC24
 5781 144d 0C       		.uleb128 0xc
 5782 144e 01       		.uleb128 0x1
 5783 144f 52       		.byte	0x52
 5784 1450 02       		.uleb128 0x2
 5785 1451 75       		.byte	0x75
 5786 1452 00       		.sleb128 0
 5787 1453 00       		.byte	0
 5788 1454 0D       		.uleb128 0xd
 5789 1455 68000000 		.4byte	.LVL237
 5790 1459 3D200000 		.4byte	0x203d
 5791 145d 10       		.uleb128 0x10
 5792 145e 70000000 		.4byte	.LVL239
ARM GAS  C:\Users\EVGENY~1\AppData\Local\Temp\ccpzgcQX.s 			page 124


 5793 1462 71090000 		.4byte	0x971
 5794 1466 0C       		.uleb128 0xc
 5795 1467 01       		.uleb128 0x1
 5796 1468 50       		.byte	0x50
 5797 1469 02       		.uleb128 0x2
 5798 146a 75       		.byte	0x75
 5799 146b 00       		.sleb128 0
 5800 146c 00       		.byte	0
 5801 146d 00       		.byte	0
 5802 146e 17       		.uleb128 0x17
 5803 146f 31050000 		.4byte	.LASF72
 5804 1473 01       		.byte	0x1
 5805 1474 3501     		.2byte	0x135
 5806 1476 00000000 		.4byte	.LFB94
 5807 147a 10010000 		.4byte	.LFE94-.LFB94
 5808 147e 01       		.uleb128 0x1
 5809 147f 9C       		.byte	0x9c
 5810 1480 B1160000 		.4byte	0x16b1
 5811 1484 1B       		.uleb128 0x1b
 5812 1485 64696700 		.ascii	"dig\000"
 5813 1489 01       		.byte	0x1
 5814 148a 3701     		.2byte	0x137
 5815 148c 0A010000 		.4byte	0x10a
 5816 1490 02       		.uleb128 0x2
 5817 1491 91       		.byte	0x91
 5818 1492 64       		.sleb128 -28
 5819 1493 18       		.uleb128 0x18
 5820 1494 49020000 		.4byte	.LASF70
 5821 1498 01       		.byte	0x1
 5822 1499 3801     		.2byte	0x138
 5823 149b AD000000 		.4byte	0xad
 5824 149f D0050000 		.4byte	.LLST40
 5825 14a3 18       		.uleb128 0x18
 5826 14a4 35020000 		.4byte	.LASF71
 5827 14a8 01       		.byte	0x1
 5828 14a9 3801     		.2byte	0x138
 5829 14ab AD000000 		.4byte	0xad
 5830 14af 05060000 		.4byte	.LLST41
 5831 14b3 18       		.uleb128 0x18
 5832 14b4 CF040000 		.4byte	.LASF73
 5833 14b8 01       		.byte	0x1
 5834 14b9 3801     		.2byte	0x138
 5835 14bb AD000000 		.4byte	0xad
 5836 14bf 2F060000 		.4byte	.LLST42
 5837 14c3 09       		.uleb128 0x9
 5838 14c4 4E000000 		.4byte	.LBB4
 5839 14c8 90000000 		.4byte	.LBE4-.LBB4
 5840 14cc B5150000 		.4byte	0x15b5
 5841 14d0 18       		.uleb128 0x18
 5842 14d1 8B000000 		.4byte	.LASF74
 5843 14d5 01       		.byte	0x1
 5844 14d6 4701     		.2byte	0x147
 5845 14d8 90000000 		.4byte	0x90
 5846 14dc 59060000 		.4byte	.LLST43
 5847 14e0 0B       		.uleb128 0xb
 5848 14e1 56000000 		.4byte	.LVL255
 5849 14e5 90060000 		.4byte	0x690
ARM GAS  C:\Users\EVGENY~1\AppData\Local\Temp\ccpzgcQX.s 			page 125


 5850 14e9 FA140000 		.4byte	0x14fa
 5851 14ed 0C       		.uleb128 0xc
 5852 14ee 01       		.uleb128 0x1
 5853 14ef 50       		.byte	0x50
 5854 14f0 02       		.uleb128 0x2
 5855 14f1 08       		.byte	0x8
 5856 14f2 2D       		.byte	0x2d
 5857 14f3 0C       		.uleb128 0xc
 5858 14f4 01       		.uleb128 0x1
 5859 14f5 51       		.byte	0x51
 5860 14f6 02       		.uleb128 0x2
 5861 14f7 08       		.byte	0x8
 5862 14f8 B4       		.byte	0xb4
 5863 14f9 00       		.byte	0
 5864 14fa 0D       		.uleb128 0xd
 5865 14fb 5C000000 		.4byte	.LVL257
 5866 14ff B41F0000 		.4byte	0x1fb4
 5867 1503 0D       		.uleb128 0xd
 5868 1504 64000000 		.4byte	.LVL258
 5869 1508 3D200000 		.4byte	0x203d
 5870 150c 0B       		.uleb128 0xb
 5871 150d 6E000000 		.4byte	.LVL260
 5872 1511 49200000 		.4byte	0x2049
 5873 1515 2C150000 		.4byte	0x152c
 5874 1519 0C       		.uleb128 0xc
 5875 151a 01       		.uleb128 0x1
 5876 151b 50       		.byte	0x50
 5877 151c 05       		.uleb128 0x5
 5878 151d 03       		.byte	0x3
 5879 151e 40020000 		.4byte	.LC26
 5880 1522 0C       		.uleb128 0xc
 5881 1523 01       		.uleb128 0x1
 5882 1524 51       		.byte	0x51
 5883 1525 05       		.uleb128 0x5
 5884 1526 03       		.byte	0x3
 5885 1527 28010000 		.4byte	.LC9
 5886 152b 00       		.byte	0
 5887 152c 0B       		.uleb128 0xb
 5888 152d 76000000 		.4byte	.LVL261
 5889 1531 A91F0000 		.4byte	0x1fa9
 5890 1535 44150000 		.4byte	0x1544
 5891 1539 0C       		.uleb128 0xc
 5892 153a 01       		.uleb128 0x1
 5893 153b 50       		.byte	0x50
 5894 153c 01       		.uleb128 0x1
 5895 153d 30       		.byte	0x30
 5896 153e 0C       		.uleb128 0xc
 5897 153f 01       		.uleb128 0x1
 5898 1540 51       		.byte	0x51
 5899 1541 01       		.uleb128 0x1
 5900 1542 30       		.byte	0x30
 5901 1543 00       		.byte	0
 5902 1544 0D       		.uleb128 0xd
 5903 1545 94000000 		.4byte	.LVL262
 5904 1549 A5080000 		.4byte	0x8a5
 5905 154d 0B       		.uleb128 0xb
 5906 154e 9A000000 		.4byte	.LVL263
ARM GAS  C:\Users\EVGENY~1\AppData\Local\Temp\ccpzgcQX.s 			page 126


 5907 1552 A1200000 		.4byte	0x20a1
 5908 1556 61150000 		.4byte	0x1561
 5909 155a 0C       		.uleb128 0xc
 5910 155b 01       		.uleb128 0x1
 5911 155c 50       		.byte	0x50
 5912 155d 02       		.uleb128 0x2
 5913 155e 91       		.byte	0x91
 5914 155f 64       		.sleb128 -28
 5915 1560 00       		.byte	0
 5916 1561 0B       		.uleb128 0xb
 5917 1562 A4000000 		.4byte	.LVL264
 5918 1566 A91F0000 		.4byte	0x1fa9
 5919 156a 79150000 		.4byte	0x1579
 5920 156e 0C       		.uleb128 0xc
 5921 156f 01       		.uleb128 0x1
 5922 1570 50       		.byte	0x50
 5923 1571 01       		.uleb128 0x1
 5924 1572 30       		.byte	0x30
 5925 1573 0C       		.uleb128 0xc
 5926 1574 01       		.uleb128 0x1
 5927 1575 51       		.byte	0x51
 5928 1576 01       		.uleb128 0x1
 5929 1577 30       		.byte	0x30
 5930 1578 00       		.byte	0
 5931 1579 0D       		.uleb128 0xd
 5932 157a C2000000 		.4byte	.LVL265
 5933 157e A5080000 		.4byte	0x8a5
 5934 1582 0B       		.uleb128 0xb
 5935 1583 C8000000 		.4byte	.LVL266
 5936 1587 A1200000 		.4byte	0x20a1
 5937 158b 96150000 		.4byte	0x1596
 5938 158f 0C       		.uleb128 0xc
 5939 1590 01       		.uleb128 0x1
 5940 1591 50       		.byte	0x50
 5941 1592 02       		.uleb128 0x2
 5942 1593 91       		.byte	0x91
 5943 1594 64       		.sleb128 -28
 5944 1595 00       		.byte	0
 5945 1596 0D       		.uleb128 0xd
 5946 1597 D2000000 		.4byte	.LVL267
 5947 159b 870C0000 		.4byte	0xc87
 5948 159f 10       		.uleb128 0x10
 5949 15a0 DE000000 		.4byte	.LVL268
 5950 15a4 A91F0000 		.4byte	0x1fa9
 5951 15a8 0C       		.uleb128 0xc
 5952 15a9 01       		.uleb128 0x1
 5953 15aa 50       		.byte	0x50
 5954 15ab 02       		.uleb128 0x2
 5955 15ac 09       		.byte	0x9
 5956 15ad FA       		.byte	0xfa
 5957 15ae 0C       		.uleb128 0xc
 5958 15af 01       		.uleb128 0x1
 5959 15b0 51       		.byte	0x51
 5960 15b1 01       		.uleb128 0x1
 5961 15b2 30       		.byte	0x30
 5962 15b3 00       		.byte	0
 5963 15b4 00       		.byte	0
ARM GAS  C:\Users\EVGENY~1\AppData\Local\Temp\ccpzgcQX.s 			page 127


 5964 15b5 0B       		.uleb128 0xb
 5965 15b6 12000000 		.4byte	.LVL242
 5966 15ba 3C0A0000 		.4byte	0xa3c
 5967 15be DD150000 		.4byte	0x15dd
 5968 15c2 0C       		.uleb128 0xc
 5969 15c3 01       		.uleb128 0x1
 5970 15c4 50       		.byte	0x50
 5971 15c5 01       		.uleb128 0x1
 5972 15c6 31       		.byte	0x31
 5973 15c7 0C       		.uleb128 0xc
 5974 15c8 01       		.uleb128 0x1
 5975 15c9 51       		.byte	0x51
 5976 15ca 01       		.uleb128 0x1
 5977 15cb 31       		.byte	0x31
 5978 15cc 0C       		.uleb128 0xc
 5979 15cd 01       		.uleb128 0x1
 5980 15ce 52       		.byte	0x52
 5981 15cf 01       		.uleb128 0x1
 5982 15d0 31       		.byte	0x31
 5983 15d1 0C       		.uleb128 0xc
 5984 15d2 01       		.uleb128 0x1
 5985 15d3 53       		.byte	0x53
 5986 15d4 01       		.uleb128 0x1
 5987 15d5 30       		.byte	0x30
 5988 15d6 0C       		.uleb128 0xc
 5989 15d7 02       		.uleb128 0x2
 5990 15d8 7D       		.byte	0x7d
 5991 15d9 00       		.sleb128 0
 5992 15da 01       		.uleb128 0x1
 5993 15db 31       		.byte	0x31
 5994 15dc 00       		.byte	0
 5995 15dd 0D       		.uleb128 0xd
 5996 15de 16000000 		.4byte	.LVL243
 5997 15e2 18200000 		.4byte	0x2018
 5998 15e6 0B       		.uleb128 0xb
 5999 15e7 1C000000 		.4byte	.LVL244
 6000 15eb A1200000 		.4byte	0x20a1
 6001 15ef FA150000 		.4byte	0x15fa
 6002 15f3 0C       		.uleb128 0xc
 6003 15f4 01       		.uleb128 0x1
 6004 15f5 50       		.byte	0x50
 6005 15f6 02       		.uleb128 0x2
 6006 15f7 91       		.byte	0x91
 6007 15f8 64       		.sleb128 -28
 6008 15f9 00       		.byte	0
 6009 15fa 0B       		.uleb128 0xb
 6010 15fb 24000000 		.4byte	.LVL245
 6011 15ff BF0C0000 		.4byte	0xcbf
 6012 1603 13160000 		.4byte	0x1613
 6013 1607 0C       		.uleb128 0xc
 6014 1608 01       		.uleb128 0x1
 6015 1609 50       		.byte	0x50
 6016 160a 02       		.uleb128 0x2
 6017 160b 09       		.byte	0x9
 6018 160c FF       		.byte	0xff
 6019 160d 0C       		.uleb128 0xc
 6020 160e 01       		.uleb128 0x1
ARM GAS  C:\Users\EVGENY~1\AppData\Local\Temp\ccpzgcQX.s 			page 128


 6021 160f 51       		.byte	0x51
 6022 1610 01       		.uleb128 0x1
 6023 1611 30       		.byte	0x30
 6024 1612 00       		.byte	0
 6025 1613 0B       		.uleb128 0xb
 6026 1614 2C000000 		.4byte	.LVL246
 6027 1618 49200000 		.4byte	0x2049
 6028 161c 33160000 		.4byte	0x1633
 6029 1620 0C       		.uleb128 0xc
 6030 1621 01       		.uleb128 0x1
 6031 1622 50       		.byte	0x50
 6032 1623 05       		.uleb128 0x5
 6033 1624 03       		.byte	0x3
 6034 1625 14020000 		.4byte	.LC22
 6035 1629 0C       		.uleb128 0xc
 6036 162a 01       		.uleb128 0x1
 6037 162b 51       		.byte	0x51
 6038 162c 05       		.uleb128 0x5
 6039 162d 03       		.byte	0x3
 6040 162e 0C020000 		.4byte	.LC21
 6041 1632 00       		.byte	0
 6042 1633 0D       		.uleb128 0xd
 6043 1634 30000000 		.4byte	.LVL247
 6044 1638 80200000 		.4byte	0x2080
 6045 163c 0D       		.uleb128 0xd
 6046 163d 34000000 		.4byte	.LVL248
 6047 1641 18200000 		.4byte	0x2018
 6048 1645 0B       		.uleb128 0xb
 6049 1646 3C000000 		.4byte	.LVL249
 6050 164a A91F0000 		.4byte	0x1fa9
 6051 164e 5F160000 		.4byte	0x165f
 6052 1652 0C       		.uleb128 0xc
 6053 1653 01       		.uleb128 0x1
 6054 1654 50       		.byte	0x50
 6055 1655 02       		.uleb128 0x2
 6056 1656 08       		.byte	0x8
 6057 1657 64       		.byte	0x64
 6058 1658 0C       		.uleb128 0xc
 6059 1659 01       		.uleb128 0x1
 6060 165a 51       		.byte	0x51
 6061 165b 02       		.uleb128 0x2
 6062 165c 08       		.byte	0x8
 6063 165d 64       		.byte	0x64
 6064 165e 00       		.byte	0
 6065 165f 0D       		.uleb128 0xd
 6066 1660 40000000 		.4byte	.LVL250
 6067 1664 3D200000 		.4byte	0x203d
 6068 1668 0B       		.uleb128 0xb
 6069 1669 4C000000 		.4byte	.LVL253
 6070 166d 49200000 		.4byte	0x2049
 6071 1671 8E160000 		.4byte	0x168e
 6072 1675 0C       		.uleb128 0xc
 6073 1676 01       		.uleb128 0x1
 6074 1677 50       		.byte	0x50
 6075 1678 05       		.uleb128 0x5
 6076 1679 03       		.byte	0x3
 6077 167a 30020000 		.4byte	.LC25
ARM GAS  C:\Users\EVGENY~1\AppData\Local\Temp\ccpzgcQX.s 			page 129


 6078 167e 0C       		.uleb128 0xc
 6079 167f 01       		.uleb128 0x1
 6080 1680 51       		.byte	0x51
 6081 1681 05       		.uleb128 0x5
 6082 1682 03       		.byte	0x3
 6083 1683 28010000 		.4byte	.LC9
 6084 1687 0C       		.uleb128 0xc
 6085 1688 01       		.uleb128 0x1
 6086 1689 52       		.byte	0x52
 6087 168a 02       		.uleb128 0x2
 6088 168b 75       		.byte	0x75
 6089 168c 00       		.sleb128 0
 6090 168d 00       		.byte	0
 6091 168e 0D       		.uleb128 0xd
 6092 168f E2000000 		.4byte	.LVL269
 6093 1693 EC1F0000 		.4byte	0x1fec
 6094 1697 0D       		.uleb128 0xd
 6095 1698 EA000000 		.4byte	.LVL270
 6096 169c 3D200000 		.4byte	0x203d
 6097 16a0 10       		.uleb128 0x10
 6098 16a1 F2000000 		.4byte	.LVL272
 6099 16a5 71090000 		.4byte	0x971
 6100 16a9 0C       		.uleb128 0xc
 6101 16aa 01       		.uleb128 0x1
 6102 16ab 50       		.byte	0x50
 6103 16ac 02       		.uleb128 0x2
 6104 16ad 75       		.byte	0x75
 6105 16ae 00       		.sleb128 0
 6106 16af 00       		.byte	0
 6107 16b0 00       		.byte	0
 6108 16b1 17       		.uleb128 0x17
 6109 16b2 FE040000 		.4byte	.LASF75
 6110 16b6 01       		.byte	0x1
 6111 16b7 4B02     		.2byte	0x24b
 6112 16b9 00000000 		.4byte	.LFB98
 6113 16bd EC000000 		.4byte	.LFE98-.LFB98
 6114 16c1 01       		.uleb128 0x1
 6115 16c2 9C       		.byte	0x9c
 6116 16c3 3C180000 		.4byte	0x183c
 6117 16c7 15       		.uleb128 0x15
 6118 16c8 EC040000 		.4byte	.LASF35
 6119 16cc 01       		.byte	0x1
 6120 16cd 4B02     		.2byte	0x24b
 6121 16cf C3000000 		.4byte	0xc3
 6122 16d3 77060000 		.4byte	.LLST44
 6123 16d7 15       		.uleb128 0x15
 6124 16d8 99030000 		.4byte	.LASF31
 6125 16dc 01       		.byte	0x1
 6126 16dd 4B02     		.2byte	0x24b
 6127 16df CF000000 		.4byte	0xcf
 6128 16e3 98060000 		.4byte	.LLST45
 6129 16e7 1B       		.uleb128 0x1b
 6130 16e8 64696700 		.ascii	"dig\000"
 6131 16ec 01       		.byte	0x1
 6132 16ed 4E02     		.2byte	0x24e
 6133 16ef 0A010000 		.4byte	0x10a
 6134 16f3 02       		.uleb128 0x2
ARM GAS  C:\Users\EVGENY~1\AppData\Local\Temp\ccpzgcQX.s 			page 130


 6135 16f4 91       		.byte	0x91
 6136 16f5 64       		.sleb128 -28
 6137 16f6 0B       		.uleb128 0xb
 6138 16f7 0E000000 		.4byte	.LVL276
 6139 16fb A1200000 		.4byte	0x20a1
 6140 16ff 0A170000 		.4byte	0x170a
 6141 1703 0C       		.uleb128 0xc
 6142 1704 01       		.uleb128 0x1
 6143 1705 50       		.byte	0x50
 6144 1706 02       		.uleb128 0x2
 6145 1707 91       		.byte	0x91
 6146 1708 64       		.sleb128 -28
 6147 1709 00       		.byte	0
 6148 170a 0B       		.uleb128 0xb
 6149 170b 18000000 		.4byte	.LVL277
 6150 170f 09050000 		.4byte	0x509
 6151 1713 24170000 		.4byte	0x1724
 6152 1717 0C       		.uleb128 0xc
 6153 1718 01       		.uleb128 0x1
 6154 1719 50       		.byte	0x50
 6155 171a 02       		.uleb128 0x2
 6156 171b 74       		.byte	0x74
 6157 171c 00       		.sleb128 0
 6158 171d 0C       		.uleb128 0xc
 6159 171e 01       		.uleb128 0x1
 6160 171f 51       		.byte	0x51
 6161 1720 02       		.uleb128 0x2
 6162 1721 75       		.byte	0x75
 6163 1722 00       		.sleb128 0
 6164 1723 00       		.byte	0
 6165 1724 0B       		.uleb128 0xb
 6166 1725 1E000000 		.4byte	.LVL278
 6167 1729 A1200000 		.4byte	0x20a1
 6168 172d 38170000 		.4byte	0x1738
 6169 1731 0C       		.uleb128 0xc
 6170 1732 01       		.uleb128 0x1
 6171 1733 50       		.byte	0x50
 6172 1734 02       		.uleb128 0x2
 6173 1735 91       		.byte	0x91
 6174 1736 64       		.sleb128 -28
 6175 1737 00       		.byte	0
 6176 1738 0B       		.uleb128 0xb
 6177 1739 36000000 		.4byte	.LVL279
 6178 173d B6040000 		.4byte	0x4b6
 6179 1741 52170000 		.4byte	0x1752
 6180 1745 0C       		.uleb128 0xc
 6181 1746 01       		.uleb128 0x1
 6182 1747 50       		.byte	0x50
 6183 1748 02       		.uleb128 0x2
 6184 1749 74       		.byte	0x74
 6185 174a 00       		.sleb128 0
 6186 174b 0C       		.uleb128 0xc
 6187 174c 01       		.uleb128 0x1
 6188 174d 51       		.byte	0x51
 6189 174e 02       		.uleb128 0x2
 6190 174f 75       		.byte	0x75
 6191 1750 00       		.sleb128 0
ARM GAS  C:\Users\EVGENY~1\AppData\Local\Temp\ccpzgcQX.s 			page 131


 6192 1751 00       		.byte	0
 6193 1752 0B       		.uleb128 0xb
 6194 1753 3C000000 		.4byte	.LVL280
 6195 1757 A1200000 		.4byte	0x20a1
 6196 175b 66170000 		.4byte	0x1766
 6197 175f 0C       		.uleb128 0xc
 6198 1760 01       		.uleb128 0x1
 6199 1761 50       		.byte	0x50
 6200 1762 02       		.uleb128 0x2
 6201 1763 91       		.byte	0x91
 6202 1764 64       		.sleb128 -28
 6203 1765 00       		.byte	0
 6204 1766 0B       		.uleb128 0xb
 6205 1767 54000000 		.4byte	.LVL281
 6206 176b A91F0000 		.4byte	0x1fa9
 6207 176f 80170000 		.4byte	0x1780
 6208 1773 0C       		.uleb128 0xc
 6209 1774 01       		.uleb128 0x1
 6210 1775 50       		.byte	0x50
 6211 1776 02       		.uleb128 0x2
 6212 1777 74       		.byte	0x74
 6213 1778 00       		.sleb128 0
 6214 1779 0C       		.uleb128 0xc
 6215 177a 01       		.uleb128 0x1
 6216 177b 51       		.byte	0x51
 6217 177c 02       		.uleb128 0x2
 6218 177d 75       		.byte	0x75
 6219 177e 00       		.sleb128 0
 6220 177f 00       		.byte	0
 6221 1780 0B       		.uleb128 0xb
 6222 1781 5A000000 		.4byte	.LVL282
 6223 1785 A1200000 		.4byte	0x20a1
 6224 1789 94170000 		.4byte	0x1794
 6225 178d 0C       		.uleb128 0xc
 6226 178e 01       		.uleb128 0x1
 6227 178f 50       		.byte	0x50
 6228 1790 02       		.uleb128 0x2
 6229 1791 91       		.byte	0x91
 6230 1792 64       		.sleb128 -28
 6231 1793 00       		.byte	0
 6232 1794 0D       		.uleb128 0xd
 6233 1795 64000000 		.4byte	.LVL283
 6234 1799 870C0000 		.4byte	0xc87
 6235 179d 0B       		.uleb128 0xb
 6236 179e 82000000 		.4byte	.LVL284
 6237 17a2 B6040000 		.4byte	0x4b6
 6238 17a6 B7170000 		.4byte	0x17b7
 6239 17aa 0C       		.uleb128 0xc
 6240 17ab 01       		.uleb128 0x1
 6241 17ac 50       		.byte	0x50
 6242 17ad 02       		.uleb128 0x2
 6243 17ae 74       		.byte	0x74
 6244 17af 00       		.sleb128 0
 6245 17b0 0C       		.uleb128 0xc
 6246 17b1 01       		.uleb128 0x1
 6247 17b2 51       		.byte	0x51
 6248 17b3 02       		.uleb128 0x2
ARM GAS  C:\Users\EVGENY~1\AppData\Local\Temp\ccpzgcQX.s 			page 132


 6249 17b4 75       		.byte	0x75
 6250 17b5 00       		.sleb128 0
 6251 17b6 00       		.byte	0
 6252 17b7 0B       		.uleb128 0xb
 6253 17b8 88000000 		.4byte	.LVL285
 6254 17bc A1200000 		.4byte	0x20a1
 6255 17c0 CB170000 		.4byte	0x17cb
 6256 17c4 0C       		.uleb128 0xc
 6257 17c5 01       		.uleb128 0x1
 6258 17c6 50       		.byte	0x50
 6259 17c7 02       		.uleb128 0x2
 6260 17c8 91       		.byte	0x91
 6261 17c9 64       		.sleb128 -28
 6262 17ca 00       		.byte	0
 6263 17cb 0B       		.uleb128 0xb
 6264 17cc B0000000 		.4byte	.LVL286
 6265 17d0 09050000 		.4byte	0x509
 6266 17d4 E5170000 		.4byte	0x17e5
 6267 17d8 0C       		.uleb128 0xc
 6268 17d9 01       		.uleb128 0x1
 6269 17da 50       		.byte	0x50
 6270 17db 02       		.uleb128 0x2
 6271 17dc 74       		.byte	0x74
 6272 17dd 00       		.sleb128 0
 6273 17de 0C       		.uleb128 0xc
 6274 17df 01       		.uleb128 0x1
 6275 17e0 51       		.byte	0x51
 6276 17e1 02       		.uleb128 0x2
 6277 17e2 75       		.byte	0x75
 6278 17e3 00       		.sleb128 0
 6279 17e4 00       		.byte	0
 6280 17e5 0B       		.uleb128 0xb
 6281 17e6 B6000000 		.4byte	.LVL287
 6282 17ea A1200000 		.4byte	0x20a1
 6283 17ee F9170000 		.4byte	0x17f9
 6284 17f2 0C       		.uleb128 0xc
 6285 17f3 01       		.uleb128 0x1
 6286 17f4 50       		.byte	0x50
 6287 17f5 02       		.uleb128 0x2
 6288 17f6 91       		.byte	0x91
 6289 17f7 64       		.sleb128 -28
 6290 17f8 00       		.byte	0
 6291 17f9 0B       		.uleb128 0xb
 6292 17fa CC000000 		.4byte	.LVL288
 6293 17fe A91F0000 		.4byte	0x1fa9
 6294 1802 13180000 		.4byte	0x1813
 6295 1806 0C       		.uleb128 0xc
 6296 1807 01       		.uleb128 0x1
 6297 1808 50       		.byte	0x50
 6298 1809 02       		.uleb128 0x2
 6299 180a 74       		.byte	0x74
 6300 180b 00       		.sleb128 0
 6301 180c 0C       		.uleb128 0xc
 6302 180d 01       		.uleb128 0x1
 6303 180e 51       		.byte	0x51
 6304 180f 02       		.uleb128 0x2
 6305 1810 75       		.byte	0x75
ARM GAS  C:\Users\EVGENY~1\AppData\Local\Temp\ccpzgcQX.s 			page 133


 6306 1811 00       		.sleb128 0
 6307 1812 00       		.byte	0
 6308 1813 0B       		.uleb128 0xb
 6309 1814 D2000000 		.4byte	.LVL289
 6310 1818 A1200000 		.4byte	0x20a1
 6311 181c 27180000 		.4byte	0x1827
 6312 1820 0C       		.uleb128 0xc
 6313 1821 01       		.uleb128 0x1
 6314 1822 50       		.byte	0x50
 6315 1823 02       		.uleb128 0x2
 6316 1824 91       		.byte	0x91
 6317 1825 64       		.sleb128 -28
 6318 1826 00       		.byte	0
 6319 1827 10       		.uleb128 0x10
 6320 1828 E8000000 		.4byte	.LVL290
 6321 182c A91F0000 		.4byte	0x1fa9
 6322 1830 0C       		.uleb128 0xc
 6323 1831 01       		.uleb128 0x1
 6324 1832 50       		.byte	0x50
 6325 1833 01       		.uleb128 0x1
 6326 1834 30       		.byte	0x30
 6327 1835 0C       		.uleb128 0xc
 6328 1836 01       		.uleb128 0x1
 6329 1837 51       		.byte	0x51
 6330 1838 01       		.uleb128 0x1
 6331 1839 30       		.byte	0x30
 6332 183a 00       		.byte	0
 6333 183b 00       		.byte	0
 6334 183c 17       		.uleb128 0x17
 6335 183d 13010000 		.4byte	.LASF76
 6336 1841 01       		.byte	0x1
 6337 1842 7A01     		.2byte	0x17a
 6338 1844 00000000 		.4byte	.LFB96
 6339 1848 14030000 		.4byte	.LFE96-.LFB96
 6340 184c 01       		.uleb128 0x1
 6341 184d 9C       		.byte	0x9c
 6342 184e 981F0000 		.4byte	0x1f98
 6343 1852 1B       		.uleb128 0x1b
 6344 1853 64696700 		.ascii	"dig\000"
 6345 1857 01       		.byte	0x1
 6346 1858 7B01     		.2byte	0x17b
 6347 185a 0A010000 		.4byte	0x10a
 6348 185e 02       		.uleb128 0x2
 6349 185f 91       		.byte	0x91
 6350 1860 5C       		.sleb128 -36
 6351 1861 18       		.uleb128 0x18
 6352 1862 49020000 		.4byte	.LASF70
 6353 1866 01       		.byte	0x1
 6354 1867 7D01     		.2byte	0x17d
 6355 1869 B8000000 		.4byte	0xb8
 6356 186d B6060000 		.4byte	.LLST46
 6357 1871 18       		.uleb128 0x18
 6358 1872 35020000 		.4byte	.LASF71
 6359 1876 01       		.byte	0x1
 6360 1877 7D01     		.2byte	0x17d
 6361 1879 B8000000 		.4byte	0xb8
 6362 187d EB060000 		.4byte	.LLST47
ARM GAS  C:\Users\EVGENY~1\AppData\Local\Temp\ccpzgcQX.s 			page 134


 6363 1881 1C       		.uleb128 0x1c
 6364 1882 DC040000 		.4byte	.LASF77
 6365 1886 01       		.byte	0x1
 6366 1887 7E01     		.2byte	0x17e
 6367 1889 90000000 		.4byte	0x90
 6368 188d 03       		.byte	0x3
 6369 188e 1C       		.uleb128 0x1c
 6370 188f E1040000 		.4byte	.LASF78
 6371 1893 01       		.byte	0x1
 6372 1894 7F01     		.2byte	0x17f
 6373 1896 90000000 		.4byte	0x90
 6374 189a 0B       		.byte	0xb
 6375 189b 1B       		.uleb128 0x1b
 6376 189c 5900     		.ascii	"Y\000"
 6377 189e 01       		.byte	0x1
 6378 189f 8001     		.2byte	0x180
 6379 18a1 90000000 		.4byte	0x90
 6380 18a5 02       		.uleb128 0x2
 6381 18a6 91       		.byte	0x91
 6382 18a7 58       		.sleb128 -40
 6383 18a8 16       		.uleb128 0x16
 6384 18a9 5800     		.ascii	"X\000"
 6385 18ab 01       		.byte	0x1
 6386 18ac 8101     		.2byte	0x181
 6387 18ae 90000000 		.4byte	0x90
 6388 18b2 15070000 		.4byte	.LLST48
 6389 18b6 1E       		.uleb128 0x1e
 6390 18b7 17050000 		.4byte	.LASF79
 6391 18bb 01       		.byte	0x1
 6392 18bc 8201     		.2byte	0x182
 6393 18be 90000000 		.4byte	0x90
 6394 18c2 A67F     		.sleb128 -90
 6395 18c4 1C       		.uleb128 0x1c
 6396 18c5 C1000000 		.4byte	.LASF80
 6397 18c9 01       		.byte	0x1
 6398 18ca 8301     		.2byte	0x183
 6399 18cc 90000000 		.4byte	0x90
 6400 18d0 5A       		.byte	0x5a
 6401 18d1 18       		.uleb128 0x18
 6402 18d2 0B030000 		.4byte	.LASF81
 6403 18d6 01       		.byte	0x1
 6404 18d7 8401     		.2byte	0x184
 6405 18d9 AF040000 		.4byte	0x4af
 6406 18dd 34070000 		.4byte	.LLST49
 6407 18e1 18       		.uleb128 0x18
 6408 18e2 11030000 		.4byte	.LASF82
 6409 18e6 01       		.byte	0x1
 6410 18e7 8401     		.2byte	0x184
 6411 18e9 AF040000 		.4byte	0x4af
 6412 18ed DF070000 		.4byte	.LLST50
 6413 18f1 18       		.uleb128 0x18
 6414 18f2 28050000 		.4byte	.LASF83
 6415 18f6 01       		.byte	0x1
 6416 18f7 8401     		.2byte	0x184
 6417 18f9 AF040000 		.4byte	0x4af
 6418 18fd 72080000 		.4byte	.LLST51
 6419 1901 0B       		.uleb128 0xb
ARM GAS  C:\Users\EVGENY~1\AppData\Local\Temp\ccpzgcQX.s 			page 135


 6420 1902 1C000000 		.4byte	.LVL293
 6421 1906 3C0A0000 		.4byte	0xa3c
 6422 190a 2D190000 		.4byte	0x192d
 6423 190e 0C       		.uleb128 0xc
 6424 190f 01       		.uleb128 0x1
 6425 1910 50       		.byte	0x50
 6426 1911 02       		.uleb128 0x2
 6427 1912 74       		.byte	0x74
 6428 1913 00       		.sleb128 0
 6429 1914 0C       		.uleb128 0xc
 6430 1915 01       		.uleb128 0x1
 6431 1916 51       		.byte	0x51
 6432 1917 02       		.uleb128 0x2
 6433 1918 74       		.byte	0x74
 6434 1919 00       		.sleb128 0
 6435 191a 0C       		.uleb128 0xc
 6436 191b 01       		.uleb128 0x1
 6437 191c 52       		.byte	0x52
 6438 191d 02       		.uleb128 0x2
 6439 191e 74       		.byte	0x74
 6440 191f 00       		.sleb128 0
 6441 1920 0C       		.uleb128 0xc
 6442 1921 01       		.uleb128 0x1
 6443 1922 53       		.byte	0x53
 6444 1923 01       		.uleb128 0x1
 6445 1924 30       		.byte	0x30
 6446 1925 0C       		.uleb128 0xc
 6447 1926 02       		.uleb128 0x2
 6448 1927 7D       		.byte	0x7d
 6449 1928 00       		.sleb128 0
 6450 1929 02       		.uleb128 0x2
 6451 192a 74       		.byte	0x74
 6452 192b 00       		.sleb128 0
 6453 192c 00       		.byte	0
 6454 192d 0D       		.uleb128 0xd
 6455 192e 20000000 		.4byte	.LVL294
 6456 1932 18200000 		.4byte	0x2018
 6457 1936 0B       		.uleb128 0xb
 6458 1937 28000000 		.4byte	.LVL295
 6459 193b BF0C0000 		.4byte	0xcbf
 6460 193f 4F190000 		.4byte	0x194f
 6461 1943 0C       		.uleb128 0xc
 6462 1944 01       		.uleb128 0x1
 6463 1945 50       		.byte	0x50
 6464 1946 02       		.uleb128 0x2
 6465 1947 09       		.byte	0x9
 6466 1948 C8       		.byte	0xc8
 6467 1949 0C       		.uleb128 0xc
 6468 194a 01       		.uleb128 0x1
 6469 194b 51       		.byte	0x51
 6470 194c 01       		.uleb128 0x1
 6471 194d 30       		.byte	0x30
 6472 194e 00       		.byte	0
 6473 194f 0B       		.uleb128 0xb
 6474 1950 30000000 		.4byte	.LVL296
 6475 1954 49200000 		.4byte	0x2049
 6476 1958 6F190000 		.4byte	0x196f
ARM GAS  C:\Users\EVGENY~1\AppData\Local\Temp\ccpzgcQX.s 			page 136


 6477 195c 0C       		.uleb128 0xc
 6478 195d 01       		.uleb128 0x1
 6479 195e 50       		.byte	0x50
 6480 195f 05       		.uleb128 0x5
 6481 1960 03       		.byte	0x3
 6482 1961 14020000 		.4byte	.LC22
 6483 1965 0C       		.uleb128 0xc
 6484 1966 01       		.uleb128 0x1
 6485 1967 51       		.byte	0x51
 6486 1968 05       		.uleb128 0x5
 6487 1969 03       		.byte	0x3
 6488 196a 54020000 		.4byte	.LC27
 6489 196e 00       		.byte	0
 6490 196f 0D       		.uleb128 0xd
 6491 1970 34000000 		.4byte	.LVL297
 6492 1974 18200000 		.4byte	0x2018
 6493 1978 0D       		.uleb128 0xd
 6494 1979 38000000 		.4byte	.LVL298
 6495 197d 3D200000 		.4byte	0x203d
 6496 1981 0B       		.uleb128 0xb
 6497 1982 44000000 		.4byte	.LVL301
 6498 1986 49200000 		.4byte	0x2049
 6499 198a A7190000 		.4byte	0x19a7
 6500 198e 0C       		.uleb128 0xc
 6501 198f 01       		.uleb128 0x1
 6502 1990 50       		.byte	0x50
 6503 1991 05       		.uleb128 0x5
 6504 1992 03       		.byte	0x3
 6505 1993 30020000 		.4byte	.LC25
 6506 1997 0C       		.uleb128 0xc
 6507 1998 01       		.uleb128 0x1
 6508 1999 51       		.byte	0x51
 6509 199a 05       		.uleb128 0x5
 6510 199b 03       		.byte	0x3
 6511 199c 28010000 		.4byte	.LC9
 6512 19a0 0C       		.uleb128 0xc
 6513 19a1 01       		.uleb128 0x1
 6514 19a2 52       		.byte	0x52
 6515 19a3 02       		.uleb128 0x2
 6516 19a4 78       		.byte	0x78
 6517 19a5 00       		.sleb128 0
 6518 19a6 00       		.byte	0
 6519 19a7 0B       		.uleb128 0xb
 6520 19a8 4A000000 		.4byte	.LVL302
 6521 19ac A1200000 		.4byte	0x20a1
 6522 19b0 BB190000 		.4byte	0x19bb
 6523 19b4 0C       		.uleb128 0xc
 6524 19b5 01       		.uleb128 0x1
 6525 19b6 50       		.byte	0x50
 6526 19b7 02       		.uleb128 0x2
 6527 19b8 91       		.byte	0x91
 6528 19b9 5C       		.sleb128 -36
 6529 19ba 00       		.byte	0
 6530 19bb 0B       		.uleb128 0xb
 6531 19bc 58000000 		.4byte	.LVL304
 6532 19c0 A1200000 		.4byte	0x20a1
 6533 19c4 CF190000 		.4byte	0x19cf
ARM GAS  C:\Users\EVGENY~1\AppData\Local\Temp\ccpzgcQX.s 			page 137


 6534 19c8 0C       		.uleb128 0xc
 6535 19c9 01       		.uleb128 0x1
 6536 19ca 50       		.byte	0x50
 6537 19cb 02       		.uleb128 0x2
 6538 19cc 91       		.byte	0x91
 6539 19cd 5C       		.sleb128 -36
 6540 19ce 00       		.byte	0
 6541 19cf 0B       		.uleb128 0xb
 6542 19d0 60000000 		.4byte	.LVL305
 6543 19d4 B1160000 		.4byte	0x16b1
 6544 19d8 E8190000 		.4byte	0x19e8
 6545 19dc 0C       		.uleb128 0xc
 6546 19dd 01       		.uleb128 0x1
 6547 19de 50       		.byte	0x50
 6548 19df 02       		.uleb128 0x2
 6549 19e0 09       		.byte	0x9
 6550 19e1 96       		.byte	0x96
 6551 19e2 0C       		.uleb128 0xc
 6552 19e3 01       		.uleb128 0x1
 6553 19e4 51       		.byte	0x51
 6554 19e5 01       		.uleb128 0x1
 6555 19e6 30       		.byte	0x30
 6556 19e7 00       		.byte	0
 6557 19e8 0B       		.uleb128 0xb
 6558 19e9 70000000 		.4byte	.LVL306
 6559 19ed 49200000 		.4byte	0x2049
 6560 19f1 0E1A0000 		.4byte	0x1a0e
 6561 19f5 0C       		.uleb128 0xc
 6562 19f6 01       		.uleb128 0x1
 6563 19f7 50       		.byte	0x50
 6564 19f8 05       		.uleb128 0x5
 6565 19f9 03       		.byte	0x3
 6566 19fa 64020000 		.4byte	.LC29
 6567 19fe 0C       		.uleb128 0xc
 6568 19ff 01       		.uleb128 0x1
 6569 1a00 51       		.byte	0x51
 6570 1a01 05       		.uleb128 0x5
 6571 1a02 03       		.byte	0x3
 6572 1a03 5C020000 		.4byte	.LC28
 6573 1a07 0C       		.uleb128 0xc
 6574 1a08 01       		.uleb128 0x1
 6575 1a09 52       		.byte	0x52
 6576 1a0a 02       		.uleb128 0x2
 6577 1a0b 75       		.byte	0x75
 6578 1a0c 00       		.sleb128 0
 6579 1a0d 00       		.byte	0
 6580 1a0e 0B       		.uleb128 0xb
 6581 1a0f 76000000 		.4byte	.LVL307
 6582 1a13 CA1F0000 		.4byte	0x1fca
 6583 1a17 221A0000 		.4byte	0x1a22
 6584 1a1b 0C       		.uleb128 0xc
 6585 1a1c 01       		.uleb128 0x1
 6586 1a1d 50       		.byte	0x50
 6587 1a1e 02       		.uleb128 0x2
 6588 1a1f 08       		.byte	0x8
 6589 1a20 64       		.byte	0x64
 6590 1a21 00       		.byte	0
ARM GAS  C:\Users\EVGENY~1\AppData\Local\Temp\ccpzgcQX.s 			page 138


 6591 1a22 0B       		.uleb128 0xb
 6592 1a23 7E000000 		.4byte	.LVL308
 6593 1a27 1C040000 		.4byte	0x41c
 6594 1a2b 361A0000 		.4byte	0x1a36
 6595 1a2f 0C       		.uleb128 0xc
 6596 1a30 01       		.uleb128 0x1
 6597 1a31 50       		.byte	0x50
 6598 1a32 02       		.uleb128 0x2
 6599 1a33 91       		.byte	0x91
 6600 1a34 58       		.sleb128 -40
 6601 1a35 00       		.byte	0
 6602 1a36 0D       		.uleb128 0xd
 6603 1a37 88000000 		.4byte	.LVL309
 6604 1a3b B41F0000 		.4byte	0x1fb4
 6605 1a3f 0B       		.uleb128 0xb
 6606 1a40 9A000000 		.4byte	.LVL311
 6607 1a44 A91F0000 		.4byte	0x1fa9
 6608 1a48 591A0000 		.4byte	0x1a59
 6609 1a4c 0C       		.uleb128 0xc
 6610 1a4d 01       		.uleb128 0x1
 6611 1a4e 50       		.byte	0x50
 6612 1a4f 02       		.uleb128 0x2
 6613 1a50 09       		.byte	0x9
 6614 1a51 C8       		.byte	0xc8
 6615 1a52 0C       		.uleb128 0xc
 6616 1a53 01       		.uleb128 0x1
 6617 1a54 51       		.byte	0x51
 6618 1a55 02       		.uleb128 0x2
 6619 1a56 08       		.byte	0x8
 6620 1a57 6E       		.byte	0x6e
 6621 1a58 00       		.byte	0
 6622 1a59 0B       		.uleb128 0xb
 6623 1a5a A2000000 		.4byte	.LVL312
 6624 1a5e A5080000 		.4byte	0x8a5
 6625 1a62 6D1A0000 		.4byte	0x1a6d
 6626 1a66 0C       		.uleb128 0xc
 6627 1a67 01       		.uleb128 0x1
 6628 1a68 50       		.byte	0x50
 6629 1a69 02       		.uleb128 0x2
 6630 1a6a 09       		.byte	0x9
 6631 1a6b A6       		.byte	0xa6
 6632 1a6c 00       		.byte	0
 6633 1a6d 0B       		.uleb128 0xb
 6634 1a6e AA000000 		.4byte	.LVL313
 6635 1a72 A91F0000 		.4byte	0x1fa9
 6636 1a76 851A0000 		.4byte	0x1a85
 6637 1a7a 0C       		.uleb128 0xc
 6638 1a7b 01       		.uleb128 0x1
 6639 1a7c 50       		.byte	0x50
 6640 1a7d 01       		.uleb128 0x1
 6641 1a7e 30       		.byte	0x30
 6642 1a7f 0C       		.uleb128 0xc
 6643 1a80 01       		.uleb128 0x1
 6644 1a81 51       		.byte	0x51
 6645 1a82 01       		.uleb128 0x1
 6646 1a83 30       		.byte	0x30
 6647 1a84 00       		.byte	0
ARM GAS  C:\Users\EVGENY~1\AppData\Local\Temp\ccpzgcQX.s 			page 139


 6648 1a85 0B       		.uleb128 0xb
 6649 1a86 B0000000 		.4byte	.LVL314
 6650 1a8a CA1F0000 		.4byte	0x1fca
 6651 1a8e 991A0000 		.4byte	0x1a99
 6652 1a92 0C       		.uleb128 0xc
 6653 1a93 01       		.uleb128 0x1
 6654 1a94 50       		.byte	0x50
 6655 1a95 02       		.uleb128 0x2
 6656 1a96 08       		.byte	0x8
 6657 1a97 64       		.byte	0x64
 6658 1a98 00       		.byte	0
 6659 1a99 0D       		.uleb128 0xd
 6660 1a9a BA000000 		.4byte	.LVL316
 6661 1a9e B41F0000 		.4byte	0x1fb4
 6662 1aa2 0B       		.uleb128 0xb
 6663 1aa3 CC000000 		.4byte	.LVL318
 6664 1aa7 A91F0000 		.4byte	0x1fa9
 6665 1aab BC1A0000 		.4byte	0x1abc
 6666 1aaf 0C       		.uleb128 0xc
 6667 1ab0 01       		.uleb128 0x1
 6668 1ab1 50       		.byte	0x50
 6669 1ab2 02       		.uleb128 0x2
 6670 1ab3 09       		.byte	0x9
 6671 1ab4 C8       		.byte	0xc8
 6672 1ab5 0C       		.uleb128 0xc
 6673 1ab6 01       		.uleb128 0x1
 6674 1ab7 51       		.byte	0x51
 6675 1ab8 02       		.uleb128 0x2
 6676 1ab9 08       		.byte	0x8
 6677 1aba 6E       		.byte	0x6e
 6678 1abb 00       		.byte	0
 6679 1abc 0B       		.uleb128 0xb
 6680 1abd D2000000 		.4byte	.LVL319
 6681 1ac1 A5080000 		.4byte	0x8a5
 6682 1ac5 D01A0000 		.4byte	0x1ad0
 6683 1ac9 0C       		.uleb128 0xc
 6684 1aca 01       		.uleb128 0x1
 6685 1acb 50       		.byte	0x50
 6686 1acc 02       		.uleb128 0x2
 6687 1acd 08       		.byte	0x8
 6688 1ace 5A       		.byte	0x5a
 6689 1acf 00       		.byte	0
 6690 1ad0 0B       		.uleb128 0xb
 6691 1ad1 DA000000 		.4byte	.LVL320
 6692 1ad5 A91F0000 		.4byte	0x1fa9
 6693 1ad9 E81A0000 		.4byte	0x1ae8
 6694 1add 0C       		.uleb128 0xc
 6695 1ade 01       		.uleb128 0x1
 6696 1adf 50       		.byte	0x50
 6697 1ae0 01       		.uleb128 0x1
 6698 1ae1 30       		.byte	0x30
 6699 1ae2 0C       		.uleb128 0xc
 6700 1ae3 01       		.uleb128 0x1
 6701 1ae4 51       		.byte	0x51
 6702 1ae5 01       		.uleb128 0x1
 6703 1ae6 30       		.byte	0x30
 6704 1ae7 00       		.byte	0
ARM GAS  C:\Users\EVGENY~1\AppData\Local\Temp\ccpzgcQX.s 			page 140


 6705 1ae8 0B       		.uleb128 0xb
 6706 1ae9 E0000000 		.4byte	.LVL321
 6707 1aed CA1F0000 		.4byte	0x1fca
 6708 1af1 FC1A0000 		.4byte	0x1afc
 6709 1af5 0C       		.uleb128 0xc
 6710 1af6 01       		.uleb128 0x1
 6711 1af7 50       		.byte	0x50
 6712 1af8 02       		.uleb128 0x2
 6713 1af9 08       		.byte	0x8
 6714 1afa 64       		.byte	0x64
 6715 1afb 00       		.byte	0
 6716 1afc 0B       		.uleb128 0xb
 6717 1afd EE000000 		.4byte	.LVL323
 6718 1b01 1C040000 		.4byte	0x41c
 6719 1b05 101B0000 		.4byte	0x1b10
 6720 1b09 0C       		.uleb128 0xc
 6721 1b0a 01       		.uleb128 0x1
 6722 1b0b 50       		.byte	0x50
 6723 1b0c 02       		.uleb128 0x2
 6724 1b0d 91       		.byte	0x91
 6725 1b0e 58       		.sleb128 -40
 6726 1b0f 00       		.byte	0
 6727 1b10 0B       		.uleb128 0xb
 6728 1b11 FE000000 		.4byte	.LVL325
 6729 1b15 A1200000 		.4byte	0x20a1
 6730 1b19 241B0000 		.4byte	0x1b24
 6731 1b1d 0C       		.uleb128 0xc
 6732 1b1e 01       		.uleb128 0x1
 6733 1b1f 50       		.byte	0x50
 6734 1b20 02       		.uleb128 0x2
 6735 1b21 91       		.byte	0x91
 6736 1b22 5C       		.sleb128 -36
 6737 1b23 00       		.byte	0
 6738 1b24 0B       		.uleb128 0xb
 6739 1b25 06010000 		.4byte	.LVL326
 6740 1b29 B1160000 		.4byte	0x16b1
 6741 1b2d 3D1B0000 		.4byte	0x1b3d
 6742 1b31 0C       		.uleb128 0xc
 6743 1b32 01       		.uleb128 0x1
 6744 1b33 50       		.byte	0x50
 6745 1b34 02       		.uleb128 0x2
 6746 1b35 09       		.byte	0x9
 6747 1b36 96       		.byte	0x96
 6748 1b37 0C       		.uleb128 0xc
 6749 1b38 01       		.uleb128 0x1
 6750 1b39 51       		.byte	0x51
 6751 1b3a 01       		.uleb128 0x1
 6752 1b3b 30       		.byte	0x30
 6753 1b3c 00       		.byte	0
 6754 1b3d 0B       		.uleb128 0xb
 6755 1b3e 14010000 		.4byte	.LVL328
 6756 1b42 49200000 		.4byte	0x2049
 6757 1b46 631B0000 		.4byte	0x1b63
 6758 1b4a 0C       		.uleb128 0xc
 6759 1b4b 01       		.uleb128 0x1
 6760 1b4c 50       		.byte	0x50
 6761 1b4d 05       		.uleb128 0x5
ARM GAS  C:\Users\EVGENY~1\AppData\Local\Temp\ccpzgcQX.s 			page 141


 6762 1b4e 03       		.byte	0x3
 6763 1b4f 64020000 		.4byte	.LC29
 6764 1b53 0C       		.uleb128 0xc
 6765 1b54 01       		.uleb128 0x1
 6766 1b55 51       		.byte	0x51
 6767 1b56 05       		.uleb128 0x5
 6768 1b57 03       		.byte	0x3
 6769 1b58 5C020000 		.4byte	.LC28
 6770 1b5c 0C       		.uleb128 0xc
 6771 1b5d 01       		.uleb128 0x1
 6772 1b5e 52       		.byte	0x52
 6773 1b5f 02       		.uleb128 0x2
 6774 1b60 75       		.byte	0x75
 6775 1b61 00       		.sleb128 0
 6776 1b62 00       		.byte	0
 6777 1b63 0B       		.uleb128 0xb
 6778 1b64 1C010000 		.4byte	.LVL329
 6779 1b68 A91F0000 		.4byte	0x1fa9
 6780 1b6c 7D1B0000 		.4byte	0x1b7d
 6781 1b70 0C       		.uleb128 0xc
 6782 1b71 01       		.uleb128 0x1
 6783 1b72 50       		.byte	0x50
 6784 1b73 02       		.uleb128 0x2
 6785 1b74 09       		.byte	0x9
 6786 1b75 C8       		.byte	0xc8
 6787 1b76 0C       		.uleb128 0xc
 6788 1b77 01       		.uleb128 0x1
 6789 1b78 51       		.byte	0x51
 6790 1b79 02       		.uleb128 0x2
 6791 1b7a 08       		.byte	0x8
 6792 1b7b 6E       		.byte	0x6e
 6793 1b7c 00       		.byte	0
 6794 1b7d 0B       		.uleb128 0xb
 6795 1b7e 22010000 		.4byte	.LVL330
 6796 1b82 A5080000 		.4byte	0x8a5
 6797 1b86 911B0000 		.4byte	0x1b91
 6798 1b8a 0C       		.uleb128 0xc
 6799 1b8b 01       		.uleb128 0x1
 6800 1b8c 50       		.byte	0x50
 6801 1b8d 02       		.uleb128 0x2
 6802 1b8e 08       		.byte	0x8
 6803 1b8f 5A       		.byte	0x5a
 6804 1b90 00       		.byte	0
 6805 1b91 0B       		.uleb128 0xb
 6806 1b92 2A010000 		.4byte	.LVL331
 6807 1b96 A91F0000 		.4byte	0x1fa9
 6808 1b9a A91B0000 		.4byte	0x1ba9
 6809 1b9e 0C       		.uleb128 0xc
 6810 1b9f 01       		.uleb128 0x1
 6811 1ba0 50       		.byte	0x50
 6812 1ba1 01       		.uleb128 0x1
 6813 1ba2 30       		.byte	0x30
 6814 1ba3 0C       		.uleb128 0xc
 6815 1ba4 01       		.uleb128 0x1
 6816 1ba5 51       		.byte	0x51
 6817 1ba6 01       		.uleb128 0x1
 6818 1ba7 30       		.byte	0x30
ARM GAS  C:\Users\EVGENY~1\AppData\Local\Temp\ccpzgcQX.s 			page 142


 6819 1ba8 00       		.byte	0
 6820 1ba9 0B       		.uleb128 0xb
 6821 1baa 30010000 		.4byte	.LVL332
 6822 1bae CA1F0000 		.4byte	0x1fca
 6823 1bb2 BD1B0000 		.4byte	0x1bbd
 6824 1bb6 0C       		.uleb128 0xc
 6825 1bb7 01       		.uleb128 0x1
 6826 1bb8 50       		.byte	0x50
 6827 1bb9 02       		.uleb128 0x2
 6828 1bba 08       		.byte	0x8
 6829 1bbb 64       		.byte	0x64
 6830 1bbc 00       		.byte	0
 6831 1bbd 0D       		.uleb128 0xd
 6832 1bbe 34010000 		.4byte	.LVL333
 6833 1bc2 B41F0000 		.4byte	0x1fb4
 6834 1bc6 0B       		.uleb128 0xb
 6835 1bc7 46010000 		.4byte	.LVL335
 6836 1bcb A5080000 		.4byte	0x8a5
 6837 1bcf DA1B0000 		.4byte	0x1bda
 6838 1bd3 0C       		.uleb128 0xc
 6839 1bd4 01       		.uleb128 0x1
 6840 1bd5 50       		.byte	0x50
 6841 1bd6 02       		.uleb128 0x2
 6842 1bd7 09       		.byte	0x9
 6843 1bd8 A6       		.byte	0xa6
 6844 1bd9 00       		.byte	0
 6845 1bda 0B       		.uleb128 0xb
 6846 1bdb 4E010000 		.4byte	.LVL336
 6847 1bdf A91F0000 		.4byte	0x1fa9
 6848 1be3 F21B0000 		.4byte	0x1bf2
 6849 1be7 0C       		.uleb128 0xc
 6850 1be8 01       		.uleb128 0x1
 6851 1be9 50       		.byte	0x50
 6852 1bea 01       		.uleb128 0x1
 6853 1beb 30       		.byte	0x30
 6854 1bec 0C       		.uleb128 0xc
 6855 1bed 01       		.uleb128 0x1
 6856 1bee 51       		.byte	0x51
 6857 1bef 01       		.uleb128 0x1
 6858 1bf0 30       		.byte	0x30
 6859 1bf1 00       		.byte	0
 6860 1bf2 0B       		.uleb128 0xb
 6861 1bf3 54010000 		.4byte	.LVL337
 6862 1bf7 CA1F0000 		.4byte	0x1fca
 6863 1bfb 061C0000 		.4byte	0x1c06
 6864 1bff 0C       		.uleb128 0xc
 6865 1c00 01       		.uleb128 0x1
 6866 1c01 50       		.byte	0x50
 6867 1c02 02       		.uleb128 0x2
 6868 1c03 08       		.byte	0x8
 6869 1c04 64       		.byte	0x64
 6870 1c05 00       		.byte	0
 6871 1c06 0D       		.uleb128 0xd
 6872 1c07 66010000 		.4byte	.LVL340
 6873 1c0b B41F0000 		.4byte	0x1fb4
 6874 1c0f 0B       		.uleb128 0xb
 6875 1c10 76010000 		.4byte	.LVL342
ARM GAS  C:\Users\EVGENY~1\AppData\Local\Temp\ccpzgcQX.s 			page 143


 6876 1c14 A5080000 		.4byte	0x8a5
 6877 1c18 231C0000 		.4byte	0x1c23
 6878 1c1c 0C       		.uleb128 0xc
 6879 1c1d 01       		.uleb128 0x1
 6880 1c1e 50       		.byte	0x50
 6881 1c1f 02       		.uleb128 0x2
 6882 1c20 08       		.byte	0x8
 6883 1c21 5A       		.byte	0x5a
 6884 1c22 00       		.byte	0
 6885 1c23 0B       		.uleb128 0xb
 6886 1c24 7E010000 		.4byte	.LVL343
 6887 1c28 A91F0000 		.4byte	0x1fa9
 6888 1c2c 3B1C0000 		.4byte	0x1c3b
 6889 1c30 0C       		.uleb128 0xc
 6890 1c31 01       		.uleb128 0x1
 6891 1c32 50       		.byte	0x50
 6892 1c33 01       		.uleb128 0x1
 6893 1c34 30       		.byte	0x30
 6894 1c35 0C       		.uleb128 0xc
 6895 1c36 01       		.uleb128 0x1
 6896 1c37 51       		.byte	0x51
 6897 1c38 01       		.uleb128 0x1
 6898 1c39 30       		.byte	0x30
 6899 1c3a 00       		.byte	0
 6900 1c3b 0B       		.uleb128 0xb
 6901 1c3c 84010000 		.4byte	.LVL344
 6902 1c40 CA1F0000 		.4byte	0x1fca
 6903 1c44 4F1C0000 		.4byte	0x1c4f
 6904 1c48 0C       		.uleb128 0xc
 6905 1c49 01       		.uleb128 0x1
 6906 1c4a 50       		.byte	0x50
 6907 1c4b 02       		.uleb128 0x2
 6908 1c4c 08       		.byte	0x8
 6909 1c4d 64       		.byte	0x64
 6910 1c4e 00       		.byte	0
 6911 1c4f 0D       		.uleb128 0xd
 6912 1c50 8E010000 		.4byte	.LVL346
 6913 1c54 B41F0000 		.4byte	0x1fb4
 6914 1c58 0B       		.uleb128 0xb
 6915 1c59 98010000 		.4byte	.LVL348
 6916 1c5d A5080000 		.4byte	0x8a5
 6917 1c61 6C1C0000 		.4byte	0x1c6c
 6918 1c65 0C       		.uleb128 0xc
 6919 1c66 01       		.uleb128 0x1
 6920 1c67 50       		.byte	0x50
 6921 1c68 02       		.uleb128 0x2
 6922 1c69 08       		.byte	0x8
 6923 1c6a B4       		.byte	0xb4
 6924 1c6b 00       		.byte	0
 6925 1c6c 0B       		.uleb128 0xb
 6926 1c6d A0010000 		.4byte	.LVL349
 6927 1c71 A91F0000 		.4byte	0x1fa9
 6928 1c75 841C0000 		.4byte	0x1c84
 6929 1c79 0C       		.uleb128 0xc
 6930 1c7a 01       		.uleb128 0x1
 6931 1c7b 50       		.byte	0x50
 6932 1c7c 01       		.uleb128 0x1
ARM GAS  C:\Users\EVGENY~1\AppData\Local\Temp\ccpzgcQX.s 			page 144


 6933 1c7d 30       		.byte	0x30
 6934 1c7e 0C       		.uleb128 0xc
 6935 1c7f 01       		.uleb128 0x1
 6936 1c80 51       		.byte	0x51
 6937 1c81 01       		.uleb128 0x1
 6938 1c82 30       		.byte	0x30
 6939 1c83 00       		.byte	0
 6940 1c84 0B       		.uleb128 0xb
 6941 1c85 A6010000 		.4byte	.LVL350
 6942 1c89 CA1F0000 		.4byte	0x1fca
 6943 1c8d 981C0000 		.4byte	0x1c98
 6944 1c91 0C       		.uleb128 0xc
 6945 1c92 01       		.uleb128 0x1
 6946 1c93 50       		.byte	0x50
 6947 1c94 02       		.uleb128 0x2
 6948 1c95 08       		.byte	0x8
 6949 1c96 64       		.byte	0x64
 6950 1c97 00       		.byte	0
 6951 1c98 0B       		.uleb128 0xb
 6952 1c99 B2010000 		.4byte	.LVL352
 6953 1c9d 1C040000 		.4byte	0x41c
 6954 1ca1 AC1C0000 		.4byte	0x1cac
 6955 1ca5 0C       		.uleb128 0xc
 6956 1ca6 01       		.uleb128 0x1
 6957 1ca7 50       		.byte	0x50
 6958 1ca8 02       		.uleb128 0x2
 6959 1ca9 91       		.byte	0x91
 6960 1caa 58       		.sleb128 -40
 6961 1cab 00       		.byte	0
 6962 1cac 0B       		.uleb128 0xb
 6963 1cad C0010000 		.4byte	.LVL354
 6964 1cb1 B1160000 		.4byte	0x16b1
 6965 1cb5 C51C0000 		.4byte	0x1cc5
 6966 1cb9 0C       		.uleb128 0xc
 6967 1cba 01       		.uleb128 0x1
 6968 1cbb 50       		.byte	0x50
 6969 1cbc 02       		.uleb128 0x2
 6970 1cbd 09       		.byte	0x9
 6971 1cbe 96       		.byte	0x96
 6972 1cbf 0C       		.uleb128 0xc
 6973 1cc0 01       		.uleb128 0x1
 6974 1cc1 51       		.byte	0x51
 6975 1cc2 01       		.uleb128 0x1
 6976 1cc3 30       		.byte	0x30
 6977 1cc4 00       		.byte	0
 6978 1cc5 0B       		.uleb128 0xb
 6979 1cc6 CE010000 		.4byte	.LVL356
 6980 1cca 49200000 		.4byte	0x2049
 6981 1cce EB1C0000 		.4byte	0x1ceb
 6982 1cd2 0C       		.uleb128 0xc
 6983 1cd3 01       		.uleb128 0x1
 6984 1cd4 50       		.byte	0x50
 6985 1cd5 05       		.uleb128 0x5
 6986 1cd6 03       		.byte	0x3
 6987 1cd7 64020000 		.4byte	.LC29
 6988 1cdb 0C       		.uleb128 0xc
 6989 1cdc 01       		.uleb128 0x1
ARM GAS  C:\Users\EVGENY~1\AppData\Local\Temp\ccpzgcQX.s 			page 145


 6990 1cdd 51       		.byte	0x51
 6991 1cde 05       		.uleb128 0x5
 6992 1cdf 03       		.byte	0x3
 6993 1ce0 5C020000 		.4byte	.LC28
 6994 1ce4 0C       		.uleb128 0xc
 6995 1ce5 01       		.uleb128 0x1
 6996 1ce6 52       		.byte	0x52
 6997 1ce7 02       		.uleb128 0x2
 6998 1ce8 75       		.byte	0x75
 6999 1ce9 00       		.sleb128 0
 7000 1cea 00       		.byte	0
 7001 1ceb 0B       		.uleb128 0xb
 7002 1cec D6010000 		.4byte	.LVL357
 7003 1cf0 A91F0000 		.4byte	0x1fa9
 7004 1cf4 051D0000 		.4byte	0x1d05
 7005 1cf8 0C       		.uleb128 0xc
 7006 1cf9 01       		.uleb128 0x1
 7007 1cfa 50       		.byte	0x50
 7008 1cfb 02       		.uleb128 0x2
 7009 1cfc 09       		.byte	0x9
 7010 1cfd C8       		.byte	0xc8
 7011 1cfe 0C       		.uleb128 0xc
 7012 1cff 01       		.uleb128 0x1
 7013 1d00 51       		.byte	0x51
 7014 1d01 02       		.uleb128 0x2
 7015 1d02 08       		.byte	0x8
 7016 1d03 6E       		.byte	0x6e
 7017 1d04 00       		.byte	0
 7018 1d05 0B       		.uleb128 0xb
 7019 1d06 DE010000 		.4byte	.LVL358
 7020 1d0a A5080000 		.4byte	0x8a5
 7021 1d0e 191D0000 		.4byte	0x1d19
 7022 1d12 0C       		.uleb128 0xc
 7023 1d13 01       		.uleb128 0x1
 7024 1d14 50       		.byte	0x50
 7025 1d15 02       		.uleb128 0x2
 7026 1d16 09       		.byte	0x9
 7027 1d17 A6       		.byte	0xa6
 7028 1d18 00       		.byte	0
 7029 1d19 0B       		.uleb128 0xb
 7030 1d1a E6010000 		.4byte	.LVL359
 7031 1d1e A91F0000 		.4byte	0x1fa9
 7032 1d22 311D0000 		.4byte	0x1d31
 7033 1d26 0C       		.uleb128 0xc
 7034 1d27 01       		.uleb128 0x1
 7035 1d28 50       		.byte	0x50
 7036 1d29 01       		.uleb128 0x1
 7037 1d2a 30       		.byte	0x30
 7038 1d2b 0C       		.uleb128 0xc
 7039 1d2c 01       		.uleb128 0x1
 7040 1d2d 51       		.byte	0x51
 7041 1d2e 01       		.uleb128 0x1
 7042 1d2f 30       		.byte	0x30
 7043 1d30 00       		.byte	0
 7044 1d31 0B       		.uleb128 0xb
 7045 1d32 EC010000 		.4byte	.LVL360
 7046 1d36 CA1F0000 		.4byte	0x1fca
ARM GAS  C:\Users\EVGENY~1\AppData\Local\Temp\ccpzgcQX.s 			page 146


 7047 1d3a 451D0000 		.4byte	0x1d45
 7048 1d3e 0C       		.uleb128 0xc
 7049 1d3f 01       		.uleb128 0x1
 7050 1d40 50       		.byte	0x50
 7051 1d41 02       		.uleb128 0x2
 7052 1d42 08       		.byte	0x8
 7053 1d43 64       		.byte	0x64
 7054 1d44 00       		.byte	0
 7055 1d45 0D       		.uleb128 0xd
 7056 1d46 F0010000 		.4byte	.LVL361
 7057 1d4a B41F0000 		.4byte	0x1fb4
 7058 1d4e 0B       		.uleb128 0xb
 7059 1d4f FA010000 		.4byte	.LVL363
 7060 1d53 A5080000 		.4byte	0x8a5
 7061 1d57 621D0000 		.4byte	0x1d62
 7062 1d5b 0C       		.uleb128 0xc
 7063 1d5c 01       		.uleb128 0x1
 7064 1d5d 50       		.byte	0x50
 7065 1d5e 02       		.uleb128 0x2
 7066 1d5f 08       		.byte	0x8
 7067 1d60 5A       		.byte	0x5a
 7068 1d61 00       		.byte	0
 7069 1d62 0B       		.uleb128 0xb
 7070 1d63 02020000 		.4byte	.LVL364
 7071 1d67 A91F0000 		.4byte	0x1fa9
 7072 1d6b 7A1D0000 		.4byte	0x1d7a
 7073 1d6f 0C       		.uleb128 0xc
 7074 1d70 01       		.uleb128 0x1
 7075 1d71 50       		.byte	0x50
 7076 1d72 01       		.uleb128 0x1
 7077 1d73 30       		.byte	0x30
 7078 1d74 0C       		.uleb128 0xc
 7079 1d75 01       		.uleb128 0x1
 7080 1d76 51       		.byte	0x51
 7081 1d77 01       		.uleb128 0x1
 7082 1d78 30       		.byte	0x30
 7083 1d79 00       		.byte	0
 7084 1d7a 0B       		.uleb128 0xb
 7085 1d7b 08020000 		.4byte	.LVL365
 7086 1d7f CA1F0000 		.4byte	0x1fca
 7087 1d83 8E1D0000 		.4byte	0x1d8e
 7088 1d87 0C       		.uleb128 0xc
 7089 1d88 01       		.uleb128 0x1
 7090 1d89 50       		.byte	0x50
 7091 1d8a 02       		.uleb128 0x2
 7092 1d8b 08       		.byte	0x8
 7093 1d8c 64       		.byte	0x64
 7094 1d8d 00       		.byte	0
 7095 1d8e 0B       		.uleb128 0xb
 7096 1d8f 28020000 		.4byte	.LVL368
 7097 1d93 A91F0000 		.4byte	0x1fa9
 7098 1d97 A81D0000 		.4byte	0x1da8
 7099 1d9b 0C       		.uleb128 0xc
 7100 1d9c 01       		.uleb128 0x1
 7101 1d9d 50       		.byte	0x50
 7102 1d9e 02       		.uleb128 0x2
 7103 1d9f 09       		.byte	0x9
ARM GAS  C:\Users\EVGENY~1\AppData\Local\Temp\ccpzgcQX.s 			page 147


 7104 1da0 C8       		.byte	0xc8
 7105 1da1 0C       		.uleb128 0xc
 7106 1da2 01       		.uleb128 0x1
 7107 1da3 51       		.byte	0x51
 7108 1da4 02       		.uleb128 0x2
 7109 1da5 08       		.byte	0x8
 7110 1da6 6E       		.byte	0x6e
 7111 1da7 00       		.byte	0
 7112 1da8 0B       		.uleb128 0xb
 7113 1da9 2E020000 		.4byte	.LVL369
 7114 1dad A5080000 		.4byte	0x8a5
 7115 1db1 BC1D0000 		.4byte	0x1dbc
 7116 1db5 0C       		.uleb128 0xc
 7117 1db6 01       		.uleb128 0x1
 7118 1db7 50       		.byte	0x50
 7119 1db8 02       		.uleb128 0x2
 7120 1db9 08       		.byte	0x8
 7121 1dba 5A       		.byte	0x5a
 7122 1dbb 00       		.byte	0
 7123 1dbc 0B       		.uleb128 0xb
 7124 1dbd 38020000 		.4byte	.LVL370
 7125 1dc1 BF0C0000 		.4byte	0xcbf
 7126 1dc5 D51D0000 		.4byte	0x1dd5
 7127 1dc9 0C       		.uleb128 0xc
 7128 1dca 01       		.uleb128 0x1
 7129 1dcb 50       		.byte	0x50
 7130 1dcc 02       		.uleb128 0x2
 7131 1dcd 09       		.byte	0x9
 7132 1dce 96       		.byte	0x96
 7133 1dcf 0C       		.uleb128 0xc
 7134 1dd0 01       		.uleb128 0x1
 7135 1dd1 51       		.byte	0x51
 7136 1dd2 01       		.uleb128 0x1
 7137 1dd3 30       		.byte	0x30
 7138 1dd4 00       		.byte	0
 7139 1dd5 0B       		.uleb128 0xb
 7140 1dd6 46020000 		.4byte	.LVL372
 7141 1dda 49200000 		.4byte	0x2049
 7142 1dde FB1D0000 		.4byte	0x1dfb
 7143 1de2 0C       		.uleb128 0xc
 7144 1de3 01       		.uleb128 0x1
 7145 1de4 50       		.byte	0x50
 7146 1de5 05       		.uleb128 0x5
 7147 1de6 03       		.byte	0x3
 7148 1de7 64020000 		.4byte	.LC29
 7149 1deb 0C       		.uleb128 0xc
 7150 1dec 01       		.uleb128 0x1
 7151 1ded 51       		.byte	0x51
 7152 1dee 05       		.uleb128 0x5
 7153 1def 03       		.byte	0x3
 7154 1df0 5C020000 		.4byte	.LC28
 7155 1df4 0C       		.uleb128 0xc
 7156 1df5 01       		.uleb128 0x1
 7157 1df6 52       		.byte	0x52
 7158 1df7 02       		.uleb128 0x2
 7159 1df8 75       		.byte	0x75
 7160 1df9 00       		.sleb128 0
ARM GAS  C:\Users\EVGENY~1\AppData\Local\Temp\ccpzgcQX.s 			page 148


 7161 1dfa 00       		.byte	0
 7162 1dfb 0B       		.uleb128 0xb
 7163 1dfc 4C020000 		.4byte	.LVL373
 7164 1e00 CA1F0000 		.4byte	0x1fca
 7165 1e04 0F1E0000 		.4byte	0x1e0f
 7166 1e08 0C       		.uleb128 0xc
 7167 1e09 01       		.uleb128 0x1
 7168 1e0a 50       		.byte	0x50
 7169 1e0b 02       		.uleb128 0x2
 7170 1e0c 08       		.byte	0x8
 7171 1e0d 64       		.byte	0x64
 7172 1e0e 00       		.byte	0
 7173 1e0f 0B       		.uleb128 0xb
 7174 1e10 58020000 		.4byte	.LVL374
 7175 1e14 A91F0000 		.4byte	0x1fa9
 7176 1e18 291E0000 		.4byte	0x1e29
 7177 1e1c 0C       		.uleb128 0xc
 7178 1e1d 01       		.uleb128 0x1
 7179 1e1e 50       		.byte	0x50
 7180 1e1f 02       		.uleb128 0x2
 7181 1e20 09       		.byte	0x9
 7182 1e21 C8       		.byte	0xc8
 7183 1e22 0C       		.uleb128 0xc
 7184 1e23 01       		.uleb128 0x1
 7185 1e24 51       		.byte	0x51
 7186 1e25 02       		.uleb128 0x2
 7187 1e26 08       		.byte	0x8
 7188 1e27 6E       		.byte	0x6e
 7189 1e28 00       		.byte	0
 7190 1e29 0B       		.uleb128 0xb
 7191 1e2a 60020000 		.4byte	.LVL375
 7192 1e2e A5080000 		.4byte	0x8a5
 7193 1e32 3D1E0000 		.4byte	0x1e3d
 7194 1e36 0C       		.uleb128 0xc
 7195 1e37 01       		.uleb128 0x1
 7196 1e38 50       		.byte	0x50
 7197 1e39 02       		.uleb128 0x2
 7198 1e3a 09       		.byte	0x9
 7199 1e3b A6       		.byte	0xa6
 7200 1e3c 00       		.byte	0
 7201 1e3d 0B       		.uleb128 0xb
 7202 1e3e 6E020000 		.4byte	.LVL376
 7203 1e42 A91F0000 		.4byte	0x1fa9
 7204 1e46 571E0000 		.4byte	0x1e57
 7205 1e4a 0C       		.uleb128 0xc
 7206 1e4b 01       		.uleb128 0x1
 7207 1e4c 50       		.byte	0x50
 7208 1e4d 02       		.uleb128 0x2
 7209 1e4e 09       		.byte	0x9
 7210 1e4f C8       		.byte	0xc8
 7211 1e50 0C       		.uleb128 0xc
 7212 1e51 01       		.uleb128 0x1
 7213 1e52 51       		.byte	0x51
 7214 1e53 02       		.uleb128 0x2
 7215 1e54 08       		.byte	0x8
 7216 1e55 6E       		.byte	0x6e
 7217 1e56 00       		.byte	0
ARM GAS  C:\Users\EVGENY~1\AppData\Local\Temp\ccpzgcQX.s 			page 149


 7218 1e57 0B       		.uleb128 0xb
 7219 1e58 76020000 		.4byte	.LVL377
 7220 1e5c A5080000 		.4byte	0x8a5
 7221 1e60 6B1E0000 		.4byte	0x1e6b
 7222 1e64 0C       		.uleb128 0xc
 7223 1e65 01       		.uleb128 0x1
 7224 1e66 50       		.byte	0x50
 7225 1e67 02       		.uleb128 0x2
 7226 1e68 09       		.byte	0x9
 7227 1e69 A6       		.byte	0xa6
 7228 1e6a 00       		.byte	0
 7229 1e6b 0B       		.uleb128 0xb
 7230 1e6c 80020000 		.4byte	.LVL378
 7231 1e70 B1160000 		.4byte	0x16b1
 7232 1e74 841E0000 		.4byte	0x1e84
 7233 1e78 0C       		.uleb128 0xc
 7234 1e79 01       		.uleb128 0x1
 7235 1e7a 50       		.byte	0x50
 7236 1e7b 02       		.uleb128 0x2
 7237 1e7c 09       		.byte	0x9
 7238 1e7d 96       		.byte	0x96
 7239 1e7e 0C       		.uleb128 0xc
 7240 1e7f 01       		.uleb128 0x1
 7241 1e80 51       		.byte	0x51
 7242 1e81 01       		.uleb128 0x1
 7243 1e82 30       		.byte	0x30
 7244 1e83 00       		.byte	0
 7245 1e84 0B       		.uleb128 0xb
 7246 1e85 8E020000 		.4byte	.LVL380
 7247 1e89 49200000 		.4byte	0x2049
 7248 1e8d AA1E0000 		.4byte	0x1eaa
 7249 1e91 0C       		.uleb128 0xc
 7250 1e92 01       		.uleb128 0x1
 7251 1e93 50       		.byte	0x50
 7252 1e94 05       		.uleb128 0x5
 7253 1e95 03       		.byte	0x3
 7254 1e96 64020000 		.4byte	.LC29
 7255 1e9a 0C       		.uleb128 0xc
 7256 1e9b 01       		.uleb128 0x1
 7257 1e9c 51       		.byte	0x51
 7258 1e9d 05       		.uleb128 0x5
 7259 1e9e 03       		.byte	0x3
 7260 1e9f 5C020000 		.4byte	.LC28
 7261 1ea3 0C       		.uleb128 0xc
 7262 1ea4 01       		.uleb128 0x1
 7263 1ea5 52       		.byte	0x52
 7264 1ea6 02       		.uleb128 0x2
 7265 1ea7 75       		.byte	0x75
 7266 1ea8 00       		.sleb128 0
 7267 1ea9 00       		.byte	0
 7268 1eaa 0B       		.uleb128 0xb
 7269 1eab 94020000 		.4byte	.LVL381
 7270 1eaf CA1F0000 		.4byte	0x1fca
 7271 1eb3 BE1E0000 		.4byte	0x1ebe
 7272 1eb7 0C       		.uleb128 0xc
 7273 1eb8 01       		.uleb128 0x1
 7274 1eb9 50       		.byte	0x50
ARM GAS  C:\Users\EVGENY~1\AppData\Local\Temp\ccpzgcQX.s 			page 150


 7275 1eba 02       		.uleb128 0x2
 7276 1ebb 08       		.byte	0x8
 7277 1ebc 64       		.byte	0x64
 7278 1ebd 00       		.byte	0
 7279 1ebe 0B       		.uleb128 0xb
 7280 1ebf A0020000 		.4byte	.LVL382
 7281 1ec3 A91F0000 		.4byte	0x1fa9
 7282 1ec7 D81E0000 		.4byte	0x1ed8
 7283 1ecb 0C       		.uleb128 0xc
 7284 1ecc 01       		.uleb128 0x1
 7285 1ecd 50       		.byte	0x50
 7286 1ece 02       		.uleb128 0x2
 7287 1ecf 09       		.byte	0x9
 7288 1ed0 C8       		.byte	0xc8
 7289 1ed1 0C       		.uleb128 0xc
 7290 1ed2 01       		.uleb128 0x1
 7291 1ed3 51       		.byte	0x51
 7292 1ed4 02       		.uleb128 0x2
 7293 1ed5 08       		.byte	0x8
 7294 1ed6 6E       		.byte	0x6e
 7295 1ed7 00       		.byte	0
 7296 1ed8 0B       		.uleb128 0xb
 7297 1ed9 A6020000 		.4byte	.LVL383
 7298 1edd A5080000 		.4byte	0x8a5
 7299 1ee1 EC1E0000 		.4byte	0x1eec
 7300 1ee5 0C       		.uleb128 0xc
 7301 1ee6 01       		.uleb128 0x1
 7302 1ee7 50       		.byte	0x50
 7303 1ee8 02       		.uleb128 0x2
 7304 1ee9 08       		.byte	0x8
 7305 1eea 5A       		.byte	0x5a
 7306 1eeb 00       		.byte	0
 7307 1eec 0B       		.uleb128 0xb
 7308 1eed B0020000 		.4byte	.LVL384
 7309 1ef1 B1160000 		.4byte	0x16b1
 7310 1ef5 051F0000 		.4byte	0x1f05
 7311 1ef9 0C       		.uleb128 0xc
 7312 1efa 01       		.uleb128 0x1
 7313 1efb 50       		.byte	0x50
 7314 1efc 02       		.uleb128 0x2
 7315 1efd 09       		.byte	0x9
 7316 1efe 96       		.byte	0x96
 7317 1eff 0C       		.uleb128 0xc
 7318 1f00 01       		.uleb128 0x1
 7319 1f01 51       		.byte	0x51
 7320 1f02 01       		.uleb128 0x1
 7321 1f03 30       		.byte	0x30
 7322 1f04 00       		.byte	0
 7323 1f05 0B       		.uleb128 0xb
 7324 1f06 C0020000 		.4byte	.LVL385
 7325 1f0a 49200000 		.4byte	0x2049
 7326 1f0e 2B1F0000 		.4byte	0x1f2b
 7327 1f12 0C       		.uleb128 0xc
 7328 1f13 01       		.uleb128 0x1
 7329 1f14 50       		.byte	0x50
 7330 1f15 05       		.uleb128 0x5
 7331 1f16 03       		.byte	0x3
ARM GAS  C:\Users\EVGENY~1\AppData\Local\Temp\ccpzgcQX.s 			page 151


 7332 1f17 64020000 		.4byte	.LC29
 7333 1f1b 0C       		.uleb128 0xc
 7334 1f1c 01       		.uleb128 0x1
 7335 1f1d 51       		.byte	0x51
 7336 1f1e 05       		.uleb128 0x5
 7337 1f1f 03       		.byte	0x3
 7338 1f20 5C020000 		.4byte	.LC28
 7339 1f24 0C       		.uleb128 0xc
 7340 1f25 01       		.uleb128 0x1
 7341 1f26 52       		.byte	0x52
 7342 1f27 02       		.uleb128 0x2
 7343 1f28 75       		.byte	0x75
 7344 1f29 00       		.sleb128 0
 7345 1f2a 00       		.byte	0
 7346 1f2b 0B       		.uleb128 0xb
 7347 1f2c CE020000 		.4byte	.LVL386
 7348 1f30 A91F0000 		.4byte	0x1fa9
 7349 1f34 431F0000 		.4byte	0x1f43
 7350 1f38 0C       		.uleb128 0xc
 7351 1f39 01       		.uleb128 0x1
 7352 1f3a 50       		.byte	0x50
 7353 1f3b 01       		.uleb128 0x1
 7354 1f3c 30       		.byte	0x30
 7355 1f3d 0C       		.uleb128 0xc
 7356 1f3e 01       		.uleb128 0x1
 7357 1f3f 51       		.byte	0x51
 7358 1f40 01       		.uleb128 0x1
 7359 1f41 30       		.byte	0x30
 7360 1f42 00       		.byte	0
 7361 1f43 0B       		.uleb128 0xb
 7362 1f44 D8020000 		.4byte	.LVL387
 7363 1f48 A91F0000 		.4byte	0x1fa9
 7364 1f4c 5E1F0000 		.4byte	0x1f5e
 7365 1f50 0C       		.uleb128 0xc
 7366 1f51 01       		.uleb128 0x1
 7367 1f52 50       		.byte	0x50
 7368 1f53 02       		.uleb128 0x2
 7369 1f54 08       		.byte	0x8
 7370 1f55 64       		.byte	0x64
 7371 1f56 0C       		.uleb128 0xc
 7372 1f57 01       		.uleb128 0x1
 7373 1f58 51       		.byte	0x51
 7374 1f59 03       		.uleb128 0x3
 7375 1f5a 0A       		.byte	0xa
 7376 1f5b BC02     		.2byte	0x2bc
 7377 1f5d 00       		.byte	0
 7378 1f5e 0B       		.uleb128 0xb
 7379 1f5f E0020000 		.4byte	.LVL388
 7380 1f63 49200000 		.4byte	0x2049
 7381 1f67 7E1F0000 		.4byte	0x1f7e
 7382 1f6b 0C       		.uleb128 0xc
 7383 1f6c 01       		.uleb128 0x1
 7384 1f6d 50       		.byte	0x50
 7385 1f6e 05       		.uleb128 0x5
 7386 1f6f 03       		.byte	0x3
 7387 1f70 30010000 		.4byte	.LC10
 7388 1f74 0C       		.uleb128 0xc
ARM GAS  C:\Users\EVGENY~1\AppData\Local\Temp\ccpzgcQX.s 			page 152


 7389 1f75 01       		.uleb128 0x1
 7390 1f76 51       		.byte	0x51
 7391 1f77 05       		.uleb128 0x5
 7392 1f78 03       		.byte	0x3
 7393 1f79 78020000 		.4byte	.LC30
 7394 1f7d 00       		.byte	0
 7395 1f7e 0D       		.uleb128 0xd
 7396 1f7f E4020000 		.4byte	.LVL389
 7397 1f83 3D200000 		.4byte	0x203d
 7398 1f87 10       		.uleb128 0x10
 7399 1f88 EC020000 		.4byte	.LVL391
 7400 1f8c 71090000 		.4byte	0x971
 7401 1f90 0C       		.uleb128 0xc
 7402 1f91 01       		.uleb128 0x1
 7403 1f92 50       		.byte	0x50
 7404 1f93 02       		.uleb128 0x2
 7405 1f94 78       		.byte	0x78
 7406 1f95 00       		.sleb128 0
 7407 1f96 00       		.byte	0
 7408 1f97 00       		.byte	0
 7409 1f98 1F       		.uleb128 0x1f
 7410 1f99 B4000000 		.4byte	.LASF110
 7411 1f9d 0F       		.byte	0xf
 7412 1f9e 1207     		.2byte	0x712
 7413 1fa0 A41F0000 		.4byte	0x1fa4
 7414 1fa4 20       		.uleb128 0x20
 7415 1fa5 AD000000 		.4byte	0xad
 7416 1fa9 21       		.uleb128 0x21
 7417 1faa 52000000 		.4byte	.LASF84
 7418 1fae 52000000 		.4byte	.LASF84
 7419 1fb2 06       		.byte	0x6
 7420 1fb3 0F       		.byte	0xf
 7421 1fb4 21       		.uleb128 0x21
 7422 1fb5 BD040000 		.4byte	.LASF85
 7423 1fb9 BD040000 		.4byte	.LASF85
 7424 1fbd 07       		.byte	0x7
 7425 1fbe 0D       		.byte	0xd
 7426 1fbf 21       		.uleb128 0x21
 7427 1fc0 00000000 		.4byte	.LASF86
 7428 1fc4 00000000 		.4byte	.LASF86
 7429 1fc8 08       		.byte	0x8
 7430 1fc9 BB       		.byte	0xbb
 7431 1fca 22       		.uleb128 0x22
 7432 1fcb ED000000 		.4byte	.LASF87
 7433 1fcf ED000000 		.4byte	.LASF87
 7434 1fd3 09       		.byte	0x9
 7435 1fd4 ED02     		.2byte	0x2ed
 7436 1fd6 21       		.uleb128 0x21
 7437 1fd7 65000000 		.4byte	.LASF88
 7438 1fdb 65000000 		.4byte	.LASF88
 7439 1fdf 06       		.byte	0x6
 7440 1fe0 15       		.byte	0x15
 7441 1fe1 21       		.uleb128 0x21
 7442 1fe2 64030000 		.4byte	.LASF89
 7443 1fe6 64030000 		.4byte	.LASF89
 7444 1fea 06       		.byte	0x6
 7445 1feb 12       		.byte	0x12
ARM GAS  C:\Users\EVGENY~1\AppData\Local\Temp\ccpzgcQX.s 			page 153


 7446 1fec 21       		.uleb128 0x21
 7447 1fed F8000000 		.4byte	.LASF90
 7448 1ff1 F8000000 		.4byte	.LASF90
 7449 1ff5 0A       		.byte	0xa
 7450 1ff6 29       		.byte	0x29
 7451 1ff7 21       		.uleb128 0x21
 7452 1ff8 92020000 		.4byte	.LASF91
 7453 1ffc 92020000 		.4byte	.LASF91
 7454 2000 07       		.byte	0x7
 7455 2001 0A       		.byte	0xa
 7456 2002 21       		.uleb128 0x21
 7457 2003 74020000 		.4byte	.LASF92
 7458 2007 74020000 		.4byte	.LASF92
 7459 200b 06       		.byte	0x6
 7460 200c 0B       		.byte	0xb
 7461 200d 21       		.uleb128 0x21
 7462 200e B4040000 		.4byte	.LASF93
 7463 2012 B4040000 		.4byte	.LASF93
 7464 2016 0B       		.byte	0xb
 7465 2017 11       		.byte	0x11
 7466 2018 21       		.uleb128 0x21
 7467 2019 1F030000 		.4byte	.LASF94
 7468 201d 1F030000 		.4byte	.LASF94
 7469 2021 0B       		.byte	0xb
 7470 2022 1B       		.byte	0x1b
 7471 2023 21       		.uleb128 0x21
 7472 2024 F5020000 		.4byte	.LASF95
 7473 2028 F5020000 		.4byte	.LASF95
 7474 202c 06       		.byte	0x6
 7475 202d 0C       		.byte	0xc
 7476 202e 23       		.uleb128 0x23
 7477 202f BB020000 		.4byte	.LASF111
 7478 2033 42010000 		.4byte	.LASF112
 7479 2037 10       		.byte	0x10
 7480 2038 00       		.byte	0
 7481 2039 BB020000 		.4byte	.LASF111
 7482 203d 22       		.uleb128 0x22
 7483 203e 80020000 		.4byte	.LASF96
 7484 2042 80020000 		.4byte	.LASF96
 7485 2046 09       		.byte	0x9
 7486 2047 3E05     		.2byte	0x53e
 7487 2049 21       		.uleb128 0x21
 7488 204a 4D030000 		.4byte	.LASF97
 7489 204e 4D030000 		.4byte	.LASF97
 7490 2052 0C       		.byte	0xc
 7491 2053 07       		.byte	0x7
 7492 2054 21       		.uleb128 0x21
 7493 2055 96000000 		.4byte	.LASF98
 7494 2059 96000000 		.4byte	.LASF98
 7495 205d 0D       		.byte	0xd
 7496 205e 26       		.byte	0x26
 7497 205f 21       		.uleb128 0x21
 7498 2060 85010000 		.4byte	.LASF99
 7499 2064 85010000 		.4byte	.LASF99
 7500 2068 06       		.byte	0x6
 7501 2069 18       		.byte	0x18
 7502 206a 21       		.uleb128 0x21
ARM GAS  C:\Users\EVGENY~1\AppData\Local\Temp\ccpzgcQX.s 			page 154


 7503 206b 58030000 		.4byte	.LASF100
 7504 206f 58030000 		.4byte	.LASF100
 7505 2073 0E       		.byte	0xe
 7506 2074 96       		.byte	0x96
 7507 2075 21       		.uleb128 0x21
 7508 2076 44020000 		.4byte	.LASF101
 7509 207a 44020000 		.4byte	.LASF101
 7510 207e 0E       		.byte	0xe
 7511 207f 88       		.byte	0x88
 7512 2080 21       		.uleb128 0x21
 7513 2081 01010000 		.4byte	.LASF102
 7514 2085 01010000 		.4byte	.LASF102
 7515 2089 0B       		.byte	0xb
 7516 208a 18       		.byte	0x18
 7517 208b 21       		.uleb128 0x21
 7518 208c 2C000000 		.4byte	.LASF103
 7519 2090 2C000000 		.4byte	.LASF103
 7520 2094 05       		.byte	0x5
 7521 2095 17       		.byte	0x17
 7522 2096 21       		.uleb128 0x21
 7523 2097 33030000 		.4byte	.LASF104
 7524 209b 33030000 		.4byte	.LASF104
 7525 209f 05       		.byte	0x5
 7526 20a0 1A       		.byte	0x1a
 7527 20a1 21       		.uleb128 0x21
 7528 20a2 C0020000 		.4byte	.LASF105
 7529 20a6 C0020000 		.4byte	.LASF105
 7530 20aa 05       		.byte	0x5
 7531 20ab 19       		.byte	0x19
 7532 20ac 00       		.byte	0
 7533              		.section	.debug_abbrev,"",%progbits
 7534              	.Ldebug_abbrev0:
 7535 0000 01       		.uleb128 0x1
 7536 0001 11       		.uleb128 0x11
 7537 0002 01       		.byte	0x1
 7538 0003 25       		.uleb128 0x25
 7539 0004 0E       		.uleb128 0xe
 7540 0005 13       		.uleb128 0x13
 7541 0006 0B       		.uleb128 0xb
 7542 0007 03       		.uleb128 0x3
 7543 0008 0E       		.uleb128 0xe
 7544 0009 1B       		.uleb128 0x1b
 7545 000a 0E       		.uleb128 0xe
 7546 000b 55       		.uleb128 0x55
 7547 000c 17       		.uleb128 0x17
 7548 000d 11       		.uleb128 0x11
 7549 000e 01       		.uleb128 0x1
 7550 000f 10       		.uleb128 0x10
 7551 0010 17       		.uleb128 0x17
 7552 0011 00       		.byte	0
 7553 0012 00       		.byte	0
 7554 0013 02       		.uleb128 0x2
 7555 0014 24       		.uleb128 0x24
 7556 0015 00       		.byte	0
 7557 0016 0B       		.uleb128 0xb
 7558 0017 0B       		.uleb128 0xb
 7559 0018 3E       		.uleb128 0x3e
ARM GAS  C:\Users\EVGENY~1\AppData\Local\Temp\ccpzgcQX.s 			page 155


 7560 0019 0B       		.uleb128 0xb
 7561 001a 03       		.uleb128 0x3
 7562 001b 0E       		.uleb128 0xe
 7563 001c 00       		.byte	0
 7564 001d 00       		.byte	0
 7565 001e 03       		.uleb128 0x3
 7566 001f 16       		.uleb128 0x16
 7567 0020 00       		.byte	0
 7568 0021 03       		.uleb128 0x3
 7569 0022 0E       		.uleb128 0xe
 7570 0023 3A       		.uleb128 0x3a
 7571 0024 0B       		.uleb128 0xb
 7572 0025 3B       		.uleb128 0x3b
 7573 0026 0B       		.uleb128 0xb
 7574 0027 49       		.uleb128 0x49
 7575 0028 13       		.uleb128 0x13
 7576 0029 00       		.byte	0
 7577 002a 00       		.byte	0
 7578 002b 04       		.uleb128 0x4
 7579 002c 24       		.uleb128 0x24
 7580 002d 00       		.byte	0
 7581 002e 0B       		.uleb128 0xb
 7582 002f 0B       		.uleb128 0xb
 7583 0030 3E       		.uleb128 0x3e
 7584 0031 0B       		.uleb128 0xb
 7585 0032 03       		.uleb128 0x3
 7586 0033 08       		.uleb128 0x8
 7587 0034 00       		.byte	0
 7588 0035 00       		.byte	0
 7589 0036 05       		.uleb128 0x5
 7590 0037 16       		.uleb128 0x16
 7591 0038 00       		.byte	0
 7592 0039 03       		.uleb128 0x3
 7593 003a 0E       		.uleb128 0xe
 7594 003b 3A       		.uleb128 0x3a
 7595 003c 0B       		.uleb128 0xb
 7596 003d 3B       		.uleb128 0x3b
 7597 003e 05       		.uleb128 0x5
 7598 003f 49       		.uleb128 0x49
 7599 0040 13       		.uleb128 0x13
 7600 0041 00       		.byte	0
 7601 0042 00       		.byte	0
 7602 0043 06       		.uleb128 0x6
 7603 0044 13       		.uleb128 0x13
 7604 0045 01       		.byte	0x1
 7605 0046 03       		.uleb128 0x3
 7606 0047 0E       		.uleb128 0xe
 7607 0048 0B       		.uleb128 0xb
 7608 0049 0B       		.uleb128 0xb
 7609 004a 3A       		.uleb128 0x3a
 7610 004b 0B       		.uleb128 0xb
 7611 004c 3B       		.uleb128 0x3b
 7612 004d 0B       		.uleb128 0xb
 7613 004e 01       		.uleb128 0x1
 7614 004f 13       		.uleb128 0x13
 7615 0050 00       		.byte	0
 7616 0051 00       		.byte	0
ARM GAS  C:\Users\EVGENY~1\AppData\Local\Temp\ccpzgcQX.s 			page 156


 7617 0052 07       		.uleb128 0x7
 7618 0053 0D       		.uleb128 0xd
 7619 0054 00       		.byte	0
 7620 0055 03       		.uleb128 0x3
 7621 0056 08       		.uleb128 0x8
 7622 0057 3A       		.uleb128 0x3a
 7623 0058 0B       		.uleb128 0xb
 7624 0059 3B       		.uleb128 0x3b
 7625 005a 0B       		.uleb128 0xb
 7626 005b 49       		.uleb128 0x49
 7627 005c 13       		.uleb128 0x13
 7628 005d 38       		.uleb128 0x38
 7629 005e 0B       		.uleb128 0xb
 7630 005f 00       		.byte	0
 7631 0060 00       		.byte	0
 7632 0061 08       		.uleb128 0x8
 7633 0062 2E       		.uleb128 0x2e
 7634 0063 01       		.byte	0x1
 7635 0064 3F       		.uleb128 0x3f
 7636 0065 19       		.uleb128 0x19
 7637 0066 03       		.uleb128 0x3
 7638 0067 0E       		.uleb128 0xe
 7639 0068 3A       		.uleb128 0x3a
 7640 0069 0B       		.uleb128 0xb
 7641 006a 3B       		.uleb128 0x3b
 7642 006b 0B       		.uleb128 0xb
 7643 006c 27       		.uleb128 0x27
 7644 006d 19       		.uleb128 0x19
 7645 006e 11       		.uleb128 0x11
 7646 006f 01       		.uleb128 0x1
 7647 0070 12       		.uleb128 0x12
 7648 0071 06       		.uleb128 0x6
 7649 0072 40       		.uleb128 0x40
 7650 0073 18       		.uleb128 0x18
 7651 0074 9742     		.uleb128 0x2117
 7652 0076 19       		.uleb128 0x19
 7653 0077 01       		.uleb128 0x1
 7654 0078 13       		.uleb128 0x13
 7655 0079 00       		.byte	0
 7656 007a 00       		.byte	0
 7657 007b 09       		.uleb128 0x9
 7658 007c 0B       		.uleb128 0xb
 7659 007d 01       		.byte	0x1
 7660 007e 11       		.uleb128 0x11
 7661 007f 01       		.uleb128 0x1
 7662 0080 12       		.uleb128 0x12
 7663 0081 06       		.uleb128 0x6
 7664 0082 01       		.uleb128 0x1
 7665 0083 13       		.uleb128 0x13
 7666 0084 00       		.byte	0
 7667 0085 00       		.byte	0
 7668 0086 0A       		.uleb128 0xa
 7669 0087 34       		.uleb128 0x34
 7670 0088 00       		.byte	0
 7671 0089 03       		.uleb128 0x3
 7672 008a 08       		.uleb128 0x8
 7673 008b 3A       		.uleb128 0x3a
ARM GAS  C:\Users\EVGENY~1\AppData\Local\Temp\ccpzgcQX.s 			page 157


 7674 008c 0B       		.uleb128 0xb
 7675 008d 3B       		.uleb128 0x3b
 7676 008e 0B       		.uleb128 0xb
 7677 008f 49       		.uleb128 0x49
 7678 0090 13       		.uleb128 0x13
 7679 0091 02       		.uleb128 0x2
 7680 0092 17       		.uleb128 0x17
 7681 0093 00       		.byte	0
 7682 0094 00       		.byte	0
 7683 0095 0B       		.uleb128 0xb
 7684 0096 898201   		.uleb128 0x4109
 7685 0099 01       		.byte	0x1
 7686 009a 11       		.uleb128 0x11
 7687 009b 01       		.uleb128 0x1
 7688 009c 31       		.uleb128 0x31
 7689 009d 13       		.uleb128 0x13
 7690 009e 01       		.uleb128 0x1
 7691 009f 13       		.uleb128 0x13
 7692 00a0 00       		.byte	0
 7693 00a1 00       		.byte	0
 7694 00a2 0C       		.uleb128 0xc
 7695 00a3 8A8201   		.uleb128 0x410a
 7696 00a6 00       		.byte	0
 7697 00a7 02       		.uleb128 0x2
 7698 00a8 18       		.uleb128 0x18
 7699 00a9 9142     		.uleb128 0x2111
 7700 00ab 18       		.uleb128 0x18
 7701 00ac 00       		.byte	0
 7702 00ad 00       		.byte	0
 7703 00ae 0D       		.uleb128 0xd
 7704 00af 898201   		.uleb128 0x4109
 7705 00b2 00       		.byte	0
 7706 00b3 11       		.uleb128 0x11
 7707 00b4 01       		.uleb128 0x1
 7708 00b5 31       		.uleb128 0x31
 7709 00b6 13       		.uleb128 0x13
 7710 00b7 00       		.byte	0
 7711 00b8 00       		.byte	0
 7712 00b9 0E       		.uleb128 0xe
 7713 00ba 2E       		.uleb128 0x2e
 7714 00bb 01       		.byte	0x1
 7715 00bc 3F       		.uleb128 0x3f
 7716 00bd 19       		.uleb128 0x19
 7717 00be 03       		.uleb128 0x3
 7718 00bf 0E       		.uleb128 0xe
 7719 00c0 3A       		.uleb128 0x3a
 7720 00c1 0B       		.uleb128 0xb
 7721 00c2 3B       		.uleb128 0x3b
 7722 00c3 0B       		.uleb128 0xb
 7723 00c4 27       		.uleb128 0x27
 7724 00c5 19       		.uleb128 0x19
 7725 00c6 8701     		.uleb128 0x87
 7726 00c8 19       		.uleb128 0x19
 7727 00c9 11       		.uleb128 0x11
 7728 00ca 01       		.uleb128 0x1
 7729 00cb 12       		.uleb128 0x12
 7730 00cc 06       		.uleb128 0x6
ARM GAS  C:\Users\EVGENY~1\AppData\Local\Temp\ccpzgcQX.s 			page 158


 7731 00cd 40       		.uleb128 0x40
 7732 00ce 18       		.uleb128 0x18
 7733 00cf 9742     		.uleb128 0x2117
 7734 00d1 19       		.uleb128 0x19
 7735 00d2 01       		.uleb128 0x1
 7736 00d3 13       		.uleb128 0x13
 7737 00d4 00       		.byte	0
 7738 00d5 00       		.byte	0
 7739 00d6 0F       		.uleb128 0xf
 7740 00d7 34       		.uleb128 0x34
 7741 00d8 00       		.byte	0
 7742 00d9 03       		.uleb128 0x3
 7743 00da 0E       		.uleb128 0xe
 7744 00db 3A       		.uleb128 0x3a
 7745 00dc 0B       		.uleb128 0xb
 7746 00dd 3B       		.uleb128 0x3b
 7747 00de 0B       		.uleb128 0xb
 7748 00df 49       		.uleb128 0x49
 7749 00e0 13       		.uleb128 0x13
 7750 00e1 02       		.uleb128 0x2
 7751 00e2 17       		.uleb128 0x17
 7752 00e3 00       		.byte	0
 7753 00e4 00       		.byte	0
 7754 00e5 10       		.uleb128 0x10
 7755 00e6 898201   		.uleb128 0x4109
 7756 00e9 01       		.byte	0x1
 7757 00ea 11       		.uleb128 0x11
 7758 00eb 01       		.uleb128 0x1
 7759 00ec 31       		.uleb128 0x31
 7760 00ed 13       		.uleb128 0x13
 7761 00ee 00       		.byte	0
 7762 00ef 00       		.byte	0
 7763 00f0 11       		.uleb128 0x11
 7764 00f1 2E       		.uleb128 0x2e
 7765 00f2 01       		.byte	0x1
 7766 00f3 3F       		.uleb128 0x3f
 7767 00f4 19       		.uleb128 0x19
 7768 00f5 03       		.uleb128 0x3
 7769 00f6 0E       		.uleb128 0xe
 7770 00f7 3A       		.uleb128 0x3a
 7771 00f8 0B       		.uleb128 0xb
 7772 00f9 3B       		.uleb128 0x3b
 7773 00fa 05       		.uleb128 0x5
 7774 00fb 27       		.uleb128 0x27
 7775 00fc 19       		.uleb128 0x19
 7776 00fd 49       		.uleb128 0x49
 7777 00fe 13       		.uleb128 0x13
 7778 00ff 11       		.uleb128 0x11
 7779 0100 01       		.uleb128 0x1
 7780 0101 12       		.uleb128 0x12
 7781 0102 06       		.uleb128 0x6
 7782 0103 40       		.uleb128 0x40
 7783 0104 18       		.uleb128 0x18
 7784 0105 9742     		.uleb128 0x2117
 7785 0107 19       		.uleb128 0x19
 7786 0108 01       		.uleb128 0x1
 7787 0109 13       		.uleb128 0x13
ARM GAS  C:\Users\EVGENY~1\AppData\Local\Temp\ccpzgcQX.s 			page 159


 7788 010a 00       		.byte	0
 7789 010b 00       		.byte	0
 7790 010c 12       		.uleb128 0x12
 7791 010d 05       		.uleb128 0x5
 7792 010e 00       		.byte	0
 7793 010f 03       		.uleb128 0x3
 7794 0110 08       		.uleb128 0x8
 7795 0111 3A       		.uleb128 0x3a
 7796 0112 0B       		.uleb128 0xb
 7797 0113 3B       		.uleb128 0x3b
 7798 0114 05       		.uleb128 0x5
 7799 0115 49       		.uleb128 0x49
 7800 0116 13       		.uleb128 0x13
 7801 0117 02       		.uleb128 0x2
 7802 0118 17       		.uleb128 0x17
 7803 0119 00       		.byte	0
 7804 011a 00       		.byte	0
 7805 011b 13       		.uleb128 0x13
 7806 011c 0F       		.uleb128 0xf
 7807 011d 00       		.byte	0
 7808 011e 0B       		.uleb128 0xb
 7809 011f 0B       		.uleb128 0xb
 7810 0120 49       		.uleb128 0x49
 7811 0121 13       		.uleb128 0x13
 7812 0122 00       		.byte	0
 7813 0123 00       		.byte	0
 7814 0124 14       		.uleb128 0x14
 7815 0125 2E       		.uleb128 0x2e
 7816 0126 01       		.byte	0x1
 7817 0127 3F       		.uleb128 0x3f
 7818 0128 19       		.uleb128 0x19
 7819 0129 03       		.uleb128 0x3
 7820 012a 0E       		.uleb128 0xe
 7821 012b 3A       		.uleb128 0x3a
 7822 012c 0B       		.uleb128 0xb
 7823 012d 3B       		.uleb128 0x3b
 7824 012e 05       		.uleb128 0x5
 7825 012f 27       		.uleb128 0x27
 7826 0130 19       		.uleb128 0x19
 7827 0131 8701     		.uleb128 0x87
 7828 0133 19       		.uleb128 0x19
 7829 0134 11       		.uleb128 0x11
 7830 0135 01       		.uleb128 0x1
 7831 0136 12       		.uleb128 0x12
 7832 0137 06       		.uleb128 0x6
 7833 0138 40       		.uleb128 0x40
 7834 0139 18       		.uleb128 0x18
 7835 013a 9742     		.uleb128 0x2117
 7836 013c 19       		.uleb128 0x19
 7837 013d 01       		.uleb128 0x1
 7838 013e 13       		.uleb128 0x13
 7839 013f 00       		.byte	0
 7840 0140 00       		.byte	0
 7841 0141 15       		.uleb128 0x15
 7842 0142 05       		.uleb128 0x5
 7843 0143 00       		.byte	0
 7844 0144 03       		.uleb128 0x3
ARM GAS  C:\Users\EVGENY~1\AppData\Local\Temp\ccpzgcQX.s 			page 160


 7845 0145 0E       		.uleb128 0xe
 7846 0146 3A       		.uleb128 0x3a
 7847 0147 0B       		.uleb128 0xb
 7848 0148 3B       		.uleb128 0x3b
 7849 0149 05       		.uleb128 0x5
 7850 014a 49       		.uleb128 0x49
 7851 014b 13       		.uleb128 0x13
 7852 014c 02       		.uleb128 0x2
 7853 014d 17       		.uleb128 0x17
 7854 014e 00       		.byte	0
 7855 014f 00       		.byte	0
 7856 0150 16       		.uleb128 0x16
 7857 0151 34       		.uleb128 0x34
 7858 0152 00       		.byte	0
 7859 0153 03       		.uleb128 0x3
 7860 0154 08       		.uleb128 0x8
 7861 0155 3A       		.uleb128 0x3a
 7862 0156 0B       		.uleb128 0xb
 7863 0157 3B       		.uleb128 0x3b
 7864 0158 05       		.uleb128 0x5
 7865 0159 49       		.uleb128 0x49
 7866 015a 13       		.uleb128 0x13
 7867 015b 02       		.uleb128 0x2
 7868 015c 17       		.uleb128 0x17
 7869 015d 00       		.byte	0
 7870 015e 00       		.byte	0
 7871 015f 17       		.uleb128 0x17
 7872 0160 2E       		.uleb128 0x2e
 7873 0161 01       		.byte	0x1
 7874 0162 3F       		.uleb128 0x3f
 7875 0163 19       		.uleb128 0x19
 7876 0164 03       		.uleb128 0x3
 7877 0165 0E       		.uleb128 0xe
 7878 0166 3A       		.uleb128 0x3a
 7879 0167 0B       		.uleb128 0xb
 7880 0168 3B       		.uleb128 0x3b
 7881 0169 05       		.uleb128 0x5
 7882 016a 27       		.uleb128 0x27
 7883 016b 19       		.uleb128 0x19
 7884 016c 11       		.uleb128 0x11
 7885 016d 01       		.uleb128 0x1
 7886 016e 12       		.uleb128 0x12
 7887 016f 06       		.uleb128 0x6
 7888 0170 40       		.uleb128 0x40
 7889 0171 18       		.uleb128 0x18
 7890 0172 9742     		.uleb128 0x2117
 7891 0174 19       		.uleb128 0x19
 7892 0175 01       		.uleb128 0x1
 7893 0176 13       		.uleb128 0x13
 7894 0177 00       		.byte	0
 7895 0178 00       		.byte	0
 7896 0179 18       		.uleb128 0x18
 7897 017a 34       		.uleb128 0x34
 7898 017b 00       		.byte	0
 7899 017c 03       		.uleb128 0x3
 7900 017d 0E       		.uleb128 0xe
 7901 017e 3A       		.uleb128 0x3a
ARM GAS  C:\Users\EVGENY~1\AppData\Local\Temp\ccpzgcQX.s 			page 161


 7902 017f 0B       		.uleb128 0xb
 7903 0180 3B       		.uleb128 0x3b
 7904 0181 05       		.uleb128 0x5
 7905 0182 49       		.uleb128 0x49
 7906 0183 13       		.uleb128 0x13
 7907 0184 02       		.uleb128 0x2
 7908 0185 17       		.uleb128 0x17
 7909 0186 00       		.byte	0
 7910 0187 00       		.byte	0
 7911 0188 19       		.uleb128 0x19
 7912 0189 2E       		.uleb128 0x2e
 7913 018a 01       		.byte	0x1
 7914 018b 3F       		.uleb128 0x3f
 7915 018c 19       		.uleb128 0x19
 7916 018d 03       		.uleb128 0x3
 7917 018e 08       		.uleb128 0x8
 7918 018f 3A       		.uleb128 0x3a
 7919 0190 0B       		.uleb128 0xb
 7920 0191 3B       		.uleb128 0x3b
 7921 0192 05       		.uleb128 0x5
 7922 0193 27       		.uleb128 0x27
 7923 0194 19       		.uleb128 0x19
 7924 0195 11       		.uleb128 0x11
 7925 0196 01       		.uleb128 0x1
 7926 0197 12       		.uleb128 0x12
 7927 0198 06       		.uleb128 0x6
 7928 0199 40       		.uleb128 0x40
 7929 019a 18       		.uleb128 0x18
 7930 019b 9742     		.uleb128 0x2117
 7931 019d 19       		.uleb128 0x19
 7932 019e 01       		.uleb128 0x1
 7933 019f 13       		.uleb128 0x13
 7934 01a0 00       		.byte	0
 7935 01a1 00       		.byte	0
 7936 01a2 1A       		.uleb128 0x1a
 7937 01a3 05       		.uleb128 0x5
 7938 01a4 00       		.byte	0
 7939 01a5 03       		.uleb128 0x3
 7940 01a6 08       		.uleb128 0x8
 7941 01a7 3A       		.uleb128 0x3a
 7942 01a8 0B       		.uleb128 0xb
 7943 01a9 3B       		.uleb128 0x3b
 7944 01aa 05       		.uleb128 0x5
 7945 01ab 49       		.uleb128 0x49
 7946 01ac 13       		.uleb128 0x13
 7947 01ad 02       		.uleb128 0x2
 7948 01ae 18       		.uleb128 0x18
 7949 01af 00       		.byte	0
 7950 01b0 00       		.byte	0
 7951 01b1 1B       		.uleb128 0x1b
 7952 01b2 34       		.uleb128 0x34
 7953 01b3 00       		.byte	0
 7954 01b4 03       		.uleb128 0x3
 7955 01b5 08       		.uleb128 0x8
 7956 01b6 3A       		.uleb128 0x3a
 7957 01b7 0B       		.uleb128 0xb
 7958 01b8 3B       		.uleb128 0x3b
ARM GAS  C:\Users\EVGENY~1\AppData\Local\Temp\ccpzgcQX.s 			page 162


 7959 01b9 05       		.uleb128 0x5
 7960 01ba 49       		.uleb128 0x49
 7961 01bb 13       		.uleb128 0x13
 7962 01bc 02       		.uleb128 0x2
 7963 01bd 18       		.uleb128 0x18
 7964 01be 00       		.byte	0
 7965 01bf 00       		.byte	0
 7966 01c0 1C       		.uleb128 0x1c
 7967 01c1 34       		.uleb128 0x34
 7968 01c2 00       		.byte	0
 7969 01c3 03       		.uleb128 0x3
 7970 01c4 0E       		.uleb128 0xe
 7971 01c5 3A       		.uleb128 0x3a
 7972 01c6 0B       		.uleb128 0xb
 7973 01c7 3B       		.uleb128 0x3b
 7974 01c8 05       		.uleb128 0x5
 7975 01c9 49       		.uleb128 0x49
 7976 01ca 13       		.uleb128 0x13
 7977 01cb 1C       		.uleb128 0x1c
 7978 01cc 0B       		.uleb128 0xb
 7979 01cd 00       		.byte	0
 7980 01ce 00       		.byte	0
 7981 01cf 1D       		.uleb128 0x1d
 7982 01d0 34       		.uleb128 0x34
 7983 01d1 00       		.byte	0
 7984 01d2 03       		.uleb128 0x3
 7985 01d3 08       		.uleb128 0x8
 7986 01d4 3A       		.uleb128 0x3a
 7987 01d5 0B       		.uleb128 0xb
 7988 01d6 3B       		.uleb128 0x3b
 7989 01d7 0B       		.uleb128 0xb
 7990 01d8 49       		.uleb128 0x49
 7991 01d9 13       		.uleb128 0x13
 7992 01da 02       		.uleb128 0x2
 7993 01db 18       		.uleb128 0x18
 7994 01dc 00       		.byte	0
 7995 01dd 00       		.byte	0
 7996 01de 1E       		.uleb128 0x1e
 7997 01df 34       		.uleb128 0x34
 7998 01e0 00       		.byte	0
 7999 01e1 03       		.uleb128 0x3
 8000 01e2 0E       		.uleb128 0xe
 8001 01e3 3A       		.uleb128 0x3a
 8002 01e4 0B       		.uleb128 0xb
 8003 01e5 3B       		.uleb128 0x3b
 8004 01e6 05       		.uleb128 0x5
 8005 01e7 49       		.uleb128 0x49
 8006 01e8 13       		.uleb128 0x13
 8007 01e9 1C       		.uleb128 0x1c
 8008 01ea 0D       		.uleb128 0xd
 8009 01eb 00       		.byte	0
 8010 01ec 00       		.byte	0
 8011 01ed 1F       		.uleb128 0x1f
 8012 01ee 34       		.uleb128 0x34
 8013 01ef 00       		.byte	0
 8014 01f0 03       		.uleb128 0x3
 8015 01f1 0E       		.uleb128 0xe
ARM GAS  C:\Users\EVGENY~1\AppData\Local\Temp\ccpzgcQX.s 			page 163


 8016 01f2 3A       		.uleb128 0x3a
 8017 01f3 0B       		.uleb128 0xb
 8018 01f4 3B       		.uleb128 0x3b
 8019 01f5 05       		.uleb128 0x5
 8020 01f6 49       		.uleb128 0x49
 8021 01f7 13       		.uleb128 0x13
 8022 01f8 3F       		.uleb128 0x3f
 8023 01f9 19       		.uleb128 0x19
 8024 01fa 3C       		.uleb128 0x3c
 8025 01fb 19       		.uleb128 0x19
 8026 01fc 00       		.byte	0
 8027 01fd 00       		.byte	0
 8028 01fe 20       		.uleb128 0x20
 8029 01ff 35       		.uleb128 0x35
 8030 0200 00       		.byte	0
 8031 0201 49       		.uleb128 0x49
 8032 0202 13       		.uleb128 0x13
 8033 0203 00       		.byte	0
 8034 0204 00       		.byte	0
 8035 0205 21       		.uleb128 0x21
 8036 0206 2E       		.uleb128 0x2e
 8037 0207 00       		.byte	0
 8038 0208 3F       		.uleb128 0x3f
 8039 0209 19       		.uleb128 0x19
 8040 020a 3C       		.uleb128 0x3c
 8041 020b 19       		.uleb128 0x19
 8042 020c 6E       		.uleb128 0x6e
 8043 020d 0E       		.uleb128 0xe
 8044 020e 03       		.uleb128 0x3
 8045 020f 0E       		.uleb128 0xe
 8046 0210 3A       		.uleb128 0x3a
 8047 0211 0B       		.uleb128 0xb
 8048 0212 3B       		.uleb128 0x3b
 8049 0213 0B       		.uleb128 0xb
 8050 0214 00       		.byte	0
 8051 0215 00       		.byte	0
 8052 0216 22       		.uleb128 0x22
 8053 0217 2E       		.uleb128 0x2e
 8054 0218 00       		.byte	0
 8055 0219 3F       		.uleb128 0x3f
 8056 021a 19       		.uleb128 0x19
 8057 021b 3C       		.uleb128 0x3c
 8058 021c 19       		.uleb128 0x19
 8059 021d 6E       		.uleb128 0x6e
 8060 021e 0E       		.uleb128 0xe
 8061 021f 03       		.uleb128 0x3
 8062 0220 0E       		.uleb128 0xe
 8063 0221 3A       		.uleb128 0x3a
 8064 0222 0B       		.uleb128 0xb
 8065 0223 3B       		.uleb128 0x3b
 8066 0224 05       		.uleb128 0x5
 8067 0225 00       		.byte	0
 8068 0226 00       		.byte	0
 8069 0227 23       		.uleb128 0x23
 8070 0228 2E       		.uleb128 0x2e
 8071 0229 00       		.byte	0
 8072 022a 3F       		.uleb128 0x3f
ARM GAS  C:\Users\EVGENY~1\AppData\Local\Temp\ccpzgcQX.s 			page 164


 8073 022b 19       		.uleb128 0x19
 8074 022c 3C       		.uleb128 0x3c
 8075 022d 19       		.uleb128 0x19
 8076 022e 6E       		.uleb128 0x6e
 8077 022f 0E       		.uleb128 0xe
 8078 0230 03       		.uleb128 0x3
 8079 0231 0E       		.uleb128 0xe
 8080 0232 3A       		.uleb128 0x3a
 8081 0233 0B       		.uleb128 0xb
 8082 0234 3B       		.uleb128 0x3b
 8083 0235 0B       		.uleb128 0xb
 8084 0236 6E       		.uleb128 0x6e
 8085 0237 0E       		.uleb128 0xe
 8086 0238 00       		.byte	0
 8087 0239 00       		.byte	0
 8088 023a 00       		.byte	0
 8089              		.section	.debug_loc,"",%progbits
 8090              	.Ldebug_loc0:
 8091              	.LLST0:
 8092 0000 2E000000 		.4byte	.LVL8
 8093 0004 32000000 		.4byte	.LVL9
 8094 0008 0100     		.2byte	0x1
 8095 000a 50       		.byte	0x50
 8096 000b 32000000 		.4byte	.LVL9
 8097 000f 35000000 		.4byte	.LVL10-1
 8098 0013 0100     		.2byte	0x1
 8099 0015 51       		.byte	0x51
 8100 0016 35000000 		.4byte	.LVL10-1
 8101 001a 72000000 		.4byte	.LVL18
 8102 001e 0100     		.2byte	0x1
 8103 0020 54       		.byte	0x54
 8104 0021 00000000 		.4byte	0
 8105 0025 00000000 		.4byte	0
 8106              	.LLST1:
 8107 0029 04000000 		.4byte	.LVL19
 8108 002d 10000000 		.4byte	.LVL21
 8109 0031 0200     		.2byte	0x2
 8110 0033 30       		.byte	0x30
 8111 0034 9F       		.byte	0x9f
 8112 0035 2A000000 		.4byte	.LVL27
 8113 0039 2E000000 		.4byte	.LVL29
 8114 003d 0100     		.2byte	0x1
 8115 003f 50       		.byte	0x50
 8116 0040 00000000 		.4byte	0
 8117 0044 00000000 		.4byte	0
 8118              	.LLST2:
 8119 0048 04000000 		.4byte	.LVL19
 8120 004c 10000000 		.4byte	.LVL21
 8121 0050 0200     		.2byte	0x2
 8122 0052 30       		.byte	0x30
 8123 0053 9F       		.byte	0x9f
 8124 0054 16000000 		.4byte	.LVL23
 8125 0058 18000000 		.4byte	.LVL24
 8126 005c 0100     		.2byte	0x1
 8127 005e 50       		.byte	0x50
 8128 005f 18000000 		.4byte	.LVL24
 8129 0063 2C000000 		.4byte	.LVL28
ARM GAS  C:\Users\EVGENY~1\AppData\Local\Temp\ccpzgcQX.s 			page 165


 8130 0067 0100     		.2byte	0x1
 8131 0069 54       		.byte	0x54
 8132 006a 00000000 		.4byte	0
 8133 006e 00000000 		.4byte	0
 8134              	.LLST3:
 8135 0072 04000000 		.4byte	.LVL19
 8136 0076 10000000 		.4byte	.LVL21
 8137 007a 0200     		.2byte	0x2
 8138 007c 30       		.byte	0x30
 8139 007d 9F       		.byte	0x9f
 8140 007e 2C000000 		.4byte	.LVL28
 8141 0082 A0000000 		.4byte	.LFE91
 8142 0086 0100     		.2byte	0x1
 8143 0088 54       		.byte	0x54
 8144 0089 00000000 		.4byte	0
 8145 008d 00000000 		.4byte	0
 8146              	.LLST4:
 8147 0091 00000000 		.4byte	.LVL33
 8148 0095 07000000 		.4byte	.LVL34-1
 8149 0099 0100     		.2byte	0x1
 8150 009b 50       		.byte	0x50
 8151 009c 07000000 		.4byte	.LVL34-1
 8152 00a0 1E000000 		.4byte	.LFE99
 8153 00a4 0100     		.2byte	0x1
 8154 00a6 54       		.byte	0x54
 8155 00a7 00000000 		.4byte	0
 8156 00ab 00000000 		.4byte	0
 8157              	.LLST5:
 8158 00af 00000000 		.4byte	.LVL37
 8159 00b3 06000000 		.4byte	.LVL39
 8160 00b7 0100     		.2byte	0x1
 8161 00b9 50       		.byte	0x50
 8162 00ba 06000000 		.4byte	.LVL39
 8163 00be 18000000 		.4byte	.LFE100
 8164 00c2 0100     		.2byte	0x1
 8165 00c4 55       		.byte	0x55
 8166 00c5 00000000 		.4byte	0
 8167 00c9 00000000 		.4byte	0
 8168              	.LLST6:
 8169 00cd 04000000 		.4byte	.LVL38
 8170 00d1 06000000 		.4byte	.LVL39
 8171 00d5 0200     		.2byte	0x2
 8172 00d7 30       		.byte	0x30
 8173 00d8 9F       		.byte	0x9f
 8174 00d9 06000000 		.4byte	.LVL39
 8175 00dd 18000000 		.4byte	.LFE100
 8176 00e1 0100     		.2byte	0x1
 8177 00e3 54       		.byte	0x54
 8178 00e4 00000000 		.4byte	0
 8179 00e8 00000000 		.4byte	0
 8180              	.LLST7:
 8181 00ec 00000000 		.4byte	.LVL43
 8182 00f0 0E000000 		.4byte	.LVL45
 8183 00f4 0100     		.2byte	0x1
 8184 00f6 50       		.byte	0x50
 8185 00f7 0E000000 		.4byte	.LVL45
 8186 00fb 18000000 		.4byte	.LFE101
ARM GAS  C:\Users\EVGENY~1\AppData\Local\Temp\ccpzgcQX.s 			page 166


 8187 00ff 0400     		.2byte	0x4
 8188 0101 F3       		.byte	0xf3
 8189 0102 01       		.uleb128 0x1
 8190 0103 50       		.byte	0x50
 8191 0104 9F       		.byte	0x9f
 8192 0105 00000000 		.4byte	0
 8193 0109 00000000 		.4byte	0
 8194              	.LLST8:
 8195 010d 00000000 		.4byte	.LVL43
 8196 0111 0C000000 		.4byte	.LVL44
 8197 0115 0100     		.2byte	0x1
 8198 0117 51       		.byte	0x51
 8199 0118 0C000000 		.4byte	.LVL44
 8200 011c 11000000 		.4byte	.LVL46-1
 8201 0120 0200     		.2byte	0x2
 8202 0122 7D       		.byte	0x7d
 8203 0123 00       		.sleb128 0
 8204 0124 11000000 		.4byte	.LVL46-1
 8205 0128 18000000 		.4byte	.LFE101
 8206 012c 0400     		.2byte	0x4
 8207 012e F3       		.byte	0xf3
 8208 012f 01       		.uleb128 0x1
 8209 0130 51       		.byte	0x51
 8210 0131 9F       		.byte	0x9f
 8211 0132 00000000 		.4byte	0
 8212 0136 00000000 		.4byte	0
 8213              	.LLST9:
 8214 013a 00000000 		.4byte	.LVL47
 8215 013e 0E000000 		.4byte	.LVL49
 8216 0142 0100     		.2byte	0x1
 8217 0144 50       		.byte	0x50
 8218 0145 0E000000 		.4byte	.LVL49
 8219 0149 18000000 		.4byte	.LFE102
 8220 014d 0400     		.2byte	0x4
 8221 014f F3       		.byte	0xf3
 8222 0150 01       		.uleb128 0x1
 8223 0151 50       		.byte	0x50
 8224 0152 9F       		.byte	0x9f
 8225 0153 00000000 		.4byte	0
 8226 0157 00000000 		.4byte	0
 8227              	.LLST10:
 8228 015b 00000000 		.4byte	.LVL47
 8229 015f 0C000000 		.4byte	.LVL48
 8230 0163 0100     		.2byte	0x1
 8231 0165 51       		.byte	0x51
 8232 0166 0C000000 		.4byte	.LVL48
 8233 016a 11000000 		.4byte	.LVL50-1
 8234 016e 0200     		.2byte	0x2
 8235 0170 7D       		.byte	0x7d
 8236 0171 00       		.sleb128 0
 8237 0172 11000000 		.4byte	.LVL50-1
 8238 0176 18000000 		.4byte	.LFE102
 8239 017a 0400     		.2byte	0x4
 8240 017c F3       		.byte	0xf3
 8241 017d 01       		.uleb128 0x1
 8242 017e 51       		.byte	0x51
 8243 017f 9F       		.byte	0x9f
ARM GAS  C:\Users\EVGENY~1\AppData\Local\Temp\ccpzgcQX.s 			page 167


 8244 0180 00000000 		.4byte	0
 8245 0184 00000000 		.4byte	0
 8246              	.LLST11:
 8247 0188 00000000 		.4byte	.LVL65
 8248 018c 09000000 		.4byte	.LVL66-1
 8249 0190 0100     		.2byte	0x1
 8250 0192 50       		.byte	0x50
 8251 0193 09000000 		.4byte	.LVL66-1
 8252 0197 22000000 		.4byte	.LFE103
 8253 019b 0100     		.2byte	0x1
 8254 019d 55       		.byte	0x55
 8255 019e 00000000 		.4byte	0
 8256 01a2 00000000 		.4byte	0
 8257              	.LLST12:
 8258 01a6 00000000 		.4byte	.LVL65
 8259 01aa 09000000 		.4byte	.LVL66-1
 8260 01ae 0100     		.2byte	0x1
 8261 01b0 51       		.byte	0x51
 8262 01b1 09000000 		.4byte	.LVL66-1
 8263 01b5 14000000 		.4byte	.LVL69
 8264 01b9 0100     		.2byte	0x1
 8265 01bb 54       		.byte	0x54
 8266 01bc 14000000 		.4byte	.LVL69
 8267 01c0 22000000 		.4byte	.LFE103
 8268 01c4 0400     		.2byte	0x4
 8269 01c6 F3       		.byte	0xf3
 8270 01c7 01       		.uleb128 0x1
 8271 01c8 51       		.byte	0x51
 8272 01c9 9F       		.byte	0x9f
 8273 01ca 00000000 		.4byte	0
 8274 01ce 00000000 		.4byte	0
 8275              	.LLST13:
 8276 01d2 1E000000 		.4byte	.LVL70
 8277 01d6 20000000 		.4byte	.LVL71
 8278 01da 0600     		.2byte	0x6
 8279 01dc 75       		.byte	0x75
 8280 01dd 00       		.sleb128 0
 8281 01de 70       		.byte	0x70
 8282 01df 00       		.sleb128 0
 8283 01e0 22       		.byte	0x22
 8284 01e1 9F       		.byte	0x9f
 8285 01e2 20000000 		.4byte	.LVL71
 8286 01e6 22000000 		.4byte	.LFE103
 8287 01ea 0100     		.2byte	0x1
 8288 01ec 50       		.byte	0x50
 8289 01ed 00000000 		.4byte	0
 8290 01f1 00000000 		.4byte	0
 8291              	.LLST14:
 8292 01f5 2E000000 		.4byte	.LVL80
 8293 01f9 30000000 		.4byte	.LVL81
 8294 01fd 0100     		.2byte	0x1
 8295 01ff 50       		.byte	0x50
 8296 0200 30000000 		.4byte	.LVL81
 8297 0204 9E000000 		.4byte	.LVL95
 8298 0208 0100     		.2byte	0x1
 8299 020a 55       		.byte	0x55
 8300 020b 00000000 		.4byte	0
ARM GAS  C:\Users\EVGENY~1\AppData\Local\Temp\ccpzgcQX.s 			page 168


 8301 020f 00000000 		.4byte	0
 8302              	.LLST15:
 8303 0213 40000000 		.4byte	.LVL84
 8304 0217 48000000 		.4byte	.LVL85
 8305 021b 0100     		.2byte	0x1
 8306 021d 50       		.byte	0x50
 8307 021e 48000000 		.4byte	.LVL85
 8308 0222 9E000000 		.4byte	.LVL95
 8309 0226 0100     		.2byte	0x1
 8310 0228 54       		.byte	0x54
 8311 0229 00000000 		.4byte	0
 8312 022d 00000000 		.4byte	0
 8313              	.LLST16:
 8314 0231 00000000 		.4byte	.LVL96
 8315 0235 0A000000 		.4byte	.LVL97
 8316 0239 0100     		.2byte	0x1
 8317 023b 50       		.byte	0x50
 8318 023c 0A000000 		.4byte	.LVL97
 8319 0240 0C000000 		.4byte	.LVL98
 8320 0244 0400     		.2byte	0x4
 8321 0246 F3       		.byte	0xf3
 8322 0247 01       		.uleb128 0x1
 8323 0248 50       		.byte	0x50
 8324 0249 9F       		.byte	0x9f
 8325 024a 0C000000 		.4byte	.LVL98
 8326 024e 0E000000 		.4byte	.LVL99
 8327 0252 0100     		.2byte	0x1
 8328 0254 50       		.byte	0x50
 8329 0255 0E000000 		.4byte	.LVL99
 8330 0259 74000000 		.4byte	.LFE104
 8331 025d 0400     		.2byte	0x4
 8332 025f F3       		.byte	0xf3
 8333 0260 01       		.uleb128 0x1
 8334 0261 50       		.byte	0x50
 8335 0262 9F       		.byte	0x9f
 8336 0263 00000000 		.4byte	0
 8337 0267 00000000 		.4byte	0
 8338              	.LLST17:
 8339 026b 0E000000 		.4byte	.LVL99
 8340 026f 69000000 		.4byte	.LVL108-1
 8341 0273 0100     		.2byte	0x1
 8342 0275 50       		.byte	0x50
 8343 0276 00000000 		.4byte	0
 8344 027a 00000000 		.4byte	0
 8345              	.LLST18:
 8346 027e 12000000 		.4byte	.LVL100
 8347 0282 30000000 		.4byte	.LVL102
 8348 0286 0200     		.2byte	0x2
 8349 0288 30       		.byte	0x30
 8350 0289 9F       		.byte	0x9f
 8351 028a 30000000 		.4byte	.LVL102
 8352 028e 4A000000 		.4byte	.LVL104
 8353 0292 0200     		.2byte	0x2
 8354 0294 31       		.byte	0x31
 8355 0295 9F       		.byte	0x9f
 8356 0296 4A000000 		.4byte	.LVL104
 8357 029a 69000000 		.4byte	.LVL108-1
ARM GAS  C:\Users\EVGENY~1\AppData\Local\Temp\ccpzgcQX.s 			page 169


 8358 029e 0100     		.2byte	0x1
 8359 02a0 51       		.byte	0x51
 8360 02a1 00000000 		.4byte	0
 8361 02a5 00000000 		.4byte	0
 8362              	.LLST19:
 8363 02a9 2C000000 		.4byte	.LVL101
 8364 02ad 30000000 		.4byte	.LVL102
 8365 02b1 0100     		.2byte	0x1
 8366 02b3 52       		.byte	0x52
 8367 02b4 48000000 		.4byte	.LVL103
 8368 02b8 54000000 		.4byte	.LVL105
 8369 02bc 0100     		.2byte	0x1
 8370 02be 52       		.byte	0x52
 8371 02bf 00000000 		.4byte	0
 8372 02c3 00000000 		.4byte	0
 8373              	.LLST20:
 8374 02c7 60000000 		.4byte	.LVL106
 8375 02cb 64000000 		.4byte	.LVL107
 8376 02cf 0100     		.2byte	0x1
 8377 02d1 53       		.byte	0x53
 8378 02d2 64000000 		.4byte	.LVL107
 8379 02d6 69000000 		.4byte	.LVL108-1
 8380 02da 0200     		.2byte	0x2
 8381 02dc 7D       		.byte	0x7d
 8382 02dd 00       		.sleb128 0
 8383 02de 00000000 		.4byte	0
 8384 02e2 00000000 		.4byte	0
 8385              	.LLST21:
 8386 02e6 00000000 		.4byte	.LVL112
 8387 02ea 0A000000 		.4byte	.LVL114
 8388 02ee 0100     		.2byte	0x1
 8389 02f0 50       		.byte	0x50
 8390 02f1 0A000000 		.4byte	.LVL114
 8391 02f5 14000000 		.4byte	.LVL117
 8392 02f9 0100     		.2byte	0x1
 8393 02fb 54       		.byte	0x54
 8394 02fc 14000000 		.4byte	.LVL117
 8395 0300 48000000 		.4byte	.LFE106
 8396 0304 0400     		.2byte	0x4
 8397 0306 F3       		.byte	0xf3
 8398 0307 01       		.uleb128 0x1
 8399 0308 50       		.byte	0x50
 8400 0309 9F       		.byte	0x9f
 8401 030a 00000000 		.4byte	0
 8402 030e 00000000 		.4byte	0
 8403              	.LLST22:
 8404 0312 00000000 		.4byte	.LVL112
 8405 0316 08000000 		.4byte	.LVL113
 8406 031a 0100     		.2byte	0x1
 8407 031c 51       		.byte	0x51
 8408 031d 08000000 		.4byte	.LVL113
 8409 0321 32000000 		.4byte	.LVL120
 8410 0325 0100     		.2byte	0x1
 8411 0327 55       		.byte	0x55
 8412 0328 32000000 		.4byte	.LVL120
 8413 032c 48000000 		.4byte	.LFE106
 8414 0330 0400     		.2byte	0x4
ARM GAS  C:\Users\EVGENY~1\AppData\Local\Temp\ccpzgcQX.s 			page 170


 8415 0332 F3       		.byte	0xf3
 8416 0333 01       		.uleb128 0x1
 8417 0334 51       		.byte	0x51
 8418 0335 9F       		.byte	0x9f
 8419 0336 00000000 		.4byte	0
 8420 033a 00000000 		.4byte	0
 8421              	.LLST23:
 8422 033e 14000000 		.4byte	.LVL117
 8423 0342 32000000 		.4byte	.LVL120
 8424 0346 0100     		.2byte	0x1
 8425 0348 54       		.byte	0x54
 8426 0349 32000000 		.4byte	.LVL120
 8427 034d 48000000 		.4byte	.LFE106
 8428 0351 0800     		.2byte	0x8
 8429 0353 F3       		.byte	0xf3
 8430 0354 01       		.uleb128 0x1
 8431 0355 51       		.byte	0x51
 8432 0356 F3       		.byte	0xf3
 8433 0357 01       		.uleb128 0x1
 8434 0358 50       		.byte	0x50
 8435 0359 1C       		.byte	0x1c
 8436 035a 9F       		.byte	0x9f
 8437 035b 00000000 		.4byte	0
 8438 035f 00000000 		.4byte	0
 8439              	.LLST24:
 8440 0363 00000000 		.4byte	.LVL121
 8441 0367 0E000000 		.4byte	.LVL122
 8442 036b 0100     		.2byte	0x1
 8443 036d 50       		.byte	0x50
 8444 036e 0E000000 		.4byte	.LVL122
 8445 0372 66000000 		.4byte	.LVL132
 8446 0376 0100     		.2byte	0x1
 8447 0378 57       		.byte	0x57
 8448 0379 66000000 		.4byte	.LVL132
 8449 037d 6C000000 		.4byte	.LFE107
 8450 0381 0400     		.2byte	0x4
 8451 0383 F3       		.byte	0xf3
 8452 0384 01       		.uleb128 0x1
 8453 0385 50       		.byte	0x50
 8454 0386 9F       		.byte	0x9f
 8455 0387 00000000 		.4byte	0
 8456 038b 00000000 		.4byte	0
 8457              	.LLST25:
 8458 038f 00000000 		.4byte	.LVL121
 8459 0393 11000000 		.4byte	.LVL123-1
 8460 0397 0100     		.2byte	0x1
 8461 0399 51       		.byte	0x51
 8462 039a 11000000 		.4byte	.LVL123-1
 8463 039e 66000000 		.4byte	.LVL132
 8464 03a2 0100     		.2byte	0x1
 8465 03a4 56       		.byte	0x56
 8466 03a5 66000000 		.4byte	.LVL132
 8467 03a9 6C000000 		.4byte	.LFE107
 8468 03ad 0400     		.2byte	0x4
 8469 03af F3       		.byte	0xf3
 8470 03b0 01       		.uleb128 0x1
 8471 03b1 51       		.byte	0x51
ARM GAS  C:\Users\EVGENY~1\AppData\Local\Temp\ccpzgcQX.s 			page 171


 8472 03b2 9F       		.byte	0x9f
 8473 03b3 00000000 		.4byte	0
 8474 03b7 00000000 		.4byte	0
 8475              	.LLST26:
 8476 03bb 00000000 		.4byte	.LVL121
 8477 03bf 11000000 		.4byte	.LVL123-1
 8478 03c3 0100     		.2byte	0x1
 8479 03c5 52       		.byte	0x52
 8480 03c6 11000000 		.4byte	.LVL123-1
 8481 03ca 66000000 		.4byte	.LVL132
 8482 03ce 0100     		.2byte	0x1
 8483 03d0 55       		.byte	0x55
 8484 03d1 66000000 		.4byte	.LVL132
 8485 03d5 6C000000 		.4byte	.LFE107
 8486 03d9 0400     		.2byte	0x4
 8487 03db F3       		.byte	0xf3
 8488 03dc 01       		.uleb128 0x1
 8489 03dd 52       		.byte	0x52
 8490 03de 9F       		.byte	0x9f
 8491 03df 00000000 		.4byte	0
 8492 03e3 00000000 		.4byte	0
 8493              	.LLST27:
 8494 03e7 00000000 		.4byte	.LVL121
 8495 03eb 11000000 		.4byte	.LVL123-1
 8496 03ef 0100     		.2byte	0x1
 8497 03f1 53       		.byte	0x53
 8498 03f2 11000000 		.4byte	.LVL123-1
 8499 03f6 66000000 		.4byte	.LVL132
 8500 03fa 0100     		.2byte	0x1
 8501 03fc 54       		.byte	0x54
 8502 03fd 66000000 		.4byte	.LVL132
 8503 0401 6C000000 		.4byte	.LFE107
 8504 0405 0400     		.2byte	0x4
 8505 0407 F3       		.byte	0xf3
 8506 0408 01       		.uleb128 0x1
 8507 0409 53       		.byte	0x53
 8508 040a 9F       		.byte	0x9f
 8509 040b 00000000 		.4byte	0
 8510 040f 00000000 		.4byte	0
 8511              	.LLST28:
 8512 0413 00000000 		.4byte	.LVL121
 8513 0417 66000000 		.4byte	.LVL132
 8514 041b 0200     		.2byte	0x2
 8515 041d 91       		.byte	0x91
 8516 041e 00       		.sleb128 0
 8517 041f 66000000 		.4byte	.LVL132
 8518 0423 6C000000 		.4byte	.LFE107
 8519 0427 0200     		.2byte	0x2
 8520 0429 7D       		.byte	0x7d
 8521 042a 00       		.sleb128 0
 8522 042b 00000000 		.4byte	0
 8523 042f 00000000 		.4byte	0
 8524              	.LLST29:
 8525 0433 00000000 		.4byte	.LVL148
 8526 0437 0A000000 		.4byte	.LVL149
 8527 043b 0100     		.2byte	0x1
 8528 043d 50       		.byte	0x50
ARM GAS  C:\Users\EVGENY~1\AppData\Local\Temp\ccpzgcQX.s 			page 172


 8529 043e 0A000000 		.4byte	.LVL149
 8530 0442 94000000 		.4byte	.LFE97
 8531 0446 0400     		.2byte	0x4
 8532 0448 F3       		.byte	0xf3
 8533 0449 01       		.uleb128 0x1
 8534 044a 50       		.byte	0x50
 8535 044b 9F       		.byte	0x9f
 8536 044c 00000000 		.4byte	0
 8537 0450 00000000 		.4byte	0
 8538              	.LLST30:
 8539 0454 00000000 		.4byte	.LVL148
 8540 0458 0D000000 		.4byte	.LVL150-1
 8541 045c 0100     		.2byte	0x1
 8542 045e 51       		.byte	0x51
 8543 045f 0D000000 		.4byte	.LVL150-1
 8544 0463 94000000 		.4byte	.LFE97
 8545 0467 0100     		.2byte	0x1
 8546 0469 55       		.byte	0x55
 8547 046a 00000000 		.4byte	0
 8548 046e 00000000 		.4byte	0
 8549              	.LLST31:
 8550 0472 04000000 		.4byte	.LVL162
 8551 0476 1C000000 		.4byte	.LVL165
 8552 047a 0200     		.2byte	0x2
 8553 047c 30       		.byte	0x30
 8554 047d 9F       		.byte	0x9f
 8555 047e 1C000000 		.4byte	.LVL165
 8556 0482 54000000 		.4byte	.LVL172
 8557 0486 0100     		.2byte	0x1
 8558 0488 54       		.byte	0x54
 8559 0489 00000000 		.4byte	0
 8560 048d 00000000 		.4byte	0
 8561              	.LLST32:
 8562 0491 04000000 		.4byte	.LVL187
 8563 0495 1C000000 		.4byte	.LVL190
 8564 0499 0200     		.2byte	0x2
 8565 049b 30       		.byte	0x30
 8566 049c 9F       		.byte	0x9f
 8567 049d 1C000000 		.4byte	.LVL190
 8568 04a1 34010000 		.4byte	.LVL205
 8569 04a5 0100     		.2byte	0x1
 8570 04a7 54       		.byte	0x54
 8571 04a8 00000000 		.4byte	0
 8572 04ac 00000000 		.4byte	0
 8573              	.LLST33:
 8574 04b0 04000000 		.4byte	.LVL206
 8575 04b4 28000000 		.4byte	.LVL212
 8576 04b8 0200     		.2byte	0x2
 8577 04ba 30       		.byte	0x30
 8578 04bb 9F       		.byte	0x9f
 8579 04bc 28000000 		.4byte	.LVL212
 8580 04c0 4C000000 		.4byte	.LVL220
 8581 04c4 0100     		.2byte	0x1
 8582 04c6 54       		.byte	0x54
 8583 04c7 00000000 		.4byte	0
 8584 04cb 00000000 		.4byte	0
 8585              	.LLST34:
ARM GAS  C:\Users\EVGENY~1\AppData\Local\Temp\ccpzgcQX.s 			page 173


 8586 04cf 04000000 		.4byte	.LVL206
 8587 04d3 26000000 		.4byte	.LVL211
 8588 04d7 0200     		.2byte	0x2
 8589 04d9 30       		.byte	0x30
 8590 04da 9F       		.byte	0x9f
 8591 04db 26000000 		.4byte	.LVL211
 8592 04df 28000000 		.4byte	.LVL212
 8593 04e3 0100     		.2byte	0x1
 8594 04e5 50       		.byte	0x50
 8595 04e6 28000000 		.4byte	.LVL212
 8596 04ea 4C000000 		.4byte	.LVL220
 8597 04ee 0100     		.2byte	0x1
 8598 04f0 55       		.byte	0x55
 8599 04f1 00000000 		.4byte	0
 8600 04f5 00000000 		.4byte	0
 8601              	.LLST35:
 8602 04f9 04000000 		.4byte	.LVL206
 8603 04fd 3A000000 		.4byte	.LVL215
 8604 0501 0200     		.2byte	0x2
 8605 0503 30       		.byte	0x30
 8606 0504 9F       		.byte	0x9f
 8607 0505 3A000000 		.4byte	.LVL215
 8608 0509 40000000 		.4byte	.LVL217
 8609 050d 0100     		.2byte	0x1
 8610 050f 50       		.byte	0x50
 8611 0510 00000000 		.4byte	0
 8612 0514 00000000 		.4byte	0
 8613              	.LLST36:
 8614 0518 04000000 		.4byte	.LVL206
 8615 051c 3A000000 		.4byte	.LVL215
 8616 0520 0200     		.2byte	0x2
 8617 0522 30       		.byte	0x30
 8618 0523 9F       		.byte	0x9f
 8619 0524 3A000000 		.4byte	.LVL215
 8620 0528 3C000000 		.4byte	.LVL216
 8621 052c 0600     		.2byte	0x6
 8622 052e 70       		.byte	0x70
 8623 052f 00       		.sleb128 0
 8624 0530 75       		.byte	0x75
 8625 0531 00       		.sleb128 0
 8626 0532 1C       		.byte	0x1c
 8627 0533 9F       		.byte	0x9f
 8628 0534 3C000000 		.4byte	.LVL216
 8629 0538 43000000 		.4byte	.LVL218-1
 8630 053c 0100     		.2byte	0x1
 8631 053e 52       		.byte	0x52
 8632 053f 00000000 		.4byte	0
 8633 0543 00000000 		.4byte	0
 8634              	.LLST37:
 8635 0547 04000000 		.4byte	.LVL221
 8636 054b 24000000 		.4byte	.LVL225
 8637 054f 0200     		.2byte	0x2
 8638 0551 30       		.byte	0x30
 8639 0552 9F       		.byte	0x9f
 8640 0553 24000000 		.4byte	.LVL225
 8641 0557 74000000 		.4byte	.LVL240
 8642 055b 0100     		.2byte	0x1
ARM GAS  C:\Users\EVGENY~1\AppData\Local\Temp\ccpzgcQX.s 			page 174


 8643 055d 54       		.byte	0x54
 8644 055e 00000000 		.4byte	0
 8645 0562 00000000 		.4byte	0
 8646              	.LLST38:
 8647 0566 04000000 		.4byte	.LVL221
 8648 056a 24000000 		.4byte	.LVL225
 8649 056e 0200     		.2byte	0x2
 8650 0570 30       		.byte	0x30
 8651 0571 9F       		.byte	0x9f
 8652 0572 24000000 		.4byte	.LVL225
 8653 0576 56000000 		.4byte	.LVL234
 8654 057a 0100     		.2byte	0x1
 8655 057c 55       		.byte	0x55
 8656 057d 56000000 		.4byte	.LVL234
 8657 0581 5C000000 		.4byte	.LVL235
 8658 0585 0100     		.2byte	0x1
 8659 0587 50       		.byte	0x50
 8660 0588 5C000000 		.4byte	.LVL235
 8661 058c 5F000000 		.4byte	.LVL236-1
 8662 0590 0100     		.2byte	0x1
 8663 0592 52       		.byte	0x52
 8664 0593 5F000000 		.4byte	.LVL236-1
 8665 0597 74000000 		.4byte	.LVL240
 8666 059b 0100     		.2byte	0x1
 8667 059d 55       		.byte	0x55
 8668 059e 00000000 		.4byte	0
 8669 05a2 00000000 		.4byte	0
 8670              	.LLST39:
 8671 05a6 04000000 		.4byte	.LVL221
 8672 05aa 68000000 		.4byte	.LVL237
 8673 05ae 0200     		.2byte	0x2
 8674 05b0 30       		.byte	0x30
 8675 05b1 9F       		.byte	0x9f
 8676 05b2 68000000 		.4byte	.LVL237
 8677 05b6 6C000000 		.4byte	.LVL238
 8678 05ba 0100     		.2byte	0x1
 8679 05bc 50       		.byte	0x50
 8680 05bd 6C000000 		.4byte	.LVL238
 8681 05c1 6F000000 		.4byte	.LVL239-1
 8682 05c5 0100     		.2byte	0x1
 8683 05c7 51       		.byte	0x51
 8684 05c8 00000000 		.4byte	0
 8685 05cc 00000000 		.4byte	0
 8686              	.LLST40:
 8687 05d0 04000000 		.4byte	.LVL241
 8688 05d4 42000000 		.4byte	.LVL251
 8689 05d8 0200     		.2byte	0x2
 8690 05da 30       		.byte	0x30
 8691 05db 9F       		.byte	0x9f
 8692 05dc 42000000 		.4byte	.LVL251
 8693 05e0 48000000 		.4byte	.LVL252
 8694 05e4 0100     		.2byte	0x1
 8695 05e6 50       		.byte	0x50
 8696 05e7 48000000 		.4byte	.LVL252
 8697 05eb 4B000000 		.4byte	.LVL253-1
 8698 05ef 0100     		.2byte	0x1
 8699 05f1 52       		.byte	0x52
ARM GAS  C:\Users\EVGENY~1\AppData\Local\Temp\ccpzgcQX.s 			page 175


 8700 05f2 4B000000 		.4byte	.LVL253-1
 8701 05f6 F6000000 		.4byte	.LVL273
 8702 05fa 0100     		.2byte	0x1
 8703 05fc 55       		.byte	0x55
 8704 05fd 00000000 		.4byte	0
 8705 0601 00000000 		.4byte	0
 8706              	.LLST41:
 8707 0605 04000000 		.4byte	.LVL241
 8708 0609 EA000000 		.4byte	.LVL270
 8709 060d 0200     		.2byte	0x2
 8710 060f 30       		.byte	0x30
 8711 0610 9F       		.byte	0x9f
 8712 0611 EA000000 		.4byte	.LVL270
 8713 0615 EE000000 		.4byte	.LVL271
 8714 0619 0100     		.2byte	0x1
 8715 061b 50       		.byte	0x50
 8716 061c EE000000 		.4byte	.LVL271
 8717 0620 F1000000 		.4byte	.LVL272-1
 8718 0624 0100     		.2byte	0x1
 8719 0626 51       		.byte	0x51
 8720 0627 00000000 		.4byte	0
 8721 062b 00000000 		.4byte	0
 8722              	.LLST42:
 8723 062f 04000000 		.4byte	.LVL241
 8724 0633 4E000000 		.4byte	.LVL254
 8725 0637 0200     		.2byte	0x2
 8726 0639 30       		.byte	0x30
 8727 063a 9F       		.byte	0x9f
 8728 063b 64000000 		.4byte	.LVL258
 8729 063f 6A000000 		.4byte	.LVL259
 8730 0643 0100     		.2byte	0x1
 8731 0645 50       		.byte	0x50
 8732 0646 6A000000 		.4byte	.LVL259
 8733 064a 6D000000 		.4byte	.LVL260-1
 8734 064e 0100     		.2byte	0x1
 8735 0650 52       		.byte	0x52
 8736 0651 00000000 		.4byte	0
 8737 0655 00000000 		.4byte	0
 8738              	.LLST43:
 8739 0659 58000000 		.4byte	.LVL256
 8740 065d 5B000000 		.4byte	.LVL257-1
 8741 0661 0100     		.2byte	0x1
 8742 0663 50       		.byte	0x50
 8743 0664 5B000000 		.4byte	.LVL257-1
 8744 0668 DE000000 		.4byte	.LVL268
 8745 066c 0100     		.2byte	0x1
 8746 066e 54       		.byte	0x54
 8747 066f 00000000 		.4byte	0
 8748 0673 00000000 		.4byte	0
 8749              	.LLST44:
 8750 0677 00000000 		.4byte	.LVL274
 8751 067b 0A000000 		.4byte	.LVL275
 8752 067f 0100     		.2byte	0x1
 8753 0681 50       		.byte	0x50
 8754 0682 0A000000 		.4byte	.LVL275
 8755 0686 EC000000 		.4byte	.LFE98
 8756 068a 0400     		.2byte	0x4
ARM GAS  C:\Users\EVGENY~1\AppData\Local\Temp\ccpzgcQX.s 			page 176


 8757 068c F3       		.byte	0xf3
 8758 068d 01       		.uleb128 0x1
 8759 068e 50       		.byte	0x50
 8760 068f 9F       		.byte	0x9f
 8761 0690 00000000 		.4byte	0
 8762 0694 00000000 		.4byte	0
 8763              	.LLST45:
 8764 0698 00000000 		.4byte	.LVL274
 8765 069c 0D000000 		.4byte	.LVL276-1
 8766 06a0 0100     		.2byte	0x1
 8767 06a2 51       		.byte	0x51
 8768 06a3 0D000000 		.4byte	.LVL276-1
 8769 06a7 EC000000 		.4byte	.LFE98
 8770 06ab 0100     		.2byte	0x1
 8771 06ad 55       		.byte	0x55
 8772 06ae 00000000 		.4byte	0
 8773 06b2 00000000 		.4byte	0
 8774              	.LLST46:
 8775 06b6 06000000 		.4byte	.LVL291
 8776 06ba 3A000000 		.4byte	.LVL299
 8777 06be 0200     		.2byte	0x2
 8778 06c0 30       		.byte	0x30
 8779 06c1 9F       		.byte	0x9f
 8780 06c2 3A000000 		.4byte	.LVL299
 8781 06c6 40000000 		.4byte	.LVL300
 8782 06ca 0100     		.2byte	0x1
 8783 06cc 50       		.byte	0x50
 8784 06cd 40000000 		.4byte	.LVL300
 8785 06d1 43000000 		.4byte	.LVL301-1
 8786 06d5 0100     		.2byte	0x1
 8787 06d7 52       		.byte	0x52
 8788 06d8 43000000 		.4byte	.LVL301-1
 8789 06dc F2020000 		.4byte	.LVL392
 8790 06e0 0100     		.2byte	0x1
 8791 06e2 58       		.byte	0x58
 8792 06e3 00000000 		.4byte	0
 8793 06e7 00000000 		.4byte	0
 8794              	.LLST47:
 8795 06eb 06000000 		.4byte	.LVL291
 8796 06ef E4020000 		.4byte	.LVL389
 8797 06f3 0200     		.2byte	0x2
 8798 06f5 30       		.byte	0x30
 8799 06f6 9F       		.byte	0x9f
 8800 06f7 E4020000 		.4byte	.LVL389
 8801 06fb E8020000 		.4byte	.LVL390
 8802 06ff 0100     		.2byte	0x1
 8803 0701 50       		.byte	0x50
 8804 0702 E8020000 		.4byte	.LVL390
 8805 0706 EB020000 		.4byte	.LVL391-1
 8806 070a 0100     		.2byte	0x1
 8807 070c 51       		.byte	0x51
 8808 070d 00000000 		.4byte	0
 8809 0711 00000000 		.4byte	0
 8810              	.LLST48:
 8811 0715 0C000000 		.4byte	.LVL292
 8812 0719 52000000 		.4byte	.LVL303
 8813 071d 0200     		.2byte	0x2
ARM GAS  C:\Users\EVGENY~1\AppData\Local\Temp\ccpzgcQX.s 			page 177


 8814 071f 30       		.byte	0x30
 8815 0720 9F       		.byte	0x9f
 8816 0721 52000000 		.4byte	.LVL303
 8817 0725 F2020000 		.4byte	.LVL392
 8818 0729 0100     		.2byte	0x1
 8819 072b 55       		.byte	0x55
 8820 072c 00000000 		.4byte	0
 8821 0730 00000000 		.4byte	0
 8822              	.LLST49:
 8823 0734 0C000000 		.4byte	.LVL292
 8824 0738 52000000 		.4byte	.LVL303
 8825 073c 0200     		.2byte	0x2
 8826 073e 31       		.byte	0x31
 8827 073f 9F       		.byte	0x9f
 8828 0740 52000000 		.4byte	.LVL303
 8829 0744 92000000 		.4byte	.LVL310
 8830 0748 0100     		.2byte	0x1
 8831 074a 54       		.byte	0x54
 8832 074b 92000000 		.4byte	.LVL310
 8833 074f B4000000 		.4byte	.LVL315
 8834 0753 0200     		.2byte	0x2
 8835 0755 30       		.byte	0x30
 8836 0756 9F       		.byte	0x9f
 8837 0757 B4000000 		.4byte	.LVL315
 8838 075b C4000000 		.4byte	.LVL317
 8839 075f 0100     		.2byte	0x1
 8840 0761 54       		.byte	0x54
 8841 0762 C4000000 		.4byte	.LVL317
 8842 0766 E4000000 		.4byte	.LVL322
 8843 076a 0200     		.2byte	0x2
 8844 076c 30       		.byte	0x30
 8845 076d 9F       		.byte	0x9f
 8846 076e E4000000 		.4byte	.LVL322
 8847 0772 F8000000 		.4byte	.LVL324
 8848 0776 0100     		.2byte	0x1
 8849 0778 54       		.byte	0x54
 8850 0779 F8000000 		.4byte	.LVL324
 8851 077d 3E010000 		.4byte	.LVL334
 8852 0781 0200     		.2byte	0x2
 8853 0783 31       		.byte	0x31
 8854 0784 9F       		.byte	0x9f
 8855 0785 3E010000 		.4byte	.LVL334
 8856 0789 58010000 		.4byte	.LVL338
 8857 078d 0200     		.2byte	0x2
 8858 078f 30       		.byte	0x30
 8859 0790 9F       		.byte	0x9f
 8860 0791 58010000 		.4byte	.LVL338
 8861 0795 62010000 		.4byte	.LVL339
 8862 0799 0200     		.2byte	0x2
 8863 079b 31       		.byte	0x31
 8864 079c 9F       		.byte	0x9f
 8865 079d 62010000 		.4byte	.LVL339
 8866 07a1 B8010000 		.4byte	.LVL353
 8867 07a5 0100     		.2byte	0x1
 8868 07a7 54       		.byte	0x54
 8869 07a8 B8010000 		.4byte	.LVL353
 8870 07ac F4010000 		.4byte	.LVL362
ARM GAS  C:\Users\EVGENY~1\AppData\Local\Temp\ccpzgcQX.s 			page 178


 8871 07b0 0200     		.2byte	0x2
 8872 07b2 31       		.byte	0x31
 8873 07b3 9F       		.byte	0x9f
 8874 07b4 F4010000 		.4byte	.LVL362
 8875 07b8 0C020000 		.4byte	.LVL366
 8876 07bc 0200     		.2byte	0x2
 8877 07be 30       		.byte	0x30
 8878 07bf 9F       		.byte	0x9f
 8879 07c0 0C020000 		.4byte	.LVL366
 8880 07c4 10020000 		.4byte	.LVL367
 8881 07c8 0200     		.2byte	0x2
 8882 07ca 31       		.byte	0x31
 8883 07cb 9F       		.byte	0x9f
 8884 07cc 10020000 		.4byte	.LVL367
 8885 07d0 F2020000 		.4byte	.LVL392
 8886 07d4 0100     		.2byte	0x1
 8887 07d6 54       		.byte	0x54
 8888 07d7 00000000 		.4byte	0
 8889 07db 00000000 		.4byte	0
 8890              	.LLST50:
 8891 07df 0C000000 		.4byte	.LVL292
 8892 07e3 52000000 		.4byte	.LVL303
 8893 07e7 0200     		.2byte	0x2
 8894 07e9 30       		.byte	0x30
 8895 07ea 9F       		.byte	0x9f
 8896 07eb 52000000 		.4byte	.LVL303
 8897 07ef 92000000 		.4byte	.LVL310
 8898 07f3 0100     		.2byte	0x1
 8899 07f5 56       		.byte	0x56
 8900 07f6 92000000 		.4byte	.LVL310
 8901 07fa B4000000 		.4byte	.LVL315
 8902 07fe 0200     		.2byte	0x2
 8903 0800 31       		.byte	0x31
 8904 0801 9F       		.byte	0x9f
 8905 0802 B4000000 		.4byte	.LVL315
 8906 0806 F8000000 		.4byte	.LVL324
 8907 080a 0100     		.2byte	0x1
 8908 080c 56       		.byte	0x56
 8909 080d F8000000 		.4byte	.LVL324
 8910 0811 3E010000 		.4byte	.LVL334
 8911 0815 0200     		.2byte	0x2
 8912 0817 30       		.byte	0x30
 8913 0818 9F       		.byte	0x9f
 8914 0819 3E010000 		.4byte	.LVL334
 8915 081d 58010000 		.4byte	.LVL338
 8916 0821 0200     		.2byte	0x2
 8917 0823 31       		.byte	0x31
 8918 0824 9F       		.byte	0x9f
 8919 0825 58010000 		.4byte	.LVL338
 8920 0829 62010000 		.4byte	.LVL339
 8921 082d 0200     		.2byte	0x2
 8922 082f 30       		.byte	0x30
 8923 0830 9F       		.byte	0x9f
 8924 0831 62010000 		.4byte	.LVL339
 8925 0835 70010000 		.4byte	.LVL341
 8926 0839 0100     		.2byte	0x1
 8927 083b 56       		.byte	0x56
ARM GAS  C:\Users\EVGENY~1\AppData\Local\Temp\ccpzgcQX.s 			page 179


 8928 083c 70010000 		.4byte	.LVL341
 8929 0840 88010000 		.4byte	.LVL345
 8930 0844 0200     		.2byte	0x2
 8931 0846 30       		.byte	0x30
 8932 0847 9F       		.byte	0x9f
 8933 0848 88010000 		.4byte	.LVL345
 8934 084c 92010000 		.4byte	.LVL347
 8935 0850 0100     		.2byte	0x1
 8936 0852 56       		.byte	0x56
 8937 0853 92010000 		.4byte	.LVL347
 8938 0857 AA010000 		.4byte	.LVL351
 8939 085b 0200     		.2byte	0x2
 8940 085d 30       		.byte	0x30
 8941 085e 9F       		.byte	0x9f
 8942 085f AA010000 		.4byte	.LVL351
 8943 0863 F2020000 		.4byte	.LVL392
 8944 0867 0100     		.2byte	0x1
 8945 0869 56       		.byte	0x56
 8946 086a 00000000 		.4byte	0
 8947 086e 00000000 		.4byte	0
 8948              	.LLST51:
 8949 0872 0C000000 		.4byte	.LVL292
 8950 0876 52000000 		.4byte	.LVL303
 8951 087a 0200     		.2byte	0x2
 8952 087c 30       		.byte	0x30
 8953 087d 9F       		.byte	0x9f
 8954 087e 52000000 		.4byte	.LVL303
 8955 0882 C4000000 		.4byte	.LVL317
 8956 0886 0100     		.2byte	0x1
 8957 0888 57       		.byte	0x57
 8958 0889 C4000000 		.4byte	.LVL317
 8959 088d E4000000 		.4byte	.LVL322
 8960 0891 0200     		.2byte	0x2
 8961 0893 31       		.byte	0x31
 8962 0894 9F       		.byte	0x9f
 8963 0895 E4000000 		.4byte	.LVL322
 8964 0899 70010000 		.4byte	.LVL341
 8965 089d 0100     		.2byte	0x1
 8966 089f 57       		.byte	0x57
 8967 08a0 70010000 		.4byte	.LVL341
 8968 08a4 88010000 		.4byte	.LVL345
 8969 08a8 0200     		.2byte	0x2
 8970 08aa 31       		.byte	0x31
 8971 08ab 9F       		.byte	0x9f
 8972 08ac 88010000 		.4byte	.LVL345
 8973 08b0 92010000 		.4byte	.LVL347
 8974 08b4 0100     		.2byte	0x1
 8975 08b6 57       		.byte	0x57
 8976 08b7 92010000 		.4byte	.LVL347
 8977 08bb AA010000 		.4byte	.LVL351
 8978 08bf 0200     		.2byte	0x2
 8979 08c1 31       		.byte	0x31
 8980 08c2 9F       		.byte	0x9f
 8981 08c3 AA010000 		.4byte	.LVL351
 8982 08c7 B8010000 		.4byte	.LVL353
 8983 08cb 0100     		.2byte	0x1
 8984 08cd 57       		.byte	0x57
ARM GAS  C:\Users\EVGENY~1\AppData\Local\Temp\ccpzgcQX.s 			page 180


 8985 08ce B8010000 		.4byte	.LVL353
 8986 08d2 F4010000 		.4byte	.LVL362
 8987 08d6 0200     		.2byte	0x2
 8988 08d8 30       		.byte	0x30
 8989 08d9 9F       		.byte	0x9f
 8990 08da F4010000 		.4byte	.LVL362
 8991 08de 0C020000 		.4byte	.LVL366
 8992 08e2 0200     		.2byte	0x2
 8993 08e4 31       		.byte	0x31
 8994 08e5 9F       		.byte	0x9f
 8995 08e6 0C020000 		.4byte	.LVL366
 8996 08ea 10020000 		.4byte	.LVL367
 8997 08ee 0200     		.2byte	0x2
 8998 08f0 30       		.byte	0x30
 8999 08f1 9F       		.byte	0x9f
 9000 08f2 10020000 		.4byte	.LVL367
 9001 08f6 F2020000 		.4byte	.LVL392
 9002 08fa 0100     		.2byte	0x1
 9003 08fc 57       		.byte	0x57
 9004 08fd 00000000 		.4byte	0
 9005 0901 00000000 		.4byte	0
 9006              		.section	.debug_aranges,"",%progbits
 9007 0000 D4000000 		.4byte	0xd4
 9008 0004 0200     		.2byte	0x2
 9009 0006 00000000 		.4byte	.Ldebug_info0
 9010 000a 04       		.byte	0x4
 9011 000b 00       		.byte	0
 9012 000c 0000     		.2byte	0
 9013 000e 0000     		.2byte	0
 9014 0010 00000000 		.4byte	.LFB86
 9015 0014 7C000000 		.4byte	.LFE86-.LFB86
 9016 0018 00000000 		.4byte	.LFB91
 9017 001c A0000000 		.4byte	.LFE91-.LFB91
 9018 0020 00000000 		.4byte	.LFB99
 9019 0024 1E000000 		.4byte	.LFE99-.LFB99
 9020 0028 00000000 		.4byte	.LFB100
 9021 002c 18000000 		.4byte	.LFE100-.LFB100
 9022 0030 00000000 		.4byte	.LFB101
 9023 0034 18000000 		.4byte	.LFE101-.LFB101
 9024 0038 00000000 		.4byte	.LFB102
 9025 003c 18000000 		.4byte	.LFE102-.LFB102
 9026 0040 00000000 		.4byte	.LFB85
 9027 0044 68000000 		.4byte	.LFE85-.LFB85
 9028 0048 00000000 		.4byte	.LFB103
 9029 004c 22000000 		.4byte	.LFE103-.LFB103
 9030 0050 00000000 		.4byte	.LFB87
 9031 0054 B0000000 		.4byte	.LFE87-.LFB87
 9032 0058 00000000 		.4byte	.LFB104
 9033 005c 74000000 		.4byte	.LFE104-.LFB104
 9034 0060 00000000 		.4byte	.LFB105
 9035 0064 1C000000 		.4byte	.LFE105-.LFB105
 9036 0068 00000000 		.4byte	.LFB106
 9037 006c 48000000 		.4byte	.LFE106-.LFB106
 9038 0070 00000000 		.4byte	.LFB107
 9039 0074 6C000000 		.4byte	.LFE107-.LFB107
 9040 0078 00000000 		.4byte	.LFB92
 9041 007c 9C000000 		.4byte	.LFE92-.LFB92
ARM GAS  C:\Users\EVGENY~1\AppData\Local\Temp\ccpzgcQX.s 			page 181


 9042 0080 00000000 		.4byte	.LFB108
 9043 0084 3E000000 		.4byte	.LFE108-.LFB108
 9044 0088 00000000 		.4byte	.LFB97
 9045 008c 94000000 		.4byte	.LFE97-.LFB97
 9046 0090 00000000 		.4byte	.LFB88
 9047 0094 58000000 		.4byte	.LFE88-.LFB88
 9048 0098 00000000 		.4byte	.LFB89
 9049 009c B6000000 		.4byte	.LFE89-.LFB89
 9050 00a0 00000000 		.4byte	.LFB90
 9051 00a4 38010000 		.4byte	.LFE90-.LFB90
 9052 00a8 00000000 		.4byte	.LFB93
 9053 00ac 54000000 		.4byte	.LFE93-.LFB93
 9054 00b0 00000000 		.4byte	.LFB95
 9055 00b4 88000000 		.4byte	.LFE95-.LFB95
 9056 00b8 00000000 		.4byte	.LFB94
 9057 00bc 10010000 		.4byte	.LFE94-.LFB94
 9058 00c0 00000000 		.4byte	.LFB98
 9059 00c4 EC000000 		.4byte	.LFE98-.LFB98
 9060 00c8 00000000 		.4byte	.LFB96
 9061 00cc 14030000 		.4byte	.LFE96-.LFB96
 9062 00d0 00000000 		.4byte	0
 9063 00d4 00000000 		.4byte	0
 9064              		.section	.debug_ranges,"",%progbits
 9065              	.Ldebug_ranges0:
 9066 0000 00000000 		.4byte	.LFB86
 9067 0004 7C000000 		.4byte	.LFE86
 9068 0008 00000000 		.4byte	.LFB91
 9069 000c A0000000 		.4byte	.LFE91
 9070 0010 00000000 		.4byte	.LFB99
 9071 0014 1E000000 		.4byte	.LFE99
 9072 0018 00000000 		.4byte	.LFB100
 9073 001c 18000000 		.4byte	.LFE100
 9074 0020 00000000 		.4byte	.LFB101
 9075 0024 18000000 		.4byte	.LFE101
 9076 0028 00000000 		.4byte	.LFB102
 9077 002c 18000000 		.4byte	.LFE102
 9078 0030 00000000 		.4byte	.LFB85
 9079 0034 68000000 		.4byte	.LFE85
 9080 0038 00000000 		.4byte	.LFB103
 9081 003c 22000000 		.4byte	.LFE103
 9082 0040 00000000 		.4byte	.LFB87
 9083 0044 B0000000 		.4byte	.LFE87
 9084 0048 00000000 		.4byte	.LFB104
 9085 004c 74000000 		.4byte	.LFE104
 9086 0050 00000000 		.4byte	.LFB105
 9087 0054 1C000000 		.4byte	.LFE105
 9088 0058 00000000 		.4byte	.LFB106
 9089 005c 48000000 		.4byte	.LFE106
 9090 0060 00000000 		.4byte	.LFB107
 9091 0064 6C000000 		.4byte	.LFE107
 9092 0068 00000000 		.4byte	.LFB92
 9093 006c 9C000000 		.4byte	.LFE92
 9094 0070 00000000 		.4byte	.LFB108
 9095 0074 3E000000 		.4byte	.LFE108
 9096 0078 00000000 		.4byte	.LFB97
 9097 007c 94000000 		.4byte	.LFE97
 9098 0080 00000000 		.4byte	.LFB88
ARM GAS  C:\Users\EVGENY~1\AppData\Local\Temp\ccpzgcQX.s 			page 182


 9099 0084 58000000 		.4byte	.LFE88
 9100 0088 00000000 		.4byte	.LFB89
 9101 008c B6000000 		.4byte	.LFE89
 9102 0090 00000000 		.4byte	.LFB90
 9103 0094 38010000 		.4byte	.LFE90
 9104 0098 00000000 		.4byte	.LFB93
 9105 009c 54000000 		.4byte	.LFE93
 9106 00a0 00000000 		.4byte	.LFB95
 9107 00a4 88000000 		.4byte	.LFE95
 9108 00a8 00000000 		.4byte	.LFB94
 9109 00ac 10010000 		.4byte	.LFE94
 9110 00b0 00000000 		.4byte	.LFB98
 9111 00b4 EC000000 		.4byte	.LFE98
 9112 00b8 00000000 		.4byte	.LFB96
 9113 00bc 14030000 		.4byte	.LFE96
 9114 00c0 00000000 		.4byte	0
 9115 00c4 00000000 		.4byte	0
 9116              		.section	.debug_line,"",%progbits
 9117              	.Ldebug_line0:
 9118 0000 00070000 		.section	.debug_str,"MS",%progbits,1
 9118      02006802 
 9118      00000201 
 9118      FB0E0D00 
 9118      01010101 
 9119              	.LASF86:
 9120 0000 7072696E 		.ascii	"printf\000"
 9120      746600
 9121              	.LASF62:
 9122 0007 636F756E 		.ascii	"count\000"
 9122      7400
 9123              	.LASF58:
 9124 000d 64726976 		.ascii	"driveForward\000"
 9124      65466F72 
 9124      77617264 
 9124      00
 9125              	.LASF54:
 9126 001a 62757474 		.ascii	"button\000"
 9126      6F6E00
 9127              	.LASF45:
 9128 0021 72696768 		.ascii	"rightState\000"
 9128      74537461 
 9128      746500
 9129              	.LASF103:
 9130 002c 7265666C 		.ascii	"reflectance_start\000"
 9130      65637461 
 9130      6E63655F 
 9130      73746172 
 9130      7400
 9131              	.LASF5:
 9132 003e 5F5F7569 		.ascii	"__uint8_t\000"
 9132      6E74385F 
 9132      7400
 9133              	.LASF44:
 9134 0048 6C656674 		.ascii	"leftState\000"
 9134      53746174 
 9134      6500
 9135              	.LASF84:
ARM GAS  C:\Users\EVGENY~1\AppData\Local\Temp\ccpzgcQX.s 			page 183


 9136 0052 6D6F746F 		.ascii	"motor_forward\000"
 9136      725F666F 
 9136      72776172 
 9136      6400
 9137              	.LASF41:
 9138 0060 7475726E 		.ascii	"turn\000"
 9138      00
 9139              	.LASF88:
 9140 0065 6D6F746F 		.ascii	"motor_backward\000"
 9140      725F6261 
 9140      636B7761 
 9140      726400
 9141              	.LASF0:
 9142 0074 6C6F6E67 		.ascii	"long long unsigned int\000"
 9142      206C6F6E 
 9142      6720756E 
 9142      7369676E 
 9142      65642069 
 9143              	.LASF74:
 9144 008b 616E676C 		.ascii	"angle\000"
 9144      6500
 9145              	.LASF27:
 9146 0091 64696666 		.ascii	"diff\000"
 9146      00
 9147              	.LASF98:
 9148 0096 42617474 		.ascii	"BatteryLed_Write\000"
 9148      6572794C 
 9148      65645F57 
 9148      72697465 
 9148      00
 9149              	.LASF26:
 9150 00a7 6C617374 		.ascii	"lastBtnPress\000"
 9150      42746E50 
 9150      72657373 
 9150      00
 9151              	.LASF110:
 9152 00b4 49544D5F 		.ascii	"ITM_RxBuffer\000"
 9152      52784275 
 9152      66666572 
 9152      00
 9153              	.LASF80:
 9154 00c1 72696768 		.ascii	"right\000"
 9154      7400
 9155              	.LASF12:
 9156 00c7 6C6F6E67 		.ascii	"long long int\000"
 9156      206C6F6E 
 9156      6720696E 
 9156      7400
 9157              	.LASF2:
 9158 00d5 7369676E 		.ascii	"signed char\000"
 9158      65642063 
 9158      68617200 
 9159              	.LASF42:
 9160 00e1 74616E6B 		.ascii	"tankTurnEvg\000"
 9160      5475726E 
 9160      45766700 
 9161              	.LASF87:
ARM GAS  C:\Users\EVGENY~1\AppData\Local\Temp\ccpzgcQX.s 			page 184


 9162 00ed 76546173 		.ascii	"vTaskDelay\000"
 9162      6B44656C 
 9162      617900
 9163              	.LASF90:
 9164 00f8 5357315F 		.ascii	"SW1_Read\000"
 9164      52656164 
 9164      00
 9165              	.LASF102:
 9166 0101 49525F66 		.ascii	"IR_flush\000"
 9166      6C757368 
 9166      00
 9167              	.LASF34:
 9168 010a 7475726E 		.ascii	"turnLeft\000"
 9168      4C656674 
 9168      00
 9169              	.LASF76:
 9170 0113 6D617A65 		.ascii	"maze\000"
 9170      00
 9171              	.LASF9:
 9172 0118 6C6F6E67 		.ascii	"long int\000"
 9172      20696E74 
 9172      00
 9173              	.LASF53:
 9174 0121 7265666C 		.ascii	"reflectance\000"
 9174      65637461 
 9174      6E636500 
 9175              	.LASF61:
 9176 012d 7765656B 		.ascii	"week4_1_evg\000"
 9176      345F315F 
 9176      65766700 
 9177              	.LASF47:
 9178 0139 656E645F 		.ascii	"end_mqtt\000"
 9178      6D717474 
 9178      00
 9179              	.LASF112:
 9180 0142 5F5F6275 		.ascii	"__builtin_puts\000"
 9180      696C7469 
 9180      6E5F7075 
 9180      747300
 9181              	.LASF17:
 9182 0151 75696E74 		.ascii	"uint8\000"
 9182      3800
 9183              	.LASF14:
 9184 0157 75696E74 		.ascii	"uint16_t\000"
 9184      31365F74 
 9184      00
 9185              	.LASF21:
 9186 0160 646F7562 		.ascii	"double\000"
 9186      6C6500
 9187              	.LASF18:
 9188 0167 75696E74 		.ascii	"uint32\000"
 9188      333200
 9189              	.LASF68:
 9190 016e 6C696E65 		.ascii	"lineReached\000"
 9190      52656163 
 9190      68656400 
 9191              	.LASF10:
ARM GAS  C:\Users\EVGENY~1\AppData\Local\Temp\ccpzgcQX.s 			page 185


 9192 017a 5F5F7569 		.ascii	"__uint32_t\000"
 9192      6E743332 
 9192      5F7400
 9193              	.LASF99:
 9194 0185 5365744D 		.ascii	"SetMotors\000"
 9194      6F746F72 
 9194      7300
 9195              	.LASF108:
 9196 018f 433A5C55 		.ascii	"C:\\Users\\Evgeny Meshcheryakov\\Documents\\metropo"
 9196      73657273 
 9196      5C457667 
 9196      656E7920 
 9196      4D657368 
 9197 01be 6C69615C 		.ascii	"lia\\tmp\\Zumo\\ZumoBot\\ZumoBot.cydsn\000"
 9197      746D705C 
 9197      5A756D6F 
 9197      5C5A756D 
 9197      6F426F74 
 9198              	.LASF67:
 9199 01e1 69725072 		.ascii	"irPressed\000"
 9199      65737365 
 9199      6400
 9200              	.LASF29:
 9201 01eb 6E6F5265 		.ascii	"noRestrict\000"
 9201      73747269 
 9201      637400
 9202              	.LASF33:
 9203 01f6 7765656B 		.ascii	"week3_2_evg\000"
 9203      335F325F 
 9203      65766700 
 9204              	.LASF1:
 9205 0202 756E7369 		.ascii	"unsigned int\000"
 9205      676E6564 
 9205      20696E74 
 9205      00
 9206              	.LASF51:
 9207 020f 73746172 		.ascii	"startUp\000"
 9207      74557000 
 9208              	.LASF56:
 9209 0217 7765656B 		.ascii	"week5_2_evg\000"
 9209      355F325F 
 9209      65766700 
 9210              	.LASF11:
 9211 0223 6C6F6E67 		.ascii	"long unsigned int\000"
 9211      20756E73 
 9211      69676E65 
 9211      6420696E 
 9211      7400
 9212              	.LASF71:
 9213 0235 73746F70 		.ascii	"stopTime\000"
 9213      54696D65 
 9213      00
 9214              	.LASF57:
 9215 023e 73656E73 		.ascii	"sense\000"
 9215      6500
 9216              	.LASF101:
 9217 0244 72616E64 		.ascii	"rand\000"
ARM GAS  C:\Users\EVGENY~1\AppData\Local\Temp\ccpzgcQX.s 			page 186


 9217      00
 9218              	.LASF70:
 9219 0249 73746172 		.ascii	"startTime\000"
 9219      7454696D 
 9219      6500
 9220              	.LASF7:
 9221 0253 73686F72 		.ascii	"short unsigned int\000"
 9221      7420756E 
 9221      7369676E 
 9221      65642069 
 9221      6E7400
 9222              	.LASF50:
 9223 0266 656C6170 		.ascii	"elapsed\000"
 9223      73656400 
 9224              	.LASF66:
 9225 026e 6C696E65 		.ascii	"lines\000"
 9225      7300
 9226              	.LASF92:
 9227 0274 6D6F746F 		.ascii	"motor_start\000"
 9227      725F7374 
 9227      61727400 
 9228              	.LASF96:
 9229 0280 78546173 		.ascii	"xTaskGetTickCount\000"
 9229      6B476574 
 9229      5469636B 
 9229      436F756E 
 9229      7400
 9230              	.LASF91:
 9231 0292 556C7472 		.ascii	"Ultra_Start\000"
 9231      615F5374 
 9231      61727400 
 9232              	.LASF64:
 9233 029e 7765656B 		.ascii	"week4_3_evg\000"
 9233      345F335F 
 9233      65766700 
 9234              	.LASF107:
 9235 02aa 65766765 		.ascii	"evgenii.c\000"
 9235      6E69692E 
 9235      6300
 9236              	.LASF39:
 9237 02b4 72616E64 		.ascii	"random\000"
 9237      6F6D00
 9238              	.LASF111:
 9239 02bb 70757473 		.ascii	"puts\000"
 9239      00
 9240              	.LASF105:
 9241 02c0 7265666C 		.ascii	"reflectance_digital\000"
 9241      65637461 
 9241      6E63655F 
 9241      64696769 
 9241      74616C00 
 9242              	.LASF24:
 9243 02d4 73697A65 		.ascii	"sizetype\000"
 9243      74797065 
 9243      00
 9244              	.LASF25:
 9245 02dd 66697273 		.ascii	"firstBtnPress\000"
ARM GAS  C:\Users\EVGENY~1\AppData\Local\Temp\ccpzgcQX.s 			page 187


 9245      7442746E 
 9245      50726573 
 9245      7300
 9246              	.LASF38:
 9247 02eb 72616E64 		.ascii	"randomEvg\000"
 9247      6F6D4576 
 9247      6700
 9248              	.LASF95:
 9249 02f5 6D6F746F 		.ascii	"motor_stop\000"
 9249      725F7374 
 9249      6F7000
 9250              	.LASF46:
 9251 0300 636F7272 		.ascii	"correction\000"
 9251      65637469 
 9251      6F6E00
 9252              	.LASF81:
 9253 030b 64697255 		.ascii	"dirUp\000"
 9253      7000
 9254              	.LASF82:
 9255 0311 6469724C 		.ascii	"dirLeft\000"
 9255      65667400 
 9256              	.LASF60:
 9257 0319 626F6E75 		.ascii	"bonus\000"
 9257      7300
 9258              	.LASF94:
 9259 031f 49525F77 		.ascii	"IR_wait\000"
 9259      61697400 
 9260              	.LASF20:
 9261 0327 666C6F61 		.ascii	"float\000"
 9261      7400
 9262              	.LASF52:
 9263 032d 6D6F746F 		.ascii	"motor\000"
 9263      7200
 9264              	.LASF104:
 9265 0333 7265666C 		.ascii	"reflectance_set_threshold\000"
 9265      65637461 
 9265      6E63655F 
 9265      7365745F 
 9265      74687265 
 9266              	.LASF97:
 9267 034d 7072696E 		.ascii	"print_mqtt\000"
 9267      745F6D71 
 9267      747400
 9268              	.LASF100:
 9269 0358 7372616E 		.ascii	"srand\000"
 9269      6400
 9270              	.LASF55:
 9271 035e 756C7472 		.ascii	"ultra\000"
 9271      6100
 9272              	.LASF89:
 9273 0364 6D6F746F 		.ascii	"motor_turn\000"
 9273      725F7475 
 9273      726E00
 9274              	.LASF32:
 9275 036f 5F426F6F 		.ascii	"_Bool\000"
 9275      6C00
 9276              	.LASF15:
ARM GAS  C:\Users\EVGENY~1\AppData\Local\Temp\ccpzgcQX.s 			page 188


 9277 0375 696E7433 		.ascii	"int32_t\000"
 9277      325F7400 
 9278              	.LASF3:
 9279 037d 756E7369 		.ascii	"unsigned char\000"
 9279      676E6564 
 9279      20636861 
 9279      7200
 9280              	.LASF69:
 9281 038b 6C696E65 		.ascii	"line_follower\000"
 9281      5F666F6C 
 9281      6C6F7765 
 9281      7200
 9282              	.LASF31:
 9283 0399 64656C61 		.ascii	"delay\000"
 9283      7900
 9284              	.LASF4:
 9285 039f 73686F72 		.ascii	"short int\000"
 9285      7420696E 
 9285      7400
 9286              	.LASF43:
 9287 03a9 64656772 		.ascii	"degree\000"
 9287      656500
 9288              	.LASF37:
 9289 03b0 7765656B 		.ascii	"week3_1_evg\000"
 9289      335F315F 
 9289      65766700 
 9290              	.LASF106:
 9291 03bc 474E5520 		.ascii	"GNU C11 5.4.1 20160609 (release) [ARM/embedded-5-br"
 9291      43313120 
 9291      352E342E 
 9291      31203230 
 9291      31363036 
 9292 03ef 616E6368 		.ascii	"anch revision 237715] -mcpu=cortex-m3 -mthumb -g -O"
 9292      20726576 
 9292      6973696F 
 9292      6E203233 
 9292      37373135 
 9293 0422 67202D66 		.ascii	"g -ffunction-sections -ffat-lto-objects\000"
 9293      66756E63 
 9293      74696F6E 
 9293      2D736563 
 9293      74696F6E 
 9294              	.LASF28:
 9295 044a 7765656B 		.ascii	"week5_1_evg\000"
 9295      355F315F 
 9295      65766700 
 9296              	.LASF16:
 9297 0456 75696E74 		.ascii	"uint32_t\000"
 9297      33325F74 
 9297      00
 9298              	.LASF23:
 9299 045f 6C6F6E67 		.ascii	"long double\000"
 9299      20646F75 
 9299      626C6500 
 9300              	.LASF22:
 9301 046b 63686172 		.ascii	"char\000"
 9301      00
ARM GAS  C:\Users\EVGENY~1\AppData\Local\Temp\ccpzgcQX.s 			page 189


 9302              	.LASF109:
 9303 0470 73656E73 		.ascii	"sensors_\000"
 9303      6F72735F 
 9303      00
 9304              	.LASF6:
 9305 0479 5F5F7569 		.ascii	"__uint16_t\000"
 9305      6E743136 
 9305      5F7400
 9306              	.LASF8:
 9307 0484 5F5F696E 		.ascii	"__int32_t\000"
 9307      7433325F 
 9307      7400
 9308              	.LASF36:
 9309 048e 7475726E 		.ascii	"turnRight\000"
 9309      52696768 
 9309      7400
 9310              	.LASF63:
 9311 0498 7765656B 		.ascii	"week4_2_evg\000"
 9311      345F325F 
 9311      65766700 
 9312              	.LASF30:
 9313 04a4 70726F67 		.ascii	"progEndEvg\000"
 9313      456E6445 
 9313      766700
 9314              	.LASF59:
 9315 04af 6D697373 		.ascii	"miss\000"
 9315      00
 9316              	.LASF93:
 9317 04b4 49525F53 		.ascii	"IR_Start\000"
 9317      74617274 
 9317      00
 9318              	.LASF85:
 9319 04bd 556C7472 		.ascii	"Ultra_GetDistance\000"
 9319      615F4765 
 9319      74446973 
 9319      74616E63 
 9319      6500
 9320              	.LASF73:
 9321 04cf 6F627374 		.ascii	"obst\000"
 9321      00
 9322              	.LASF13:
 9323 04d4 75696E74 		.ascii	"uint8_t\000"
 9323      385F7400 
 9324              	.LASF77:
 9325 04dc 6D617858 		.ascii	"maxX\000"
 9325      00
 9326              	.LASF78:
 9327 04e1 6D617859 		.ascii	"maxY\000"
 9327      00
 9328              	.LASF19:
 9329 04e6 696E7431 		.ascii	"int16\000"
 9329      3600
 9330              	.LASF35:
 9331 04ec 73706565 		.ascii	"speed\000"
 9331      6400
 9332              	.LASF40:
 9333 04f2 7765656B 		.ascii	"week3_3_evg\000"
ARM GAS  C:\Users\EVGENY~1\AppData\Local\Temp\ccpzgcQX.s 			page 190


 9333      335F335F 
 9333      65766700 
 9334              	.LASF75:
 9335 04fe 64726976 		.ascii	"driveThruMaze\000"
 9335      65546872 
 9335      754D617A 
 9335      6500
 9336              	.LASF48:
 9337 050c 73746172 		.ascii	"start\000"
 9337      7400
 9338              	.LASF49:
 9339 0512 73746F70 		.ascii	"stop\000"
 9339      00
 9340              	.LASF79:
 9341 0517 6C656674 		.ascii	"left\000"
 9341      00
 9342              	.LASF65:
 9343 051c 7765656B 		.ascii	"week5_3_evg\000"
 9343      355F335F 
 9343      65766700 
 9344              	.LASF83:
 9345 0528 64697252 		.ascii	"dirRight\000"
 9345      69676874 
 9345      00
 9346              	.LASF72:
 9347 0531 73756D6F 		.ascii	"sumo_wrestling\000"
 9347      5F777265 
 9347      73746C69 
 9347      6E6700
 9348              		.ident	"GCC: (GNU Tools for ARM Embedded Processors) 5.4.1 20160609 (release) [ARM/embedded-5-bran
