ARM GAS  C:\Users\EVGENY~1\AppData\Local\Temp\ccQX3Ztk.s 			page 1


   1              		.syntax unified
   2              		.cpu cortex-m3
   3              		.fpu softvfp
   4              		.eabi_attribute 20, 1
   5              		.eabi_attribute 21, 1
   6              		.eabi_attribute 23, 3
   7              		.eabi_attribute 24, 1
   8              		.eabi_attribute 25, 1
   9              		.eabi_attribute 26, 1
  10              		.eabi_attribute 30, 1
  11              		.eabi_attribute 34, 1
  12              		.eabi_attribute 18, 4
  13              		.thumb
  14              		.syntax unified
  15              		.file	"Motor.c"
  16              		.text
  17              	.Ltext0:
  18              		.cfi_sections	.debug_frame
  19              		.section	.text.motor_forward,"ax",%progbits
  20              		.align	2
  21              		.global	motor_forward
  22              		.thumb
  23              		.thumb_func
  24              		.type	motor_forward, %function
  25              	motor_forward:
  26              	.LFB68:
  27              		.file 1 "ZumoLibrary\\Motor.c"
   1:ZumoLibrary/Motor.c **** /**
   2:ZumoLibrary/Motor.c ****  * @file    Motor.c
   3:ZumoLibrary/Motor.c ****  * @brief   Basic methods for operating motor sensor. For more details, please refer to Motor.h fil
   4:ZumoLibrary/Motor.c ****  * @details included in Zumo shield
   5:ZumoLibrary/Motor.c **** */
   6:ZumoLibrary/Motor.c **** #include "FreeRTOS.h"
   7:ZumoLibrary/Motor.c **** #include "task.h"
   8:ZumoLibrary/Motor.c **** #include "Motor.h"
   9:ZumoLibrary/Motor.c **** #include "zumo_config.h"
  10:ZumoLibrary/Motor.c **** 
  11:ZumoLibrary/Motor.c **** 
  12:ZumoLibrary/Motor.c **** #if ZUMO_SIMULATOR == 0
  13:ZumoLibrary/Motor.c **** 
  14:ZumoLibrary/Motor.c **** void SetMotors(uint8 left_dir, uint8 right_dir, uint8 left_speed, uint8 right_speed, uint32 delay)
  15:ZumoLibrary/Motor.c **** {
  16:ZumoLibrary/Motor.c ****     MotorDirLeft_Write(left_dir);      // 0 = forward, 1 = backward
  17:ZumoLibrary/Motor.c ****     MotorDirRight_Write(right_dir);    // 0 = forward, 1 = backward
  18:ZumoLibrary/Motor.c ****     PWM_WriteCompare1(left_speed); 
  19:ZumoLibrary/Motor.c ****     PWM_WriteCompare2(right_speed); 
  20:ZumoLibrary/Motor.c ****     vTaskDelay(delay);
  21:ZumoLibrary/Motor.c **** }
  22:ZumoLibrary/Motor.c **** /**
  23:ZumoLibrary/Motor.c **** * @brief    Starting motor sensors
  24:ZumoLibrary/Motor.c **** * @details  
  25:ZumoLibrary/Motor.c **** */
  26:ZumoLibrary/Motor.c **** void motor_start()
  27:ZumoLibrary/Motor.c **** {
  28:ZumoLibrary/Motor.c ****     PWM_Start();
  29:ZumoLibrary/Motor.c **** }
  30:ZumoLibrary/Motor.c **** 
ARM GAS  C:\Users\EVGENY~1\AppData\Local\Temp\ccQX3Ztk.s 			page 2


  31:ZumoLibrary/Motor.c **** 
  32:ZumoLibrary/Motor.c **** /**
  33:ZumoLibrary/Motor.c **** * @brief    Stopping motor sensors
  34:ZumoLibrary/Motor.c **** * @details
  35:ZumoLibrary/Motor.c **** */
  36:ZumoLibrary/Motor.c **** void motor_stop()
  37:ZumoLibrary/Motor.c **** {
  38:ZumoLibrary/Motor.c ****     PWM_Stop();
  39:ZumoLibrary/Motor.c **** }
  40:ZumoLibrary/Motor.c **** 
  41:ZumoLibrary/Motor.c **** 
  42:ZumoLibrary/Motor.c **** #endif
  43:ZumoLibrary/Motor.c **** 
  44:ZumoLibrary/Motor.c **** /**
  45:ZumoLibrary/Motor.c **** * @brief    Moving motors forward
  46:ZumoLibrary/Motor.c **** * @details  giveing same speed to each side of PWM to make motors go forward
  47:ZumoLibrary/Motor.c **** * @param    uint8 speed : speed value
  48:ZumoLibrary/Motor.c **** * @param    uint32 delay : delay time
  49:ZumoLibrary/Motor.c **** */
  50:ZumoLibrary/Motor.c **** void motor_forward(uint8 speed,uint32 delay)
  51:ZumoLibrary/Motor.c **** {
  28              		.loc 1 51 0
  29              		.cfi_startproc
  30              		@ args = 0, pretend = 0, frame = 0
  31              		@ frame_needed = 0, uses_anonymous_args = 0
  32              	.LVL0:
  33 0000 00B5     		push	{lr}
  34              		.cfi_def_cfa_offset 4
  35              		.cfi_offset 14, -4
  36 0002 83B0     		sub	sp, sp, #12
  37              		.cfi_def_cfa_offset 16
  38 0004 0246     		mov	r2, r0
  52:ZumoLibrary/Motor.c ****     // set LeftMotor forward mode
  53:ZumoLibrary/Motor.c ****     // set RightMotor forward mode
  54:ZumoLibrary/Motor.c ****     SetMotors(0,0, speed, speed, delay);
  39              		.loc 1 54 0
  40 0006 0091     		str	r1, [sp]
  41 0008 0346     		mov	r3, r0
  42 000a 0021     		movs	r1, #0
  43              	.LVL1:
  44 000c 0846     		mov	r0, r1
  45              	.LVL2:
  46 000e FFF7FEFF 		bl	SetMotors
  47              	.LVL3:
  55:ZumoLibrary/Motor.c **** }
  48              		.loc 1 55 0
  49 0012 03B0     		add	sp, sp, #12
  50              		.cfi_def_cfa_offset 4
  51              		@ sp needed
  52 0014 5DF804FB 		ldr	pc, [sp], #4
  53              		.cfi_endproc
  54              	.LFE68:
  55              		.size	motor_forward, .-motor_forward
  56              		.section	.text.motor_turn,"ax",%progbits
  57              		.align	2
  58              		.global	motor_turn
  59              		.thumb
ARM GAS  C:\Users\EVGENY~1\AppData\Local\Temp\ccQX3Ztk.s 			page 3


  60              		.thumb_func
  61              		.type	motor_turn, %function
  62              	motor_turn:
  63              	.LFB69:
  56:ZumoLibrary/Motor.c **** 
  57:ZumoLibrary/Motor.c **** 
  58:ZumoLibrary/Motor.c **** /**
  59:ZumoLibrary/Motor.c **** * @brief    Moving motors to make a turn 
  60:ZumoLibrary/Motor.c **** * @details  moving left when l_speed < r_speed or moving right when l_speed > r_speed
  61:ZumoLibrary/Motor.c **** * @param    uint8 l_speed : left motor speed value
  62:ZumoLibrary/Motor.c **** * @param    uint8 r_speed : right motor speed value
  63:ZumoLibrary/Motor.c **** * @param    uint32 delay : delay time
  64:ZumoLibrary/Motor.c **** */
  65:ZumoLibrary/Motor.c **** void motor_turn(uint8 l_speed, uint8 r_speed, uint32 delay)
  66:ZumoLibrary/Motor.c **** {
  64              		.loc 1 66 0
  65              		.cfi_startproc
  66              		@ args = 0, pretend = 0, frame = 0
  67              		@ frame_needed = 0, uses_anonymous_args = 0
  68              	.LVL4:
  69 0000 00B5     		push	{lr}
  70              		.cfi_def_cfa_offset 4
  71              		.cfi_offset 14, -4
  72 0002 83B0     		sub	sp, sp, #12
  73              		.cfi_def_cfa_offset 16
  67:ZumoLibrary/Motor.c ****     SetMotors(0,0, l_speed, r_speed, delay);
  74              		.loc 1 67 0
  75 0004 0092     		str	r2, [sp]
  76 0006 0B46     		mov	r3, r1
  77 0008 0246     		mov	r2, r0
  78              	.LVL5:
  79 000a 0021     		movs	r1, #0
  80              	.LVL6:
  81 000c 0846     		mov	r0, r1
  82              	.LVL7:
  83 000e FFF7FEFF 		bl	SetMotors
  84              	.LVL8:
  68:ZumoLibrary/Motor.c **** }
  85              		.loc 1 68 0
  86 0012 03B0     		add	sp, sp, #12
  87              		.cfi_def_cfa_offset 4
  88              		@ sp needed
  89 0014 5DF804FB 		ldr	pc, [sp], #4
  90              		.cfi_endproc
  91              	.LFE69:
  92              		.size	motor_turn, .-motor_turn
  93              		.section	.text.motor_backward,"ax",%progbits
  94              		.align	2
  95              		.global	motor_backward
  96              		.thumb
  97              		.thumb_func
  98              		.type	motor_backward, %function
  99              	motor_backward:
 100              	.LFB70:
  69:ZumoLibrary/Motor.c **** 
  70:ZumoLibrary/Motor.c **** 
  71:ZumoLibrary/Motor.c **** /**
ARM GAS  C:\Users\EVGENY~1\AppData\Local\Temp\ccQX3Ztk.s 			page 4


  72:ZumoLibrary/Motor.c **** * @brief    Moving motors backward
  73:ZumoLibrary/Motor.c **** * @details  setting backward mode to each motors and gives same speed to each side of PWM
  74:ZumoLibrary/Motor.c **** * @param    uint8 speed : speed value
  75:ZumoLibrary/Motor.c **** * @param    uint32 delay : delay time
  76:ZumoLibrary/Motor.c **** */
  77:ZumoLibrary/Motor.c **** void motor_backward(uint8 speed,uint32 delay)
  78:ZumoLibrary/Motor.c **** {
 101              		.loc 1 78 0
 102              		.cfi_startproc
 103              		@ args = 0, pretend = 0, frame = 0
 104              		@ frame_needed = 0, uses_anonymous_args = 0
 105              	.LVL9:
 106 0000 00B5     		push	{lr}
 107              		.cfi_def_cfa_offset 4
 108              		.cfi_offset 14, -4
 109 0002 83B0     		sub	sp, sp, #12
 110              		.cfi_def_cfa_offset 16
 111 0004 0246     		mov	r2, r0
  79:ZumoLibrary/Motor.c ****     // set LeftMotor backward mode
  80:ZumoLibrary/Motor.c ****     // set RightMotor backward mode
  81:ZumoLibrary/Motor.c ****     SetMotors(1,1, speed, speed, delay);
 112              		.loc 1 81 0
 113 0006 0091     		str	r1, [sp]
 114 0008 0346     		mov	r3, r0
 115 000a 0121     		movs	r1, #1
 116              	.LVL10:
 117 000c 0846     		mov	r0, r1
 118              	.LVL11:
 119 000e FFF7FEFF 		bl	SetMotors
 120              	.LVL12:
  82:ZumoLibrary/Motor.c **** }
 121              		.loc 1 82 0
 122 0012 03B0     		add	sp, sp, #12
 123              		.cfi_def_cfa_offset 4
 124              		@ sp needed
 125 0014 5DF804FB 		ldr	pc, [sp], #4
 126              		.cfi_endproc
 127              	.LFE70:
 128              		.size	motor_backward, .-motor_backward
 129              		.text
 130              	.Letext0:
 131              		.file 2 "c:\\program files (x86)\\cypress\\psoc creator\\4.2\\psoc creator\\import\\gnu\\arm\\5.4.
 132              		.file 3 "c:\\program files (x86)\\cypress\\psoc creator\\4.2\\psoc creator\\import\\gnu\\arm\\5.4.
 133              		.file 4 "Generated_Source\\PSoC5/cytypes.h"
 134              		.file 5 "Generated_Source\\PSoC5/core_cm3.h"
 135              		.file 6 "ZumoLibrary\\Motor.h"