ARM GAS  C:\Users\EVGENY~1\AppData\Local\Temp\ccB5rvkc.s 			page 1


   1              		.syntax unified
   2              		.cpu cortex-m3
   3              		.fpu softvfp
   4              		.eabi_attribute 20, 1
   5              		.eabi_attribute 21, 1
   6              		.eabi_attribute 23, 3
   7              		.eabi_attribute 24, 1
   8              		.eabi_attribute 25, 1
   9              		.eabi_attribute 26, 1
  10              		.eabi_attribute 30, 1
  11              		.eabi_attribute 34, 1
  12              		.eabi_attribute 18, 4
  13              		.thumb
  14              		.syntax unified
  15              		.file	"mqtt_sender.c"
  16              		.text
  17              	.Ltext0:
  18              		.cfi_sections	.debug_frame
  19              		.section	.text.free_buffer,"ax",%progbits
  20              		.align	2
  21              		.thumb
  22              		.thumb_func
  23              		.type	free_buffer, %function
  24              	free_buffer:
  25              	.LFB71:
  26              		.file 1 "ZumoLibrary\\mqtt_sender.c"
   1:ZumoLibrary/mqtt_sender.c **** /* Standard includes. */
   2:ZumoLibrary/mqtt_sender.c **** #include <stdint.h>
   3:ZumoLibrary/mqtt_sender.c **** #include <stdio.h>
   4:ZumoLibrary/mqtt_sender.c **** #include <stdlib.h>
   5:ZumoLibrary/mqtt_sender.c **** #include <stdbool.h>
   6:ZumoLibrary/mqtt_sender.c **** #include <stdarg.h>
   7:ZumoLibrary/mqtt_sender.c **** 
   8:ZumoLibrary/mqtt_sender.c **** /* FreeRTOS includes. */
   9:ZumoLibrary/mqtt_sender.c **** #include "FreeRTOS.h"
  10:ZumoLibrary/mqtt_sender.c **** #include "task.h"
  11:ZumoLibrary/mqtt_sender.c **** #include "queue.h"
  12:ZumoLibrary/mqtt_sender.c **** 
  13:ZumoLibrary/mqtt_sender.c **** #include "MQTTFreeRTOS.h"
  14:ZumoLibrary/mqtt_sender.c **** #include "MQTTClient.h"
  15:ZumoLibrary/mqtt_sender.c **** #include "mqtt_sender.h"
  16:ZumoLibrary/mqtt_sender.c **** #include "zumo_config.h"
  17:ZumoLibrary/mqtt_sender.c **** 
  18:ZumoLibrary/mqtt_sender.c **** 
  19:ZumoLibrary/mqtt_sender.c **** 
  20:ZumoLibrary/mqtt_sender.c **** typedef struct mqtt_message_ {
  21:ZumoLibrary/mqtt_sender.c ****     const char *topic;
  22:ZumoLibrary/mqtt_sender.c ****     char *message;
  23:ZumoLibrary/mqtt_sender.c ****     void (*free)(void *);
  24:ZumoLibrary/mqtt_sender.c **** } mqtt_message_t;
  25:ZumoLibrary/mqtt_sender.c **** 
  26:ZumoLibrary/mqtt_sender.c **** #define MAX_MESSAGE 32
  27:ZumoLibrary/mqtt_sender.c **** #define BUFFER_SIZE 80
  28:ZumoLibrary/mqtt_sender.c **** static QueueHandle_t msg_q;
  29:ZumoLibrary/mqtt_sender.c **** static QueueHandle_t buf_q;
  30:ZumoLibrary/mqtt_sender.c **** static char buffers[MAX_MESSAGE][BUFFER_SIZE];
  31:ZumoLibrary/mqtt_sender.c **** 
ARM GAS  C:\Users\EVGENY~1\AppData\Local\Temp\ccB5rvkc.s 			page 2


  32:ZumoLibrary/mqtt_sender.c **** void MQTTSendTaskInit(void)
  33:ZumoLibrary/mqtt_sender.c **** {
  34:ZumoLibrary/mqtt_sender.c ****     msg_q = xQueueCreate(MAX_MESSAGE, sizeof(mqtt_message_t));
  35:ZumoLibrary/mqtt_sender.c ****     buf_q = xQueueCreate(MAX_MESSAGE, sizeof(char *));
  36:ZumoLibrary/mqtt_sender.c **** }
  37:ZumoLibrary/mqtt_sender.c **** 
  38:ZumoLibrary/mqtt_sender.c **** #if ZUMO_SIMULATOR == 0
  39:ZumoLibrary/mqtt_sender.c **** void MQTTSendTask(void *pvParameters)
  40:ZumoLibrary/mqtt_sender.c **** {
  41:ZumoLibrary/mqtt_sender.c ****     (void) pvParameters;
  42:ZumoLibrary/mqtt_sender.c **** 	MQTTClient client;
  43:ZumoLibrary/mqtt_sender.c **** 	Network network;
  44:ZumoLibrary/mqtt_sender.c **** 	unsigned char sendbuf[128], readbuf[128];
  45:ZumoLibrary/mqtt_sender.c **** 	int rc = 0;
  46:ZumoLibrary/mqtt_sender.c **** 	MQTTPacket_connectData connectData = MQTTPacket_connectData_initializer;
  47:ZumoLibrary/mqtt_sender.c ****     
  48:ZumoLibrary/mqtt_sender.c ****     for(int i = 0; i < MAX_MESSAGE; ++i) {
  49:ZumoLibrary/mqtt_sender.c ****         char *p = buffers[i];
  50:ZumoLibrary/mqtt_sender.c ****         xQueueSend(buf_q, &p, 0);
  51:ZumoLibrary/mqtt_sender.c ****     }
  52:ZumoLibrary/mqtt_sender.c **** 
  53:ZumoLibrary/mqtt_sender.c **** 	NetworkInit(&network, NETWORK_SSID, NETWORK_PASSWORD);
  54:ZumoLibrary/mqtt_sender.c ****     
  55:ZumoLibrary/mqtt_sender.c **** 	MQTTClientInit(&client, &network, 30000, sendbuf, sizeof(sendbuf), readbuf, sizeof(readbuf));
  56:ZumoLibrary/mqtt_sender.c **** 
  57:ZumoLibrary/mqtt_sender.c **** 	char* address = MQTT_BROKER;
  58:ZumoLibrary/mqtt_sender.c **** 	if ((rc = NetworkConnect(&network, address, 1883)) != 0)
  59:ZumoLibrary/mqtt_sender.c **** 		printf("Return code from network connect is %d\n", rc);
  60:ZumoLibrary/mqtt_sender.c **** 
  61:ZumoLibrary/mqtt_sender.c **** #if defined(MQTT_TASK)
  62:ZumoLibrary/mqtt_sender.c **** 	if ((rc = MQTTStartTask(&client)) != pdPASS)
  63:ZumoLibrary/mqtt_sender.c **** 		printf("Return code from start tasks is %d\n", rc);
  64:ZumoLibrary/mqtt_sender.c **** #else
  65:ZumoLibrary/mqtt_sender.c ****     #error "MQTT_TASK not defined"
  66:ZumoLibrary/mqtt_sender.c **** #endif
  67:ZumoLibrary/mqtt_sender.c **** 
  68:ZumoLibrary/mqtt_sender.c **** 	connectData.MQTTVersion = 3;
  69:ZumoLibrary/mqtt_sender.c **** 	connectData.clientID.cstring = MQTT_CLIENT_ID;
  70:ZumoLibrary/mqtt_sender.c **** 
  71:ZumoLibrary/mqtt_sender.c **** 	if ((rc = MQTTConnect(&client, &connectData)) != 0)
  72:ZumoLibrary/mqtt_sender.c **** 		printf("Return code from MQTT connect is %d\n", rc);
  73:ZumoLibrary/mqtt_sender.c **** 	else
  74:ZumoLibrary/mqtt_sender.c **** 		printf("MQTT Connected\n");
  75:ZumoLibrary/mqtt_sender.c **** 
  76:ZumoLibrary/mqtt_sender.c ****     while(true)
  77:ZumoLibrary/mqtt_sender.c **** 	{
  78:ZumoLibrary/mqtt_sender.c ****         mqtt_message_t msg;
  79:ZumoLibrary/mqtt_sender.c ****         
  80:ZumoLibrary/mqtt_sender.c ****         if(xQueueReceive(msg_q, &msg, portMAX_DELAY) == pdFALSE) {
  81:ZumoLibrary/mqtt_sender.c ****             // this should never happen
  82:ZumoLibrary/mqtt_sender.c ****             vTaskDelay(configTICK_RATE_HZ);
  83:ZumoLibrary/mqtt_sender.c ****             continue;
  84:ZumoLibrary/mqtt_sender.c ****         }
  85:ZumoLibrary/mqtt_sender.c ****         
  86:ZumoLibrary/mqtt_sender.c **** 		MQTTMessage message;
  87:ZumoLibrary/mqtt_sender.c **** 
  88:ZumoLibrary/mqtt_sender.c **** 		message.qos = QOS0;
ARM GAS  C:\Users\EVGENY~1\AppData\Local\Temp\ccB5rvkc.s 			page 3


  89:ZumoLibrary/mqtt_sender.c **** 		message.retained = 0;
  90:ZumoLibrary/mqtt_sender.c **** 		message.payload = (void *) msg.message;
  91:ZumoLibrary/mqtt_sender.c **** 		message.payloadlen = strlen(msg.message);
  92:ZumoLibrary/mqtt_sender.c **** 
  93:ZumoLibrary/mqtt_sender.c **** 		if ((rc = MQTTPublish(&client, msg.topic, &message)) != 0) {
  94:ZumoLibrary/mqtt_sender.c **** 			printf("Return code from MQTT publish is %d\n", rc);
  95:ZumoLibrary/mqtt_sender.c ****         }
  96:ZumoLibrary/mqtt_sender.c ****         if(msg.free != NULL) {
  97:ZumoLibrary/mqtt_sender.c ****             msg.free(msg.message);
  98:ZumoLibrary/mqtt_sender.c ****         }
  99:ZumoLibrary/mqtt_sender.c **** 	}
 100:ZumoLibrary/mqtt_sender.c **** 
 101:ZumoLibrary/mqtt_sender.c **** 	/* do not return */
 102:ZumoLibrary/mqtt_sender.c **** }
 103:ZumoLibrary/mqtt_sender.c **** #else
 104:ZumoLibrary/mqtt_sender.c **** void MQTTSendTask(void *pvParameters)
 105:ZumoLibrary/mqtt_sender.c **** {
 106:ZumoLibrary/mqtt_sender.c ****     (void) pvParameters;
 107:ZumoLibrary/mqtt_sender.c ****     mqtt_message_t msg;
 108:ZumoLibrary/mqtt_sender.c ****     
 109:ZumoLibrary/mqtt_sender.c ****     for(int i = 0; i < MAX_MESSAGE; ++i) {
 110:ZumoLibrary/mqtt_sender.c ****         char *p = buffers[i];
 111:ZumoLibrary/mqtt_sender.c ****         xQueueSend(buf_q, &p, 0);
 112:ZumoLibrary/mqtt_sender.c ****     }
 113:ZumoLibrary/mqtt_sender.c **** 
 114:ZumoLibrary/mqtt_sender.c ****     while(true)
 115:ZumoLibrary/mqtt_sender.c **** 	{
 116:ZumoLibrary/mqtt_sender.c ****         if(xQueueReceive(msg_q, &msg, portMAX_DELAY) == pdFALSE) {
 117:ZumoLibrary/mqtt_sender.c ****             // this should never happen
 118:ZumoLibrary/mqtt_sender.c ****             vTaskDelay(configTICK_RATE_HZ);
 119:ZumoLibrary/mqtt_sender.c ****         }
 120:ZumoLibrary/mqtt_sender.c ****         
 121:ZumoLibrary/mqtt_sender.c ****         /* print message here */
 122:ZumoLibrary/mqtt_sender.c ****         fputs("MQTT ", stdout);
 123:ZumoLibrary/mqtt_sender.c ****         fputs(msg.topic, stdout);
 124:ZumoLibrary/mqtt_sender.c ****         fputs(" ", stdout);
 125:ZumoLibrary/mqtt_sender.c ****         fputs(msg.message, stdout);
 126:ZumoLibrary/mqtt_sender.c ****         fputs("\n", stdout);
 127:ZumoLibrary/mqtt_sender.c ****         
 128:ZumoLibrary/mqtt_sender.c ****         if(msg.free != NULL) {
 129:ZumoLibrary/mqtt_sender.c ****             msg.free(msg.message);
 130:ZumoLibrary/mqtt_sender.c ****         }
 131:ZumoLibrary/mqtt_sender.c **** 	}
 132:ZumoLibrary/mqtt_sender.c **** 
 133:ZumoLibrary/mqtt_sender.c **** 	/* do not return */
 134:ZumoLibrary/mqtt_sender.c **** }
 135:ZumoLibrary/mqtt_sender.c **** #endif    
 136:ZumoLibrary/mqtt_sender.c **** 
 137:ZumoLibrary/mqtt_sender.c **** #if START_MQTT == 1
 138:ZumoLibrary/mqtt_sender.c **** static void free_buffer(void *buffer) 
 139:ZumoLibrary/mqtt_sender.c **** {
  27              		.loc 1 139 0
  28              		.cfi_startproc
  29              		@ args = 0, pretend = 0, frame = 8
  30              		@ frame_needed = 0, uses_anonymous_args = 0
  31              	.LVL0:
  32 0000 00B5     		push	{lr}
ARM GAS  C:\Users\EVGENY~1\AppData\Local\Temp\ccB5rvkc.s 			page 4


  33              		.cfi_def_cfa_offset 4
  34              		.cfi_offset 14, -4
  35 0002 83B0     		sub	sp, sp, #12
  36              		.cfi_def_cfa_offset 16
  37 0004 02A9     		add	r1, sp, #8
  38 0006 41F8040D 		str	r0, [r1, #-4]!
 140:ZumoLibrary/mqtt_sender.c ****     xQueueSend(buf_q, &buffer, 0);
  39              		.loc 1 140 0
  40 000a 0023     		movs	r3, #0
  41 000c 1A46     		mov	r2, r3
  42 000e 0348     		ldr	r0, .L3
  43              	.LVL1:
  44 0010 0068     		ldr	r0, [r0]
  45 0012 FFF7FEFF 		bl	xQueueGenericSend
  46              	.LVL2:
 141:ZumoLibrary/mqtt_sender.c **** }    
  47              		.loc 1 141 0
  48 0016 03B0     		add	sp, sp, #12
  49              		.cfi_def_cfa_offset 4
  50              		@ sp needed
  51 0018 5DF804FB 		ldr	pc, [sp], #4
  52              	.LVL3:
  53              	.L4:
  54              		.align	2
  55              	.L3:
  56 001c 00000000 		.word	.LANCHOR0
  57              		.cfi_endproc
  58              	.LFE71:
  59              		.size	free_buffer, .-free_buffer
  60              		.section	.text.MQTTSendTaskInit,"ax",%progbits
  61              		.align	2
  62              		.global	MQTTSendTaskInit
  63              		.thumb
  64              		.thumb_func
  65              		.type	MQTTSendTaskInit, %function
  66              	MQTTSendTaskInit:
  67              	.LFB69:
  33:ZumoLibrary/mqtt_sender.c ****     msg_q = xQueueCreate(MAX_MESSAGE, sizeof(mqtt_message_t));
  68              		.loc 1 33 0
  69              		.cfi_startproc
  70              		@ args = 0, pretend = 0, frame = 0
  71              		@ frame_needed = 0, uses_anonymous_args = 0
  72 0000 10B5     		push	{r4, lr}
  73              		.cfi_def_cfa_offset 8
  74              		.cfi_offset 4, -8
  75              		.cfi_offset 14, -4
  34:ZumoLibrary/mqtt_sender.c ****     buf_q = xQueueCreate(MAX_MESSAGE, sizeof(char *));
  76              		.loc 1 34 0
  77 0002 0022     		movs	r2, #0
  78 0004 0C21     		movs	r1, #12
  79 0006 2020     		movs	r0, #32
  80 0008 FFF7FEFF 		bl	xQueueGenericCreate
  81              	.LVL4:
  82 000c 044C     		ldr	r4, .L7
  83 000e 6060     		str	r0, [r4, #4]
  35:ZumoLibrary/mqtt_sender.c **** }
  84              		.loc 1 35 0
ARM GAS  C:\Users\EVGENY~1\AppData\Local\Temp\ccB5rvkc.s 			page 5


  85 0010 0022     		movs	r2, #0
  86 0012 0421     		movs	r1, #4
  87 0014 2020     		movs	r0, #32
  88 0016 FFF7FEFF 		bl	xQueueGenericCreate
  89              	.LVL5:
  90 001a 2060     		str	r0, [r4]
  91 001c 10BD     		pop	{r4, pc}
  92              	.L8:
  93 001e 00BF     		.align	2
  94              	.L7:
  95 0020 00000000 		.word	.LANCHOR0
  96              		.cfi_endproc
  97              	.LFE69:
  98              		.size	MQTTSendTaskInit, .-MQTTSendTaskInit
  99              		.section	.text.MQTTSendTask,"ax",%progbits
 100              		.align	2
 101              		.global	MQTTSendTask
 102              		.thumb
 103              		.thumb_func
 104              		.type	MQTTSendTask, %function
 105              	MQTTSendTask:
 106              	.LFB70:
 105:ZumoLibrary/mqtt_sender.c ****     (void) pvParameters;
 107              		.loc 1 105 0
 108              		.cfi_startproc
 109              		@ args = 0, pretend = 0, frame = 16
 110              		@ frame_needed = 0, uses_anonymous_args = 0
 111              	.LVL6:
 112 0000 10B5     		push	{r4, lr}
 113              		.cfi_def_cfa_offset 8
 114              		.cfi_offset 4, -8
 115              		.cfi_offset 14, -4
 116 0002 84B0     		sub	sp, sp, #16
 117              		.cfi_def_cfa_offset 24
 118              	.LVL7:
 119              	.LBB2:
 109:ZumoLibrary/mqtt_sender.c ****         char *p = buffers[i];
 120              		.loc 1 109 0
 121 0004 0024     		movs	r4, #0
 122 0006 0FE0     		b	.L10
 123              	.LVL8:
 124              	.L11:
 125              	.LBB3:
 110:ZumoLibrary/mqtt_sender.c ****         xQueueSend(buf_q, &p, 0);
 126              		.loc 1 110 0 discriminator 3
 127 0008 1F48     		ldr	r0, .L16
 128 000a 00F10801 		add	r1, r0, #8
 129 000e 04EB8402 		add	r2, r4, r4, lsl #2
 130 0012 1301     		lsls	r3, r2, #4
 131 0014 0B44     		add	r3, r3, r1
 132 0016 04A9     		add	r1, sp, #16
 133 0018 41F8103D 		str	r3, [r1, #-16]!
 111:ZumoLibrary/mqtt_sender.c ****     }
 134              		.loc 1 111 0 discriminator 3
 135 001c 0023     		movs	r3, #0
 136 001e 1A46     		mov	r2, r3
 137 0020 0068     		ldr	r0, [r0]
ARM GAS  C:\Users\EVGENY~1\AppData\Local\Temp\ccB5rvkc.s 			page 6


 138 0022 FFF7FEFF 		bl	xQueueGenericSend
 139              	.LVL9:
 140              	.LBE3:
 109:ZumoLibrary/mqtt_sender.c ****         char *p = buffers[i];
 141              		.loc 1 109 0 discriminator 3
 142 0026 0134     		adds	r4, r4, #1
 143              	.LVL10:
 144              	.L10:
 109:ZumoLibrary/mqtt_sender.c ****         char *p = buffers[i];
 145              		.loc 1 109 0 is_stmt 0 discriminator 1
 146 0028 1F2C     		cmp	r4, #31
 147 002a EDDD     		ble	.L11
 148              	.LVL11:
 149              	.L13:
 150              	.LBE2:
 116:ZumoLibrary/mqtt_sender.c ****             // this should never happen
 151              		.loc 1 116 0 is_stmt 1
 152 002c 4FF0FF32 		mov	r2, #-1
 153 0030 01A9     		add	r1, sp, #4
 154 0032 154B     		ldr	r3, .L16
 155 0034 5868     		ldr	r0, [r3, #4]
 156 0036 FFF7FEFF 		bl	xQueueReceive
 157              	.LVL12:
 158 003a 18B9     		cbnz	r0, .L12
 118:ZumoLibrary/mqtt_sender.c ****         }
 159              		.loc 1 118 0
 160 003c 4FF47A70 		mov	r0, #1000
 161 0040 FFF7FEFF 		bl	vTaskDelay
 162              	.LVL13:
 163              	.L12:
 122:ZumoLibrary/mqtt_sender.c ****         fputs(msg.topic, stdout);
 164              		.loc 1 122 0
 165 0044 114C     		ldr	r4, .L16+4
 166 0046 2368     		ldr	r3, [r4]
 167 0048 9B68     		ldr	r3, [r3, #8]
 168 004a 0522     		movs	r2, #5
 169 004c 0121     		movs	r1, #1
 170 004e 1048     		ldr	r0, .L16+8
 171 0050 FFF7FEFF 		bl	fwrite
 172              	.LVL14:
 123:ZumoLibrary/mqtt_sender.c ****         fputs(" ", stdout);
 173              		.loc 1 123 0
 174 0054 2368     		ldr	r3, [r4]
 175 0056 9968     		ldr	r1, [r3, #8]
 176 0058 0198     		ldr	r0, [sp, #4]
 177 005a FFF7FEFF 		bl	fputs
 178              	.LVL15:
 124:ZumoLibrary/mqtt_sender.c ****         fputs(msg.message, stdout);
 179              		.loc 1 124 0
 180 005e 2368     		ldr	r3, [r4]
 181 0060 9968     		ldr	r1, [r3, #8]
 182 0062 2020     		movs	r0, #32
 183 0064 FFF7FEFF 		bl	fputc
 184              	.LVL16:
 125:ZumoLibrary/mqtt_sender.c ****         fputs("\n", stdout);
 185              		.loc 1 125 0
 186 0068 2368     		ldr	r3, [r4]
ARM GAS  C:\Users\EVGENY~1\AppData\Local\Temp\ccB5rvkc.s 			page 7


 187 006a 9968     		ldr	r1, [r3, #8]
 188 006c 0298     		ldr	r0, [sp, #8]
 189 006e FFF7FEFF 		bl	fputs
 190              	.LVL17:
 126:ZumoLibrary/mqtt_sender.c ****         
 191              		.loc 1 126 0
 192 0072 2368     		ldr	r3, [r4]
 193 0074 9968     		ldr	r1, [r3, #8]
 194 0076 0A20     		movs	r0, #10
 195 0078 FFF7FEFF 		bl	fputc
 196              	.LVL18:
 128:ZumoLibrary/mqtt_sender.c ****             msg.free(msg.message);
 197              		.loc 1 128 0
 198 007c 039B     		ldr	r3, [sp, #12]
 199 007e 002B     		cmp	r3, #0
 200 0080 D4D0     		beq	.L13
 129:ZumoLibrary/mqtt_sender.c ****         }
 201              		.loc 1 129 0
 202 0082 0298     		ldr	r0, [sp, #8]
 203 0084 9847     		blx	r3
 204              	.LVL19:
 205 0086 D1E7     		b	.L13
 206              	.L17:
 207              		.align	2
 208              	.L16:
 209 0088 00000000 		.word	.LANCHOR0
 210 008c 00000000 		.word	_impure_ptr
 211 0090 00000000 		.word	.LC0
 212              		.cfi_endproc
 213              	.LFE70:
 214              		.size	MQTTSendTask, .-MQTTSendTask
 215              		.section	.text.send_mqtt,"ax",%progbits
 216              		.align	2
 217              		.global	send_mqtt
 218              		.thumb
 219              		.thumb_func
 220              		.type	send_mqtt, %function
 221              	send_mqtt:
 222              	.LFB73:
 142:ZumoLibrary/mqtt_sender.c **** #endif
 143:ZumoLibrary/mqtt_sender.c **** 
 144:ZumoLibrary/mqtt_sender.c **** int print_mqtt(const char *topic, const char *fmt, ...)
 145:ZumoLibrary/mqtt_sender.c **** {
 146:ZumoLibrary/mqtt_sender.c **** #if START_MQTT == 1
 147:ZumoLibrary/mqtt_sender.c ****     va_list argptr;
 148:ZumoLibrary/mqtt_sender.c ****     int cnt=0;
 149:ZumoLibrary/mqtt_sender.c ****     char pbuf[BUFFER_SIZE];
 150:ZumoLibrary/mqtt_sender.c **** 
 151:ZumoLibrary/mqtt_sender.c ****     va_start(argptr, fmt);
 152:ZumoLibrary/mqtt_sender.c ****     cnt = vsnprintf(pbuf, BUFFER_SIZE, fmt, argptr);
 153:ZumoLibrary/mqtt_sender.c ****     va_end(argptr);
 154:ZumoLibrary/mqtt_sender.c **** 
 155:ZumoLibrary/mqtt_sender.c ****     send_mqtt(topic, pbuf);
 156:ZumoLibrary/mqtt_sender.c **** 
 157:ZumoLibrary/mqtt_sender.c ****     return(cnt);
 158:ZumoLibrary/mqtt_sender.c **** #else
 159:ZumoLibrary/mqtt_sender.c ****     (void) topic;
ARM GAS  C:\Users\EVGENY~1\AppData\Local\Temp\ccB5rvkc.s 			page 8


 160:ZumoLibrary/mqtt_sender.c ****     (void) fmt;
 161:ZumoLibrary/mqtt_sender.c ****     return 0;
 162:ZumoLibrary/mqtt_sender.c **** #endif    
 163:ZumoLibrary/mqtt_sender.c **** }
 164:ZumoLibrary/mqtt_sender.c **** 
 165:ZumoLibrary/mqtt_sender.c **** void send_mqtt(const char *topic, const char *message)
 166:ZumoLibrary/mqtt_sender.c **** {
 223              		.loc 1 166 0
 224              		.cfi_startproc
 225              		@ args = 0, pretend = 0, frame = 16
 226              		@ frame_needed = 0, uses_anonymous_args = 0
 227              	.LVL20:
 228 0000 10B5     		push	{r4, lr}
 229              		.cfi_def_cfa_offset 8
 230              		.cfi_offset 4, -8
 231              		.cfi_offset 14, -4
 232 0002 84B0     		sub	sp, sp, #16
 233              		.cfi_def_cfa_offset 24
 234 0004 0C46     		mov	r4, r1
 167:ZumoLibrary/mqtt_sender.c **** #if START_MQTT == 1
 168:ZumoLibrary/mqtt_sender.c ****     mqtt_message_t msg;
 169:ZumoLibrary/mqtt_sender.c ****     msg.topic = topic;
 235              		.loc 1 169 0
 236 0006 0190     		str	r0, [sp, #4]
 170:ZumoLibrary/mqtt_sender.c ****     if(xQueueReceive(buf_q, &msg.message, configTICK_RATE_HZ / 10) == pdFALSE) {
 237              		.loc 1 170 0
 238 0008 6422     		movs	r2, #100
 239 000a 02A9     		add	r1, sp, #8
 240              	.LVL21:
 241 000c 0D4B     		ldr	r3, .L23
 242 000e 1868     		ldr	r0, [r3]
 243              	.LVL22:
 244 0010 FFF7FEFF 		bl	xQueueReceive
 245              	.LVL23:
 246 0014 A0B1     		cbz	r0, .L18
 171:ZumoLibrary/mqtt_sender.c ****         return;
 172:ZumoLibrary/mqtt_sender.c ****     }
 173:ZumoLibrary/mqtt_sender.c ****     strncpy(msg.message, message, BUFFER_SIZE - 1);
 247              		.loc 1 173 0
 248 0016 4F22     		movs	r2, #79
 249 0018 2146     		mov	r1, r4
 250 001a 0298     		ldr	r0, [sp, #8]
 251 001c FFF7FEFF 		bl	strncpy
 252              	.LVL24:
 174:ZumoLibrary/mqtt_sender.c ****     msg.message[BUFFER_SIZE - 1] = '\0';
 253              		.loc 1 174 0
 254 0020 0023     		movs	r3, #0
 255 0022 029A     		ldr	r2, [sp, #8]
 256 0024 82F84F30 		strb	r3, [r2, #79]
 175:ZumoLibrary/mqtt_sender.c ****     msg.free = free_buffer;
 257              		.loc 1 175 0
 258 0028 074A     		ldr	r2, .L23+4
 259 002a 0392     		str	r2, [sp, #12]
 176:ZumoLibrary/mqtt_sender.c ****     if(xQueueSend(msg_q, &msg, configTICK_RATE_HZ / 10) == pdFALSE) {
 260              		.loc 1 176 0
 261 002c 6422     		movs	r2, #100
 262 002e 01A9     		add	r1, sp, #4
ARM GAS  C:\Users\EVGENY~1\AppData\Local\Temp\ccB5rvkc.s 			page 9


 263 0030 0448     		ldr	r0, .L23
 264 0032 4068     		ldr	r0, [r0, #4]
 265 0034 FFF7FEFF 		bl	xQueueGenericSend
 266              	.LVL25:
 267 0038 10B9     		cbnz	r0, .L18
 177:ZumoLibrary/mqtt_sender.c ****         free_buffer(msg.message);
 268              		.loc 1 177 0
 269 003a 0298     		ldr	r0, [sp, #8]
 270 003c FFF7FEFF 		bl	free_buffer
 271              	.LVL26:
 272              	.L18:
 178:ZumoLibrary/mqtt_sender.c ****     }
 179:ZumoLibrary/mqtt_sender.c **** #else
 180:ZumoLibrary/mqtt_sender.c ****     (void) topic;
 181:ZumoLibrary/mqtt_sender.c ****     (void) message;
 182:ZumoLibrary/mqtt_sender.c **** #endif    
 183:ZumoLibrary/mqtt_sender.c ****   
 184:ZumoLibrary/mqtt_sender.c **** }
 273              		.loc 1 184 0
 274 0040 04B0     		add	sp, sp, #16
 275              		.cfi_def_cfa_offset 8
 276              		@ sp needed
 277 0042 10BD     		pop	{r4, pc}
 278              	.LVL27:
 279              	.L24:
 280              		.align	2
 281              	.L23:
 282 0044 00000000 		.word	.LANCHOR0
 283 0048 00000000 		.word	free_buffer
 284              		.cfi_endproc
 285              	.LFE73:
 286              		.size	send_mqtt, .-send_mqtt
 287              		.section	.text.print_mqtt,"ax",%progbits
 288              		.align	2
 289              		.global	print_mqtt
 290              		.thumb
 291              		.thumb_func
 292              		.type	print_mqtt, %function
 293              	print_mqtt:
 294              	.LFB72:
 145:ZumoLibrary/mqtt_sender.c **** #if START_MQTT == 1
 295              		.loc 1 145 0
 296              		.cfi_startproc
 297              		@ args = 4, pretend = 12, frame = 88
 298              		@ frame_needed = 0, uses_anonymous_args = 1
 299              	.LVL28:
 300 0000 0EB4     		push	{r1, r2, r3}
 301              		.cfi_def_cfa_offset 12
 302              		.cfi_offset 1, -12
 303              		.cfi_offset 2, -8
 304              		.cfi_offset 3, -4
 305 0002 30B5     		push	{r4, r5, lr}
 306              		.cfi_def_cfa_offset 24
 307              		.cfi_offset 4, -24
 308              		.cfi_offset 5, -20
 309              		.cfi_offset 14, -16
 310 0004 96B0     		sub	sp, sp, #88
ARM GAS  C:\Users\EVGENY~1\AppData\Local\Temp\ccB5rvkc.s 			page 10


 311              		.cfi_def_cfa_offset 112
 312 0006 0546     		mov	r5, r0
 313 0008 19AB     		add	r3, sp, #100
 314 000a 53F8042B 		ldr	r2, [r3], #4
 315              	.LVL29:
 151:ZumoLibrary/mqtt_sender.c ****     cnt = vsnprintf(pbuf, BUFFER_SIZE, fmt, argptr);
 316              		.loc 1 151 0
 317 000e 1593     		str	r3, [sp, #84]
 152:ZumoLibrary/mqtt_sender.c ****     va_end(argptr);
 318              		.loc 1 152 0
 319 0010 5021     		movs	r1, #80
 320 0012 01A8     		add	r0, sp, #4
 321              	.LVL30:
 322 0014 FFF7FEFF 		bl	vsnprintf
 323              	.LVL31:
 324 0018 0446     		mov	r4, r0
 325              	.LVL32:
 155:ZumoLibrary/mqtt_sender.c **** 
 326              		.loc 1 155 0
 327 001a 01A9     		add	r1, sp, #4
 328 001c 2846     		mov	r0, r5
 329              	.LVL33:
 330 001e FFF7FEFF 		bl	send_mqtt
 331              	.LVL34:
 163:ZumoLibrary/mqtt_sender.c **** 
 332              		.loc 1 163 0
 333 0022 2046     		mov	r0, r4
 334 0024 16B0     		add	sp, sp, #88
 335              		.cfi_def_cfa_offset 24
 336              		@ sp needed
 337 0026 BDE83040 		pop	{r4, r5, lr}
 338              		.cfi_restore 14
 339              		.cfi_restore 5
 340              		.cfi_restore 4
 341              		.cfi_def_cfa_offset 12
 342              	.LVL35:
 343 002a 03B0     		add	sp, sp, #12
 344              		.cfi_restore 3
 345              		.cfi_restore 2
 346              		.cfi_restore 1
 347              		.cfi_def_cfa_offset 0
 348 002c 7047     		bx	lr
 349              		.cfi_endproc
 350              	.LFE72:
 351              		.size	print_mqtt, .-print_mqtt
 352 002e 00BF     		.section	.rodata.str1.4,"aMS",%progbits,1
 353              		.align	2
 354              	.LC0:
 355 0000 4D515454 		.ascii	"MQTT \000"
 355      2000
 356              		.bss
 357              		.align	2
 358              		.set	.LANCHOR0,. + 0
 359              		.type	buf_q, %object
 360              		.size	buf_q, 4
 361              	buf_q:
 362 0000 00000000 		.space	4
ARM GAS  C:\Users\EVGENY~1\AppData\Local\Temp\ccB5rvkc.s 			page 11


 363              		.type	msg_q, %object
 364              		.size	msg_q, 4
 365              	msg_q:
 366 0004 00000000 		.space	4
 367              		.type	buffers, %object
 368              		.size	buffers, 2560
 369              	buffers:
 370 0008 00000000 		.space	2560
 370      00000000 
 370      00000000 
 370      00000000 
 370      00000000 
 371              		.text
 372              	.Letext0:
 373              		.file 2 "c:\\program files (x86)\\cypress\\psoc creator\\4.2\\psoc creator\\import\\gnu\\arm\\5.4.
 374              		.file 3 "c:\\program files (x86)\\cypress\\psoc creator\\4.2\\psoc creator\\import\\gnu\\arm\\5.4.
 375              		.file 4 "c:\\program files (x86)\\cypress\\psoc creator\\4.2\\psoc creator\\import\\gnu\\arm\\5.4.
 376              		.file 5 "c:\\program files (x86)\\cypress\\psoc creator\\4.2\\psoc creator\\import\\gnu\\arm\\5.4.
 377              		.file 6 "c:\\program files (x86)\\cypress\\psoc creator\\4.2\\psoc creator\\import\\gnu\\arm\\5.4.
 378              		.file 7 "c:\\program files (x86)\\cypress\\psoc creator\\4.2\\psoc creator\\import\\gnu\\arm\\5.4.
 379              		.file 8 "c:\\program files (x86)\\cypress\\psoc creator\\4.2\\psoc creator\\import\\gnu\\arm\\5.4.
 380              		.file 9 "<built-in>"
 381              		.file 10 "..\\FreeRTOS\\Source\\portable\\GCC\\ARM_CM3/portmacro.h"
 382              		.file 11 "..\\FreeRTOS\\Source\\include/queue.h"
 383              		.file 12 "Generated_Source\\PSoC5/core_cm3.h"
 384              		.file 13 "..\\FreeRTOS\\Source\\include/task.h"
 385              		.file 14 "c:\\program files (x86)\\cypress\\psoc creator\\4.2\\psoc creator\\import\\gnu\\arm\\5.4
 386              		.file 15 "c:\\program files (x86)\\cypress\\psoc creator\\4.2\\psoc creator\\import\\gnu\\arm\\5.4