ARM GAS  C:\Users\EVGENY~1\AppData\Local\Temp\ccOuw7ka.s 			page 1


   1              		.syntax unified
   2              		.cpu cortex-m3
   3              		.fpu softvfp
   4              		.eabi_attribute 20, 1
   5              		.eabi_attribute 21, 1
   6              		.eabi_attribute 23, 3
   7              		.eabi_attribute 24, 1
   8              		.eabi_attribute 25, 1
   9              		.eabi_attribute 26, 1
  10              		.eabi_attribute 30, 1
  11              		.eabi_attribute 34, 1
  12              		.eabi_attribute 18, 4
  13              		.thumb
  14              		.syntax unified
  15              		.file	"simulator.c"
  16              		.text
  17              	.Ltext0:
  18              		.cfi_sections	.debug_frame
  19              		.section	.text.send,"ax",%progbits
  20              		.align	2
  21              		.thumb
  22              		.thumb_func
  23              		.type	send, %function
  24              	send:
  25              	.LFB85:
  26              		.file 1 "ZumoLibrary\\simulator.c"
   1:ZumoLibrary/simulator.c **** #include "FreeRTOS.h"
   2:ZumoLibrary/simulator.c **** #include "task.h"
   3:ZumoLibrary/simulator.c **** #include "semphr.h"
   4:ZumoLibrary/simulator.c **** #include "project.h"
   5:ZumoLibrary/simulator.c **** #include "serial1.h"
   6:ZumoLibrary/simulator.c **** 
   7:ZumoLibrary/simulator.c **** #include "zumo_config.h"
   8:ZumoLibrary/simulator.c **** 
   9:ZumoLibrary/simulator.c **** #include "simulator.h"
  10:ZumoLibrary/simulator.c **** #include "Motor.h"
  11:ZumoLibrary/simulator.c **** #include "Reflectance.h"
  12:ZumoLibrary/simulator.c **** #include "Ultra.h"
  13:ZumoLibrary/simulator.c **** #include "IR.h"
  14:ZumoLibrary/simulator.c **** #include <stdio.h>
  15:ZumoLibrary/simulator.c **** 
  16:ZumoLibrary/simulator.c **** static QueueHandle_t motor_q;
  17:ZumoLibrary/simulator.c **** 
  18:ZumoLibrary/simulator.c **** void SimulatorTaskInit(void)
  19:ZumoLibrary/simulator.c **** {
  20:ZumoLibrary/simulator.c ****     motor_q = xQueueCreate(3, sizeof(SimData));
  21:ZumoLibrary/simulator.c **** }
  22:ZumoLibrary/simulator.c **** 
  23:ZumoLibrary/simulator.c **** #if ZUMO_SIMULATOR == 1
  24:ZumoLibrary/simulator.c **** static void send(const char *data, int len) ;
  25:ZumoLibrary/simulator.c ****     
  26:ZumoLibrary/simulator.c **** #define RUN_TIMEOUT 5
  27:ZumoLibrary/simulator.c **** #define STOP_TIMEOUT 25
  28:ZumoLibrary/simulator.c **** 
  29:ZumoLibrary/simulator.c **** static const char stopped[5] = {0,255,0,0,RUN_TIMEOUT};
  30:ZumoLibrary/simulator.c **** 
  31:ZumoLibrary/simulator.c **** static volatile int motor_started;    
ARM GAS  C:\Users\EVGENY~1\AppData\Local\Temp\ccOuw7ka.s 			page 2


  32:ZumoLibrary/simulator.c **** /*
  33:ZumoLibrary/simulator.c ****  * Motor simulator
  34:ZumoLibrary/simulator.c ****  */
  35:ZumoLibrary/simulator.c **** void SetMotors(uint8 left_dir, uint8 right_dir, uint8 left_speed, uint8 right_speed, uint32 delay)
  36:ZumoLibrary/simulator.c **** {
  37:ZumoLibrary/simulator.c ****     SimData sim = { left_dir, right_dir, left_speed, right_speed, delay };
  38:ZumoLibrary/simulator.c ****     if(!motor_started) {
  39:ZumoLibrary/simulator.c ****         printf("You haven't started motors\n");
  40:ZumoLibrary/simulator.c ****     }
  41:ZumoLibrary/simulator.c ****     if(delay < 2) {
  42:ZumoLibrary/simulator.c ****         sim.delay = 2;
  43:ZumoLibrary/simulator.c ****     }
  44:ZumoLibrary/simulator.c ****     xQueueSend(motor_q, &sim, portMAX_DELAY);
  45:ZumoLibrary/simulator.c ****     vTaskDelay(delay);
  46:ZumoLibrary/simulator.c **** }
  47:ZumoLibrary/simulator.c **** 
  48:ZumoLibrary/simulator.c **** 
  49:ZumoLibrary/simulator.c **** /**
  50:ZumoLibrary/simulator.c **** * @brief    Starting motor sensors
  51:ZumoLibrary/simulator.c **** * @details  
  52:ZumoLibrary/simulator.c **** */
  53:ZumoLibrary/simulator.c **** void motor_start()
  54:ZumoLibrary/simulator.c **** {
  55:ZumoLibrary/simulator.c ****     motor_started = 1;
  56:ZumoLibrary/simulator.c **** }
  57:ZumoLibrary/simulator.c **** 
  58:ZumoLibrary/simulator.c **** 
  59:ZumoLibrary/simulator.c **** /**
  60:ZumoLibrary/simulator.c **** * @brief    Stopping motor sensors
  61:ZumoLibrary/simulator.c **** * @details
  62:ZumoLibrary/simulator.c **** */
  63:ZumoLibrary/simulator.c **** void motor_stop()
  64:ZumoLibrary/simulator.c **** {
  65:ZumoLibrary/simulator.c ****     motor_started = 0;
  66:ZumoLibrary/simulator.c ****     send(stopped, 5);
  67:ZumoLibrary/simulator.c **** }
  68:ZumoLibrary/simulator.c **** 
  69:ZumoLibrary/simulator.c **** /*
  70:ZumoLibrary/simulator.c ****  * Reflectance sensor simulator
  71:ZumoLibrary/simulator.c ****  */
  72:ZumoLibrary/simulator.c **** 
  73:ZumoLibrary/simulator.c **** static volatile struct sensors_ sensors;
  74:ZumoLibrary/simulator.c **** static struct sensors_ threshold = { 10000, 10000, 10000, 10000, 10000, 10000};
  75:ZumoLibrary/simulator.c **** static volatile int reflectance_started;
  76:ZumoLibrary/simulator.c **** 
  77:ZumoLibrary/simulator.c **** /**
  78:ZumoLibrary/simulator.c **** * @brief    Starting Reflectance Sensor
  79:ZumoLibrary/simulator.c **** * @details 
  80:ZumoLibrary/simulator.c **** */
  81:ZumoLibrary/simulator.c **** void reflectance_start()
  82:ZumoLibrary/simulator.c **** {
  83:ZumoLibrary/simulator.c ****     reflectance_started = 1;
  84:ZumoLibrary/simulator.c **** }
  85:ZumoLibrary/simulator.c **** 
  86:ZumoLibrary/simulator.c **** /**
  87:ZumoLibrary/simulator.c **** * @brief    Read reflectance sensor values
  88:ZumoLibrary/simulator.c **** * @details
ARM GAS  C:\Users\EVGENY~1\AppData\Local\Temp\ccOuw7ka.s 			page 3


  89:ZumoLibrary/simulator.c **** */
  90:ZumoLibrary/simulator.c **** void reflectance_read(struct sensors_ *values)
  91:ZumoLibrary/simulator.c **** {
  92:ZumoLibrary/simulator.c ****     if(!reflectance_started) {
  93:ZumoLibrary/simulator.c ****         printf("You haven't started reflectance sensor\n");
  94:ZumoLibrary/simulator.c ****     }
  95:ZumoLibrary/simulator.c ****     *values = sensors;
  96:ZumoLibrary/simulator.c **** }
  97:ZumoLibrary/simulator.c **** 
  98:ZumoLibrary/simulator.c **** /**
  99:ZumoLibrary/simulator.c **** * @brief    Making Reflectance Sensor's period to digital
 100:ZumoLibrary/simulator.c **** * @details
 101:ZumoLibrary/simulator.c **** */
 102:ZumoLibrary/simulator.c **** void reflectance_digital(struct sensors_ *digital)
 103:ZumoLibrary/simulator.c **** {
 104:ZumoLibrary/simulator.c ****     if(!reflectance_started) {
 105:ZumoLibrary/simulator.c ****         printf("You haven't started reflectance sensor\n");
 106:ZumoLibrary/simulator.c ****     }
 107:ZumoLibrary/simulator.c ****     //if the results of reflectance_period function is over threshold, set digital_sensor_value to 
 108:ZumoLibrary/simulator.c ****     if(sensors.L3 < threshold.L3)
 109:ZumoLibrary/simulator.c ****         digital->L3 = 0;
 110:ZumoLibrary/simulator.c ****     else
 111:ZumoLibrary/simulator.c ****         digital->L3 = 1;
 112:ZumoLibrary/simulator.c ****     
 113:ZumoLibrary/simulator.c ****     if(sensors.L2 < threshold.L2)
 114:ZumoLibrary/simulator.c ****         digital->L2 = 0;
 115:ZumoLibrary/simulator.c ****     else
 116:ZumoLibrary/simulator.c ****         digital->L2 = 1;
 117:ZumoLibrary/simulator.c ****     
 118:ZumoLibrary/simulator.c ****     if(sensors.L1 < threshold.L1)
 119:ZumoLibrary/simulator.c ****         digital->L1 = 0;
 120:ZumoLibrary/simulator.c ****     else
 121:ZumoLibrary/simulator.c ****         digital->L1 = 1;
 122:ZumoLibrary/simulator.c ****     
 123:ZumoLibrary/simulator.c ****     if(sensors.R1 < threshold.R1)
 124:ZumoLibrary/simulator.c ****         digital->R1 = 0;
 125:ZumoLibrary/simulator.c ****     else
 126:ZumoLibrary/simulator.c ****         digital->R1 = 1;
 127:ZumoLibrary/simulator.c ****     
 128:ZumoLibrary/simulator.c ****     if(sensors.R2 < threshold.R2)
 129:ZumoLibrary/simulator.c ****         digital->R2 = 0;
 130:ZumoLibrary/simulator.c ****     else
 131:ZumoLibrary/simulator.c ****         digital->R2 = 1;
 132:ZumoLibrary/simulator.c ****     
 133:ZumoLibrary/simulator.c ****     if(sensors.R3 < threshold.R3)
 134:ZumoLibrary/simulator.c ****         digital->R3 = 0;
 135:ZumoLibrary/simulator.c ****     else
 136:ZumoLibrary/simulator.c ****         digital->R3 = 1;
 137:ZumoLibrary/simulator.c ****         
 138:ZumoLibrary/simulator.c **** }
 139:ZumoLibrary/simulator.c **** 
 140:ZumoLibrary/simulator.c **** void reflectance_set_threshold(uint16_t L3, uint16_t L2, uint16_t L1, uint16_t R1, uint16_t R2, uin
 141:ZumoLibrary/simulator.c **** {
 142:ZumoLibrary/simulator.c ****     threshold.L3 = L3;
 143:ZumoLibrary/simulator.c ****     threshold.L2 = L2;
 144:ZumoLibrary/simulator.c ****     threshold.L1 = L1;
 145:ZumoLibrary/simulator.c ****     threshold.R3 = R3;
ARM GAS  C:\Users\EVGENY~1\AppData\Local\Temp\ccOuw7ka.s 			page 4


 146:ZumoLibrary/simulator.c ****     threshold.R2 = R2;
 147:ZumoLibrary/simulator.c ****     threshold.R1 = R1;
 148:ZumoLibrary/simulator.c **** }
 149:ZumoLibrary/simulator.c **** 
 150:ZumoLibrary/simulator.c **** /*
 151:ZumoLibrary/simulator.c ****  * Retarget printf
 152:ZumoLibrary/simulator.c ****  */
 153:ZumoLibrary/simulator.c **** 
 154:ZumoLibrary/simulator.c **** static xSemaphoreHandle writeMutex;
 155:ZumoLibrary/simulator.c **** 
 156:ZumoLibrary/simulator.c **** void RetargetInit(void)
 157:ZumoLibrary/simulator.c **** {
 158:ZumoLibrary/simulator.c ****     writeMutex = xSemaphoreCreateMutex();;
 159:ZumoLibrary/simulator.c **** }
 160:ZumoLibrary/simulator.c **** 
 161:ZumoLibrary/simulator.c **** int _write(int file, char *ptr, int len)
 162:ZumoLibrary/simulator.c **** {
 163:ZumoLibrary/simulator.c ****     (void)file; /* Parameter is not used, suppress unused argument warning */
 164:ZumoLibrary/simulator.c ****     
 165:ZumoLibrary/simulator.c ****     if(xSemaphoreTake(writeMutex, portMAX_DELAY) == pdFALSE) return 0;
 166:ZumoLibrary/simulator.c ****     
 167:ZumoLibrary/simulator.c **** 	int n;
 168:ZumoLibrary/simulator.c **** 	for(n = 0; n < len; n++) {
 169:ZumoLibrary/simulator.c ****         if(*ptr == '\n') xSerial1PutChar('\r', portMAX_DELAY);
 170:ZumoLibrary/simulator.c **** 		xSerial1PutChar(*ptr++, portMAX_DELAY);
 171:ZumoLibrary/simulator.c **** 	}
 172:ZumoLibrary/simulator.c ****     
 173:ZumoLibrary/simulator.c ****     xSemaphoreGive(writeMutex);
 174:ZumoLibrary/simulator.c **** 
 175:ZumoLibrary/simulator.c ****     return len;
 176:ZumoLibrary/simulator.c **** }
 177:ZumoLibrary/simulator.c **** 
 178:ZumoLibrary/simulator.c **** int _read (int file, char *ptr, int count)
 179:ZumoLibrary/simulator.c **** {
 180:ZumoLibrary/simulator.c ****     (void) file;
 181:ZumoLibrary/simulator.c ****     (void) ptr;
 182:ZumoLibrary/simulator.c ****     (void) count;
 183:ZumoLibrary/simulator.c ****     return 0;
 184:ZumoLibrary/simulator.c **** }
 185:ZumoLibrary/simulator.c **** 
 186:ZumoLibrary/simulator.c **** /*
 187:ZumoLibrary/simulator.c ****  * Ultra Sonic Sensor simulator
 188:ZumoLibrary/simulator.c ****  */
 189:ZumoLibrary/simulator.c **** static volatile int distance;
 190:ZumoLibrary/simulator.c **** static volatile int ultra_started;
 191:ZumoLibrary/simulator.c **** 
 192:ZumoLibrary/simulator.c **** 
 193:ZumoLibrary/simulator.c **** void Ultra_Start()
 194:ZumoLibrary/simulator.c **** {
 195:ZumoLibrary/simulator.c ****     ultra_started = 1;
 196:ZumoLibrary/simulator.c **** }
 197:ZumoLibrary/simulator.c **** 
 198:ZumoLibrary/simulator.c **** int Ultra_GetDistance(void)
 199:ZumoLibrary/simulator.c **** {
 200:ZumoLibrary/simulator.c ****     if(!ultra_started) {
 201:ZumoLibrary/simulator.c ****         printf("You haven't started ultrasonic sensor\n");
 202:ZumoLibrary/simulator.c ****     }
ARM GAS  C:\Users\EVGENY~1\AppData\Local\Temp\ccOuw7ka.s 			page 5


 203:ZumoLibrary/simulator.c ****     return distance;       
 204:ZumoLibrary/simulator.c **** }    
 205:ZumoLibrary/simulator.c **** 
 206:ZumoLibrary/simulator.c **** 
 207:ZumoLibrary/simulator.c **** /*
 208:ZumoLibrary/simulator.c ****  * IR Sensor simulator
 209:ZumoLibrary/simulator.c ****  */
 210:ZumoLibrary/simulator.c **** static volatile int ir_value;
 211:ZumoLibrary/simulator.c **** static volatile int ir_started;
 212:ZumoLibrary/simulator.c **** 
 213:ZumoLibrary/simulator.c **** 
 214:ZumoLibrary/simulator.c **** void IR_Start(void)
 215:ZumoLibrary/simulator.c **** {
 216:ZumoLibrary/simulator.c ****     ir_started = 1;
 217:ZumoLibrary/simulator.c **** }
 218:ZumoLibrary/simulator.c **** 
 219:ZumoLibrary/simulator.c **** 
 220:ZumoLibrary/simulator.c **** /* Flush all previously received IR values */
 221:ZumoLibrary/simulator.c **** void IR_flush(void)
 222:ZumoLibrary/simulator.c **** {
 223:ZumoLibrary/simulator.c ****     if(!ir_started) {
 224:ZumoLibrary/simulator.c ****         printf("You haven't started IR sensor\n");
 225:ZumoLibrary/simulator.c ****     }
 226:ZumoLibrary/simulator.c ****     ir_value = 0;
 227:ZumoLibrary/simulator.c **** }
 228:ZumoLibrary/simulator.c **** 
 229:ZumoLibrary/simulator.c **** /* Wait for a high pulse with length between IR_LOWER_LIMIT and IR_UPPER_LIMIT */
 230:ZumoLibrary/simulator.c **** void IR_wait(void)
 231:ZumoLibrary/simulator.c **** {
 232:ZumoLibrary/simulator.c ****     if(!ir_started) {
 233:ZumoLibrary/simulator.c ****         printf("You haven't started IR sensor\n");
 234:ZumoLibrary/simulator.c ****     }
 235:ZumoLibrary/simulator.c ****     while(!ir_value) {
 236:ZumoLibrary/simulator.c ****         vTaskDelay(10);
 237:ZumoLibrary/simulator.c ****     }
 238:ZumoLibrary/simulator.c ****     IR_flush();
 239:ZumoLibrary/simulator.c **** }
 240:ZumoLibrary/simulator.c **** 
 241:ZumoLibrary/simulator.c **** 
 242:ZumoLibrary/simulator.c **** 
 243:ZumoLibrary/simulator.c **** /*
 244:ZumoLibrary/simulator.c ****  * Simulator send/receive task
 245:ZumoLibrary/simulator.c ****  */
 246:ZumoLibrary/simulator.c **** 
 247:ZumoLibrary/simulator.c **** 
 248:ZumoLibrary/simulator.c **** static void send(const char *data, int len) 
 249:ZumoLibrary/simulator.c **** {
  27              		.loc 1 249 0
  28              		.cfi_startproc
  29              		@ args = 0, pretend = 0, frame = 0
  30              		@ frame_needed = 0, uses_anonymous_args = 0
  31              	.LVL0:
  32 0000 F8B5     		push	{r3, r4, r5, r6, r7, lr}
  33              		.cfi_def_cfa_offset 24
  34              		.cfi_offset 3, -24
  35              		.cfi_offset 4, -20
  36              		.cfi_offset 5, -16
ARM GAS  C:\Users\EVGENY~1\AppData\Local\Temp\ccOuw7ka.s 			page 6


  37              		.cfi_offset 6, -12
  38              		.cfi_offset 7, -8
  39              		.cfi_offset 14, -4
  40 0002 0546     		mov	r5, r0
  41 0004 0C46     		mov	r4, r1
 250:ZumoLibrary/simulator.c ****    if(xSemaphoreTake(writeMutex, portMAX_DELAY) == pdFALSE) return;
  42              		.loc 1 250 0
  43 0006 4FF0FF31 		mov	r1, #-1
  44              	.LVL1:
  45 000a 0C4B     		ldr	r3, .L6
  46 000c 1868     		ldr	r0, [r3]
  47              	.LVL2:
  48 000e FFF7FEFF 		bl	xQueueSemaphoreTake
  49              	.LVL3:
  50 0012 38B9     		cbnz	r0, .L3
  51 0014 F8BD     		pop	{r3, r4, r5, r6, r7, pc}
  52              	.LVL4:
  53              	.L4:
 251:ZumoLibrary/simulator.c **** 
 252:ZumoLibrary/simulator.c ****    while(len-- > 0) {
 253:ZumoLibrary/simulator.c ****         xSerial1PutChar(*data++, 0);
  54              		.loc 1 253 0
  55 0016 6F1C     		adds	r7, r5, #1
  56              	.LVL5:
  57 0018 0021     		movs	r1, #0
  58 001a 2878     		ldrb	r0, [r5]	@ zero_extendqisi2
  59 001c FFF7FEFF 		bl	xSerial1PutChar
  60              	.LVL6:
 252:ZumoLibrary/simulator.c ****         xSerial1PutChar(*data++, 0);
  61              		.loc 1 252 0
  62 0020 3446     		mov	r4, r6
  63              		.loc 1 253 0
  64 0022 3D46     		mov	r5, r7
  65              	.LVL7:
  66              	.L3:
 252:ZumoLibrary/simulator.c ****         xSerial1PutChar(*data++, 0);
  67              		.loc 1 252 0
  68 0024 661E     		subs	r6, r4, #1
  69              	.LVL8:
  70 0026 002C     		cmp	r4, #0
  71 0028 F5DC     		bgt	.L4
 254:ZumoLibrary/simulator.c ****     }
 255:ZumoLibrary/simulator.c **** 
 256:ZumoLibrary/simulator.c ****     xSemaphoreGive(writeMutex);
  72              		.loc 1 256 0
  73 002a 0023     		movs	r3, #0
  74 002c 1A46     		mov	r2, r3
  75 002e 1946     		mov	r1, r3
  76 0030 0248     		ldr	r0, .L6
  77 0032 0068     		ldr	r0, [r0]
  78 0034 FFF7FEFF 		bl	xQueueGenericSend
  79              	.LVL9:
  80 0038 F8BD     		pop	{r3, r4, r5, r6, r7, pc}
  81              	.LVL10:
  82              	.L7:
  83 003a 00BF     		.align	2
  84              	.L6:
ARM GAS  C:\Users\EVGENY~1\AppData\Local\Temp\ccOuw7ka.s 			page 7


  85 003c 00000000 		.word	.LANCHOR0
  86              		.cfi_endproc
  87              	.LFE85:
  88              		.size	send, .-send
  89              		.section	.text.SimulatorTaskInit,"ax",%progbits
  90              		.align	2
  91              		.global	SimulatorTaskInit
  92              		.thumb
  93              		.thumb_func
  94              		.type	SimulatorTaskInit, %function
  95              	SimulatorTaskInit:
  96              	.LFB69:
  19:ZumoLibrary/simulator.c ****     motor_q = xQueueCreate(3, sizeof(SimData));
  97              		.loc 1 19 0
  98              		.cfi_startproc
  99              		@ args = 0, pretend = 0, frame = 0
 100              		@ frame_needed = 0, uses_anonymous_args = 0
 101 0000 08B5     		push	{r3, lr}
 102              		.cfi_def_cfa_offset 8
 103              		.cfi_offset 3, -8
 104              		.cfi_offset 14, -4
  20:ZumoLibrary/simulator.c **** }
 105              		.loc 1 20 0
 106 0002 0022     		movs	r2, #0
 107 0004 0821     		movs	r1, #8
 108 0006 0320     		movs	r0, #3
 109 0008 FFF7FEFF 		bl	xQueueGenericCreate
 110              	.LVL11:
 111 000c 014B     		ldr	r3, .L10
 112 000e 5860     		str	r0, [r3, #4]
 113 0010 08BD     		pop	{r3, pc}
 114              	.L11:
 115 0012 00BF     		.align	2
 116              	.L10:
 117 0014 00000000 		.word	.LANCHOR0
 118              		.cfi_endproc
 119              	.LFE69:
 120              		.size	SimulatorTaskInit, .-SimulatorTaskInit
 121              		.section	.text.SetMotors,"ax",%progbits
 122              		.align	2
 123              		.global	SetMotors
 124              		.thumb
 125              		.thumb_func
 126              		.type	SetMotors, %function
 127              	SetMotors:
 128              	.LFB70:
  36:ZumoLibrary/simulator.c ****     SimData sim = { left_dir, right_dir, left_speed, right_speed, delay };
 129              		.loc 1 36 0
 130              		.cfi_startproc
 131              		@ args = 4, pretend = 0, frame = 8
 132              		@ frame_needed = 0, uses_anonymous_args = 0
 133              	.LVL12:
 134 0000 10B5     		push	{r4, lr}
 135              		.cfi_def_cfa_offset 8
 136              		.cfi_offset 4, -8
 137              		.cfi_offset 14, -4
 138 0002 82B0     		sub	sp, sp, #8
ARM GAS  C:\Users\EVGENY~1\AppData\Local\Temp\ccOuw7ka.s 			page 8


 139              		.cfi_def_cfa_offset 16
 140 0004 049C     		ldr	r4, [sp, #16]
  37:ZumoLibrary/simulator.c ****     if(!motor_started) {
 141              		.loc 1 37 0
 142 0006 8DF80000 		strb	r0, [sp]
 143 000a 8DF80110 		strb	r1, [sp, #1]
 144 000e 8DF80220 		strb	r2, [sp, #2]
 145 0012 8DF80330 		strb	r3, [sp, #3]
 146 0016 0194     		str	r4, [sp, #4]
  38:ZumoLibrary/simulator.c ****         printf("You haven't started motors\n");
 147              		.loc 1 38 0
 148 0018 0B4B     		ldr	r3, .L16
 149              	.LVL13:
 150 001a 9B68     		ldr	r3, [r3, #8]
 151 001c 13B9     		cbnz	r3, .L13
  39:ZumoLibrary/simulator.c ****     }
 152              		.loc 1 39 0
 153 001e 0B48     		ldr	r0, .L16+4
 154              	.LVL14:
 155 0020 FFF7FEFF 		bl	puts
 156              	.LVL15:
 157              	.L13:
  41:ZumoLibrary/simulator.c ****         sim.delay = 2;
 158              		.loc 1 41 0
 159 0024 012C     		cmp	r4, #1
 160 0026 01D8     		bhi	.L14
  42:ZumoLibrary/simulator.c ****     }
 161              		.loc 1 42 0
 162 0028 0223     		movs	r3, #2
 163 002a 0193     		str	r3, [sp, #4]
 164              	.L14:
  44:ZumoLibrary/simulator.c ****     vTaskDelay(delay);
 165              		.loc 1 44 0
 166 002c 0023     		movs	r3, #0
 167 002e 4FF0FF32 		mov	r2, #-1
 168 0032 6946     		mov	r1, sp
 169 0034 0448     		ldr	r0, .L16
 170 0036 4068     		ldr	r0, [r0, #4]
 171 0038 FFF7FEFF 		bl	xQueueGenericSend
 172              	.LVL16:
  45:ZumoLibrary/simulator.c **** }
 173              		.loc 1 45 0
 174 003c 2046     		mov	r0, r4
 175 003e FFF7FEFF 		bl	vTaskDelay
 176              	.LVL17:
  46:ZumoLibrary/simulator.c **** 
 177              		.loc 1 46 0
 178 0042 02B0     		add	sp, sp, #8
 179              		.cfi_def_cfa_offset 8
 180              		@ sp needed
 181 0044 10BD     		pop	{r4, pc}
 182              	.LVL18:
 183              	.L17:
 184 0046 00BF     		.align	2
 185              	.L16:
 186 0048 00000000 		.word	.LANCHOR0
 187 004c 00000000 		.word	.LC1
ARM GAS  C:\Users\EVGENY~1\AppData\Local\Temp\ccOuw7ka.s 			page 9


 188              		.cfi_endproc
 189              	.LFE70:
 190              		.size	SetMotors, .-SetMotors
 191              		.section	.text.motor_start,"ax",%progbits
 192              		.align	2
 193              		.global	motor_start
 194              		.thumb
 195              		.thumb_func
 196              		.type	motor_start, %function
 197              	motor_start:
 198              	.LFB71:
  54:ZumoLibrary/simulator.c ****     motor_started = 1;
 199              		.loc 1 54 0
 200              		.cfi_startproc
 201              		@ args = 0, pretend = 0, frame = 0
 202              		@ frame_needed = 0, uses_anonymous_args = 0
 203              		@ link register save eliminated.
  55:ZumoLibrary/simulator.c **** }
 204              		.loc 1 55 0
 205 0000 0122     		movs	r2, #1
 206 0002 014B     		ldr	r3, .L19
 207 0004 9A60     		str	r2, [r3, #8]
 208 0006 7047     		bx	lr
 209              	.L20:
 210              		.align	2
 211              	.L19:
 212 0008 00000000 		.word	.LANCHOR0
 213              		.cfi_endproc
 214              	.LFE71:
 215              		.size	motor_start, .-motor_start
 216              		.section	.text.motor_stop,"ax",%progbits
 217              		.align	2
 218              		.global	motor_stop
 219              		.thumb
 220              		.thumb_func
 221              		.type	motor_stop, %function
 222              	motor_stop:
 223              	.LFB72:
  64:ZumoLibrary/simulator.c ****     motor_started = 0;
 224              		.loc 1 64 0
 225              		.cfi_startproc
 226              		@ args = 0, pretend = 0, frame = 0
 227              		@ frame_needed = 0, uses_anonymous_args = 0
 228 0000 08B5     		push	{r3, lr}
 229              		.cfi_def_cfa_offset 8
 230              		.cfi_offset 3, -8
 231              		.cfi_offset 14, -4
  65:ZumoLibrary/simulator.c ****     send(stopped, 5);
 232              		.loc 1 65 0
 233 0002 0022     		movs	r2, #0
 234 0004 034B     		ldr	r3, .L23
 235 0006 9A60     		str	r2, [r3, #8]
  66:ZumoLibrary/simulator.c **** }
 236              		.loc 1 66 0
 237 0008 0521     		movs	r1, #5
 238 000a 0348     		ldr	r0, .L23+4
 239 000c FFF7FEFF 		bl	send
ARM GAS  C:\Users\EVGENY~1\AppData\Local\Temp\ccOuw7ka.s 			page 10


 240              	.LVL19:
 241 0010 08BD     		pop	{r3, pc}
 242              	.L24:
 243 0012 00BF     		.align	2
 244              	.L23:
 245 0014 00000000 		.word	.LANCHOR0
 246 0018 00000000 		.word	.LANCHOR1
 247              		.cfi_endproc
 248              	.LFE72:
 249              		.size	motor_stop, .-motor_stop
 250              		.section	.text.reflectance_start,"ax",%progbits
 251              		.align	2
 252              		.global	reflectance_start
 253              		.thumb
 254              		.thumb_func
 255              		.type	reflectance_start, %function
 256              	reflectance_start:
 257              	.LFB73:
  82:ZumoLibrary/simulator.c ****     reflectance_started = 1;
 258              		.loc 1 82 0
 259              		.cfi_startproc
 260              		@ args = 0, pretend = 0, frame = 0
 261              		@ frame_needed = 0, uses_anonymous_args = 0
 262              		@ link register save eliminated.
  83:ZumoLibrary/simulator.c **** }
 263              		.loc 1 83 0
 264 0000 0122     		movs	r2, #1
 265 0002 014B     		ldr	r3, .L26
 266 0004 DA60     		str	r2, [r3, #12]
 267 0006 7047     		bx	lr
 268              	.L27:
 269              		.align	2
 270              	.L26:
 271 0008 00000000 		.word	.LANCHOR0
 272              		.cfi_endproc
 273              	.LFE73:
 274              		.size	reflectance_start, .-reflectance_start
 275              		.section	.text.reflectance_read,"ax",%progbits
 276              		.align	2
 277              		.global	reflectance_read
 278              		.thumb
 279              		.thumb_func
 280              		.type	reflectance_read, %function
 281              	reflectance_read:
 282              	.LFB74:
  91:ZumoLibrary/simulator.c ****     if(!reflectance_started) {
 283              		.loc 1 91 0
 284              		.cfi_startproc
 285              		@ args = 0, pretend = 0, frame = 0
 286              		@ frame_needed = 0, uses_anonymous_args = 0
 287              	.LVL20:
 288 0000 10B5     		push	{r4, lr}
 289              		.cfi_def_cfa_offset 8
 290              		.cfi_offset 4, -8
 291              		.cfi_offset 14, -4
 292 0002 0446     		mov	r4, r0
  92:ZumoLibrary/simulator.c ****         printf("You haven't started reflectance sensor\n");
ARM GAS  C:\Users\EVGENY~1\AppData\Local\Temp\ccOuw7ka.s 			page 11


 293              		.loc 1 92 0
 294 0004 054B     		ldr	r3, .L31
 295 0006 DB68     		ldr	r3, [r3, #12]
 296 0008 13B9     		cbnz	r3, .L29
  93:ZumoLibrary/simulator.c ****     }
 297              		.loc 1 93 0
 298 000a 0548     		ldr	r0, .L31+4
 299              	.LVL21:
 300 000c FFF7FEFF 		bl	puts
 301              	.LVL22:
 302              	.L29:
  95:ZumoLibrary/simulator.c **** }
 303              		.loc 1 95 0
 304 0010 044B     		ldr	r3, .L31+8
 305 0012 07CB     		ldmia	r3!, {r0, r1, r2}
 306 0014 2060     		str	r0, [r4]	@ unaligned
 307 0016 6160     		str	r1, [r4, #4]	@ unaligned
 308 0018 A260     		str	r2, [r4, #8]	@ unaligned
 309 001a 10BD     		pop	{r4, pc}
 310              	.LVL23:
 311              	.L32:
 312              		.align	2
 313              	.L31:
 314 001c 00000000 		.word	.LANCHOR0
 315 0020 1C000000 		.word	.LC2
 316 0024 10000000 		.word	.LANCHOR0+16
 317              		.cfi_endproc
 318              	.LFE74:
 319              		.size	reflectance_read, .-reflectance_read
 320              		.section	.text.reflectance_digital,"ax",%progbits
 321              		.align	2
 322              		.global	reflectance_digital
 323              		.thumb
 324              		.thumb_func
 325              		.type	reflectance_digital, %function
 326              	reflectance_digital:
 327              	.LFB75:
 103:ZumoLibrary/simulator.c ****     if(!reflectance_started) {
 328              		.loc 1 103 0
 329              		.cfi_startproc
 330              		@ args = 0, pretend = 0, frame = 0
 331              		@ frame_needed = 0, uses_anonymous_args = 0
 332              	.LVL24:
 333 0000 10B5     		push	{r4, lr}
 334              		.cfi_def_cfa_offset 8
 335              		.cfi_offset 4, -8
 336              		.cfi_offset 14, -4
 337 0002 0446     		mov	r4, r0
 104:ZumoLibrary/simulator.c ****         printf("You haven't started reflectance sensor\n");
 338              		.loc 1 104 0
 339 0004 274B     		ldr	r3, .L48
 340 0006 DB68     		ldr	r3, [r3, #12]
 341 0008 13B9     		cbnz	r3, .L34
 105:ZumoLibrary/simulator.c ****     }
 342              		.loc 1 105 0
 343 000a 2748     		ldr	r0, .L48+4
 344              	.LVL25:
ARM GAS  C:\Users\EVGENY~1\AppData\Local\Temp\ccOuw7ka.s 			page 12


 345 000c FFF7FEFF 		bl	puts
 346              	.LVL26:
 347              	.L34:
 108:ZumoLibrary/simulator.c ****         digital->L3 = 0;
 348              		.loc 1 108 0
 349 0010 244B     		ldr	r3, .L48
 350 0012 1B8A     		ldrh	r3, [r3, #16]
 351 0014 9BB2     		uxth	r3, r3
 352 0016 254A     		ldr	r2, .L48+8
 353 0018 1288     		ldrh	r2, [r2]
 354 001a 9342     		cmp	r3, r2
 355 001c 02D2     		bcs	.L35
 109:ZumoLibrary/simulator.c ****     else
 356              		.loc 1 109 0
 357 001e 0023     		movs	r3, #0
 358 0020 2380     		strh	r3, [r4]	@ movhi
 359 0022 01E0     		b	.L36
 360              	.L35:
 111:ZumoLibrary/simulator.c ****     
 361              		.loc 1 111 0
 362 0024 0123     		movs	r3, #1
 363 0026 2380     		strh	r3, [r4]	@ movhi
 364              	.L36:
 113:ZumoLibrary/simulator.c ****         digital->L2 = 0;
 365              		.loc 1 113 0
 366 0028 1E4B     		ldr	r3, .L48
 367 002a 5B8A     		ldrh	r3, [r3, #18]
 368 002c 9BB2     		uxth	r3, r3
 369 002e 1F4A     		ldr	r2, .L48+8
 370 0030 5288     		ldrh	r2, [r2, #2]
 371 0032 9342     		cmp	r3, r2
 372 0034 02D2     		bcs	.L37
 114:ZumoLibrary/simulator.c ****     else
 373              		.loc 1 114 0
 374 0036 0023     		movs	r3, #0
 375 0038 6380     		strh	r3, [r4, #2]	@ movhi
 376 003a 01E0     		b	.L38
 377              	.L37:
 116:ZumoLibrary/simulator.c ****     
 378              		.loc 1 116 0
 379 003c 0123     		movs	r3, #1
 380 003e 6380     		strh	r3, [r4, #2]	@ movhi
 381              	.L38:
 118:ZumoLibrary/simulator.c ****         digital->L1 = 0;
 382              		.loc 1 118 0
 383 0040 184B     		ldr	r3, .L48
 384 0042 9B8A     		ldrh	r3, [r3, #20]
 385 0044 9BB2     		uxth	r3, r3
 386 0046 194A     		ldr	r2, .L48+8
 387 0048 9288     		ldrh	r2, [r2, #4]
 388 004a 9342     		cmp	r3, r2
 389 004c 02D2     		bcs	.L39
 119:ZumoLibrary/simulator.c ****     else
 390              		.loc 1 119 0
 391 004e 0023     		movs	r3, #0
 392 0050 A380     		strh	r3, [r4, #4]	@ movhi
 393 0052 01E0     		b	.L40
ARM GAS  C:\Users\EVGENY~1\AppData\Local\Temp\ccOuw7ka.s 			page 13


 394              	.L39:
 121:ZumoLibrary/simulator.c ****     
 395              		.loc 1 121 0
 396 0054 0123     		movs	r3, #1
 397 0056 A380     		strh	r3, [r4, #4]	@ movhi
 398              	.L40:
 123:ZumoLibrary/simulator.c ****         digital->R1 = 0;
 399              		.loc 1 123 0
 400 0058 124B     		ldr	r3, .L48
 401 005a DB8A     		ldrh	r3, [r3, #22]
 402 005c 9BB2     		uxth	r3, r3
 403 005e 134A     		ldr	r2, .L48+8
 404 0060 D288     		ldrh	r2, [r2, #6]
 405 0062 9342     		cmp	r3, r2
 406 0064 02D2     		bcs	.L41
 124:ZumoLibrary/simulator.c ****     else
 407              		.loc 1 124 0
 408 0066 0023     		movs	r3, #0
 409 0068 E380     		strh	r3, [r4, #6]	@ movhi
 410 006a 01E0     		b	.L42
 411              	.L41:
 126:ZumoLibrary/simulator.c ****     
 412              		.loc 1 126 0
 413 006c 0123     		movs	r3, #1
 414 006e E380     		strh	r3, [r4, #6]	@ movhi
 415              	.L42:
 128:ZumoLibrary/simulator.c ****         digital->R2 = 0;
 416              		.loc 1 128 0
 417 0070 0C4B     		ldr	r3, .L48
 418 0072 1B8B     		ldrh	r3, [r3, #24]
 419 0074 9BB2     		uxth	r3, r3
 420 0076 0D4A     		ldr	r2, .L48+8
 421 0078 1289     		ldrh	r2, [r2, #8]
 422 007a 9342     		cmp	r3, r2
 423 007c 02D2     		bcs	.L43
 129:ZumoLibrary/simulator.c ****     else
 424              		.loc 1 129 0
 425 007e 0023     		movs	r3, #0
 426 0080 2381     		strh	r3, [r4, #8]	@ movhi
 427 0082 01E0     		b	.L44
 428              	.L43:
 131:ZumoLibrary/simulator.c ****     
 429              		.loc 1 131 0
 430 0084 0123     		movs	r3, #1
 431 0086 2381     		strh	r3, [r4, #8]	@ movhi
 432              	.L44:
 133:ZumoLibrary/simulator.c ****         digital->R3 = 0;
 433              		.loc 1 133 0
 434 0088 064B     		ldr	r3, .L48
 435 008a 5B8B     		ldrh	r3, [r3, #26]
 436 008c 9BB2     		uxth	r3, r3
 437 008e 074A     		ldr	r2, .L48+8
 438 0090 5289     		ldrh	r2, [r2, #10]
 439 0092 9342     		cmp	r3, r2
 440 0094 02D2     		bcs	.L45
 134:ZumoLibrary/simulator.c ****     else
 441              		.loc 1 134 0
ARM GAS  C:\Users\EVGENY~1\AppData\Local\Temp\ccOuw7ka.s 			page 14


 442 0096 0023     		movs	r3, #0
 443 0098 6381     		strh	r3, [r4, #10]	@ movhi
 444 009a 10BD     		pop	{r4, pc}
 445              	.LVL27:
 446              	.L45:
 136:ZumoLibrary/simulator.c ****         
 447              		.loc 1 136 0
 448 009c 0123     		movs	r3, #1
 449 009e 6381     		strh	r3, [r4, #10]	@ movhi
 450 00a0 10BD     		pop	{r4, pc}
 451              	.LVL28:
 452              	.L49:
 453 00a2 00BF     		.align	2
 454              	.L48:
 455 00a4 00000000 		.word	.LANCHOR0
 456 00a8 1C000000 		.word	.LC2
 457 00ac 00000000 		.word	.LANCHOR2
 458              		.cfi_endproc
 459              	.LFE75:
 460              		.size	reflectance_digital, .-reflectance_digital
 461              		.section	.text.reflectance_set_threshold,"ax",%progbits
 462              		.align	2
 463              		.global	reflectance_set_threshold
 464              		.thumb
 465              		.thumb_func
 466              		.type	reflectance_set_threshold, %function
 467              	reflectance_set_threshold:
 468              	.LFB76:
 141:ZumoLibrary/simulator.c ****     threshold.L3 = L3;
 469              		.loc 1 141 0
 470              		.cfi_startproc
 471              		@ args = 8, pretend = 0, frame = 0
 472              		@ frame_needed = 0, uses_anonymous_args = 0
 473              		@ link register save eliminated.
 474              	.LVL29:
 475 0000 10B4     		push	{r4}
 476              		.cfi_def_cfa_offset 4
 477              		.cfi_offset 4, -4
 142:ZumoLibrary/simulator.c ****     threshold.L2 = L2;
 478              		.loc 1 142 0
 479 0002 064C     		ldr	r4, .L52
 480 0004 2080     		strh	r0, [r4]	@ movhi
 143:ZumoLibrary/simulator.c ****     threshold.L1 = L1;
 481              		.loc 1 143 0
 482 0006 6180     		strh	r1, [r4, #2]	@ movhi
 144:ZumoLibrary/simulator.c ****     threshold.R3 = R3;
 483              		.loc 1 144 0
 484 0008 A280     		strh	r2, [r4, #4]	@ movhi
 145:ZumoLibrary/simulator.c ****     threshold.R2 = R2;
 485              		.loc 1 145 0
 486 000a BDF80820 		ldrh	r2, [sp, #8]
 487              	.LVL30:
 488 000e 6281     		strh	r2, [r4, #10]	@ movhi
 146:ZumoLibrary/simulator.c ****     threshold.R1 = R1;
 489              		.loc 1 146 0
 490 0010 BDF80420 		ldrh	r2, [sp, #4]
 491 0014 2281     		strh	r2, [r4, #8]	@ movhi
ARM GAS  C:\Users\EVGENY~1\AppData\Local\Temp\ccOuw7ka.s 			page 15


 147:ZumoLibrary/simulator.c **** }
 492              		.loc 1 147 0
 493 0016 E380     		strh	r3, [r4, #6]	@ movhi
 148:ZumoLibrary/simulator.c **** 
 494              		.loc 1 148 0
 495 0018 10BC     		pop	{r4}
 496              		.cfi_restore 4
 497              		.cfi_def_cfa_offset 0
 498              	.LVL31:
 499 001a 7047     		bx	lr
 500              	.L53:
 501              		.align	2
 502              	.L52:
 503 001c 00000000 		.word	.LANCHOR2
 504              		.cfi_endproc
 505              	.LFE76:
 506              		.size	reflectance_set_threshold, .-reflectance_set_threshold
 507              		.section	.text.RetargetInit,"ax",%progbits
 508              		.align	2
 509              		.global	RetargetInit
 510              		.thumb
 511              		.thumb_func
 512              		.type	RetargetInit, %function
 513              	RetargetInit:
 514              	.LFB77:
 157:ZumoLibrary/simulator.c ****     writeMutex = xSemaphoreCreateMutex();;
 515              		.loc 1 157 0
 516              		.cfi_startproc
 517              		@ args = 0, pretend = 0, frame = 0
 518              		@ frame_needed = 0, uses_anonymous_args = 0
 519 0000 08B5     		push	{r3, lr}
 520              		.cfi_def_cfa_offset 8
 521              		.cfi_offset 3, -8
 522              		.cfi_offset 14, -4
 158:ZumoLibrary/simulator.c **** }
 523              		.loc 1 158 0
 524 0002 0120     		movs	r0, #1
 525 0004 FFF7FEFF 		bl	xQueueCreateMutex
 526              	.LVL32:
 527 0008 014B     		ldr	r3, .L56
 528 000a 1860     		str	r0, [r3]
 529 000c 08BD     		pop	{r3, pc}
 530              	.L57:
 531 000e 00BF     		.align	2
 532              	.L56:
 533 0010 00000000 		.word	.LANCHOR0
 534              		.cfi_endproc
 535              	.LFE77:
 536              		.size	RetargetInit, .-RetargetInit
 537              		.section	.text._write,"ax",%progbits
 538              		.align	2
 539              		.global	_write
 540              		.thumb
 541              		.thumb_func
 542              		.type	_write, %function
 543              	_write:
 544              	.LFB78:
ARM GAS  C:\Users\EVGENY~1\AppData\Local\Temp\ccOuw7ka.s 			page 16


 162:ZumoLibrary/simulator.c ****     (void)file; /* Parameter is not used, suppress unused argument warning */
 545              		.loc 1 162 0
 546              		.cfi_startproc
 547              		@ args = 0, pretend = 0, frame = 0
 548              		@ frame_needed = 0, uses_anonymous_args = 0
 549              	.LVL33:
 550 0000 F8B5     		push	{r3, r4, r5, r6, r7, lr}
 551              		.cfi_def_cfa_offset 24
 552              		.cfi_offset 3, -24
 553              		.cfi_offset 4, -20
 554              		.cfi_offset 5, -16
 555              		.cfi_offset 6, -12
 556              		.cfi_offset 7, -8
 557              		.cfi_offset 14, -4
 558 0002 0C46     		mov	r4, r1
 559 0004 1746     		mov	r7, r2
 165:ZumoLibrary/simulator.c ****     
 560              		.loc 1 165 0
 561 0006 4FF0FF31 		mov	r1, #-1
 562              	.LVL34:
 563 000a 124B     		ldr	r3, .L65
 564 000c 1868     		ldr	r0, [r3]
 565              	.LVL35:
 566 000e FFF7FEFF 		bl	xQueueSemaphoreTake
 567              	.LVL36:
 568 0012 E0B1     		cbz	r0, .L63
 569 0014 0025     		movs	r5, #0
 570 0016 0FE0     		b	.L60
 571              	.LVL37:
 572              	.L62:
 169:ZumoLibrary/simulator.c **** 		xSerial1PutChar(*ptr++, portMAX_DELAY);
 573              		.loc 1 169 0
 574 0018 2378     		ldrb	r3, [r4]	@ zero_extendqisi2
 575 001a 0A2B     		cmp	r3, #10
 576 001c 04D1     		bne	.L61
 169:ZumoLibrary/simulator.c **** 		xSerial1PutChar(*ptr++, portMAX_DELAY);
 577              		.loc 1 169 0 is_stmt 0 discriminator 1
 578 001e 4FF0FF31 		mov	r1, #-1
 579 0022 0D20     		movs	r0, #13
 580 0024 FFF7FEFF 		bl	xSerial1PutChar
 581              	.LVL38:
 582              	.L61:
 170:ZumoLibrary/simulator.c **** 	}
 583              		.loc 1 170 0 is_stmt 1 discriminator 2
 584 0028 661C     		adds	r6, r4, #1
 585              	.LVL39:
 586 002a 4FF0FF31 		mov	r1, #-1
 587 002e 2078     		ldrb	r0, [r4]	@ zero_extendqisi2
 588 0030 FFF7FEFF 		bl	xSerial1PutChar
 589              	.LVL40:
 168:ZumoLibrary/simulator.c ****         if(*ptr == '\n') xSerial1PutChar('\r', portMAX_DELAY);
 590              		.loc 1 168 0 discriminator 2
 591 0034 0135     		adds	r5, r5, #1
 592              	.LVL41:
 170:ZumoLibrary/simulator.c **** 	}
 593              		.loc 1 170 0 discriminator 2
 594 0036 3446     		mov	r4, r6
ARM GAS  C:\Users\EVGENY~1\AppData\Local\Temp\ccOuw7ka.s 			page 17


 595              	.LVL42:
 596              	.L60:
 168:ZumoLibrary/simulator.c ****         if(*ptr == '\n') xSerial1PutChar('\r', portMAX_DELAY);
 597              		.loc 1 168 0 discriminator 1
 598 0038 BD42     		cmp	r5, r7
 599 003a EDDB     		blt	.L62
 173:ZumoLibrary/simulator.c **** 
 600              		.loc 1 173 0
 601 003c 0023     		movs	r3, #0
 602 003e 1A46     		mov	r2, r3
 603 0040 1946     		mov	r1, r3
 604 0042 0448     		ldr	r0, .L65
 605 0044 0068     		ldr	r0, [r0]
 606 0046 FFF7FEFF 		bl	xQueueGenericSend
 607              	.LVL43:
 175:ZumoLibrary/simulator.c **** }
 608              		.loc 1 175 0
 609 004a 3846     		mov	r0, r7
 610 004c F8BD     		pop	{r3, r4, r5, r6, r7, pc}
 611              	.LVL44:
 612              	.L63:
 165:ZumoLibrary/simulator.c ****     
 613              		.loc 1 165 0
 614 004e 0020     		movs	r0, #0
 176:ZumoLibrary/simulator.c **** 
 615              		.loc 1 176 0
 616 0050 F8BD     		pop	{r3, r4, r5, r6, r7, pc}
 617              	.LVL45:
 618              	.L66:
 619 0052 00BF     		.align	2
 620              	.L65:
 621 0054 00000000 		.word	.LANCHOR0
 622              		.cfi_endproc
 623              	.LFE78:
 624              		.size	_write, .-_write
 625              		.section	.text._read,"ax",%progbits
 626              		.align	2
 627              		.global	_read
 628              		.thumb
 629              		.thumb_func
 630              		.type	_read, %function
 631              	_read:
 632              	.LFB79:
 179:ZumoLibrary/simulator.c ****     (void) file;
 633              		.loc 1 179 0
 634              		.cfi_startproc
 635              		@ args = 0, pretend = 0, frame = 0
 636              		@ frame_needed = 0, uses_anonymous_args = 0
 637              		@ link register save eliminated.
 638              	.LVL46:
 184:ZumoLibrary/simulator.c **** 
 639              		.loc 1 184 0
 640 0000 0020     		movs	r0, #0
 641              	.LVL47:
 642 0002 7047     		bx	lr
 643              		.cfi_endproc
 644              	.LFE79:
ARM GAS  C:\Users\EVGENY~1\AppData\Local\Temp\ccOuw7ka.s 			page 18


 645              		.size	_read, .-_read
 646              		.section	.text.Ultra_Start,"ax",%progbits
 647              		.align	2
 648              		.global	Ultra_Start
 649              		.thumb
 650              		.thumb_func
 651              		.type	Ultra_Start, %function
 652              	Ultra_Start:
 653              	.LFB80:
 194:ZumoLibrary/simulator.c ****     ultra_started = 1;
 654              		.loc 1 194 0
 655              		.cfi_startproc
 656              		@ args = 0, pretend = 0, frame = 0
 657              		@ frame_needed = 0, uses_anonymous_args = 0
 658              		@ link register save eliminated.
 195:ZumoLibrary/simulator.c **** }
 659              		.loc 1 195 0
 660 0000 0122     		movs	r2, #1
 661 0002 014B     		ldr	r3, .L69
 662 0004 DA61     		str	r2, [r3, #28]
 663 0006 7047     		bx	lr
 664              	.L70:
 665              		.align	2
 666              	.L69:
 667 0008 00000000 		.word	.LANCHOR0
 668              		.cfi_endproc
 669              	.LFE80:
 670              		.size	Ultra_Start, .-Ultra_Start
 671              		.section	.text.Ultra_GetDistance,"ax",%progbits
 672              		.align	2
 673              		.global	Ultra_GetDistance
 674              		.thumb
 675              		.thumb_func
 676              		.type	Ultra_GetDistance, %function
 677              	Ultra_GetDistance:
 678              	.LFB81:
 199:ZumoLibrary/simulator.c ****     if(!ultra_started) {
 679              		.loc 1 199 0
 680              		.cfi_startproc
 681              		@ args = 0, pretend = 0, frame = 0
 682              		@ frame_needed = 0, uses_anonymous_args = 0
 683 0000 08B5     		push	{r3, lr}
 684              		.cfi_def_cfa_offset 8
 685              		.cfi_offset 3, -8
 686              		.cfi_offset 14, -4
 200:ZumoLibrary/simulator.c ****         printf("You haven't started ultrasonic sensor\n");
 687              		.loc 1 200 0
 688 0002 044B     		ldr	r3, .L74
 689 0004 DB69     		ldr	r3, [r3, #28]
 690 0006 13B9     		cbnz	r3, .L72
 201:ZumoLibrary/simulator.c ****     }
 691              		.loc 1 201 0
 692 0008 0348     		ldr	r0, .L74+4
 693 000a FFF7FEFF 		bl	puts
 694              	.LVL48:
 695              	.L72:
 203:ZumoLibrary/simulator.c **** }    
ARM GAS  C:\Users\EVGENY~1\AppData\Local\Temp\ccOuw7ka.s 			page 19


 696              		.loc 1 203 0
 697 000e 014B     		ldr	r3, .L74
 698 0010 186A     		ldr	r0, [r3, #32]
 204:ZumoLibrary/simulator.c **** 
 699              		.loc 1 204 0
 700 0012 08BD     		pop	{r3, pc}
 701              	.L75:
 702              		.align	2
 703              	.L74:
 704 0014 00000000 		.word	.LANCHOR0
 705 0018 44000000 		.word	.LC3
 706              		.cfi_endproc
 707              	.LFE81:
 708              		.size	Ultra_GetDistance, .-Ultra_GetDistance
 709              		.section	.text.IR_Start,"ax",%progbits
 710              		.align	2
 711              		.global	IR_Start
 712              		.thumb
 713              		.thumb_func
 714              		.type	IR_Start, %function
 715              	IR_Start:
 716              	.LFB82:
 215:ZumoLibrary/simulator.c ****     ir_started = 1;
 717              		.loc 1 215 0
 718              		.cfi_startproc
 719              		@ args = 0, pretend = 0, frame = 0
 720              		@ frame_needed = 0, uses_anonymous_args = 0
 721              		@ link register save eliminated.
 216:ZumoLibrary/simulator.c **** }
 722              		.loc 1 216 0
 723 0000 0122     		movs	r2, #1
 724 0002 014B     		ldr	r3, .L77
 725 0004 5A62     		str	r2, [r3, #36]
 726 0006 7047     		bx	lr
 727              	.L78:
 728              		.align	2
 729              	.L77:
 730 0008 00000000 		.word	.LANCHOR0
 731              		.cfi_endproc
 732              	.LFE82:
 733              		.size	IR_Start, .-IR_Start
 734              		.section	.text.IR_flush,"ax",%progbits
 735              		.align	2
 736              		.global	IR_flush
 737              		.thumb
 738              		.thumb_func
 739              		.type	IR_flush, %function
 740              	IR_flush:
 741              	.LFB83:
 222:ZumoLibrary/simulator.c ****     if(!ir_started) {
 742              		.loc 1 222 0
 743              		.cfi_startproc
 744              		@ args = 0, pretend = 0, frame = 0
 745              		@ frame_needed = 0, uses_anonymous_args = 0
 746 0000 08B5     		push	{r3, lr}
 747              		.cfi_def_cfa_offset 8
 748              		.cfi_offset 3, -8
ARM GAS  C:\Users\EVGENY~1\AppData\Local\Temp\ccOuw7ka.s 			page 20


 749              		.cfi_offset 14, -4
 223:ZumoLibrary/simulator.c ****         printf("You haven't started IR sensor\n");
 750              		.loc 1 223 0
 751 0002 054B     		ldr	r3, .L82
 752 0004 5B6A     		ldr	r3, [r3, #36]
 753 0006 13B9     		cbnz	r3, .L80
 224:ZumoLibrary/simulator.c ****     }
 754              		.loc 1 224 0
 755 0008 0448     		ldr	r0, .L82+4
 756 000a FFF7FEFF 		bl	puts
 757              	.LVL49:
 758              	.L80:
 226:ZumoLibrary/simulator.c **** }
 759              		.loc 1 226 0
 760 000e 0022     		movs	r2, #0
 761 0010 014B     		ldr	r3, .L82
 762 0012 9A62     		str	r2, [r3, #40]
 763 0014 08BD     		pop	{r3, pc}
 764              	.L83:
 765 0016 00BF     		.align	2
 766              	.L82:
 767 0018 00000000 		.word	.LANCHOR0
 768 001c 6C000000 		.word	.LC4
 769              		.cfi_endproc
 770              	.LFE83:
 771              		.size	IR_flush, .-IR_flush
 772              		.section	.text.IR_wait,"ax",%progbits
 773              		.align	2
 774              		.global	IR_wait
 775              		.thumb
 776              		.thumb_func
 777              		.type	IR_wait, %function
 778              	IR_wait:
 779              	.LFB84:
 231:ZumoLibrary/simulator.c ****     if(!ir_started) {
 780              		.loc 1 231 0
 781              		.cfi_startproc
 782              		@ args = 0, pretend = 0, frame = 0
 783              		@ frame_needed = 0, uses_anonymous_args = 0
 784 0000 08B5     		push	{r3, lr}
 785              		.cfi_def_cfa_offset 8
 786              		.cfi_offset 3, -8
 787              		.cfi_offset 14, -4
 232:ZumoLibrary/simulator.c ****         printf("You haven't started IR sensor\n");
 788              		.loc 1 232 0
 789 0002 084B     		ldr	r3, .L89
 790 0004 5B6A     		ldr	r3, [r3, #36]
 791 0006 33B9     		cbnz	r3, .L86
 233:ZumoLibrary/simulator.c ****     }
 792              		.loc 1 233 0
 793 0008 0748     		ldr	r0, .L89+4
 794 000a FFF7FEFF 		bl	puts
 795              	.LVL50:
 796 000e 02E0     		b	.L86
 797              	.L87:
 236:ZumoLibrary/simulator.c ****     }
 798              		.loc 1 236 0
ARM GAS  C:\Users\EVGENY~1\AppData\Local\Temp\ccOuw7ka.s 			page 21


 799 0010 0A20     		movs	r0, #10
 800 0012 FFF7FEFF 		bl	vTaskDelay
 801              	.LVL51:
 802              	.L86:
 235:ZumoLibrary/simulator.c ****         vTaskDelay(10);
 803              		.loc 1 235 0
 804 0016 034B     		ldr	r3, .L89
 805 0018 9B6A     		ldr	r3, [r3, #40]
 806 001a 002B     		cmp	r3, #0
 807 001c F8D0     		beq	.L87
 238:ZumoLibrary/simulator.c **** }
 808              		.loc 1 238 0
 809 001e FFF7FEFF 		bl	IR_flush
 810              	.LVL52:
 811 0022 08BD     		pop	{r3, pc}
 812              	.L90:
 813              		.align	2
 814              	.L89:
 815 0024 00000000 		.word	.LANCHOR0
 816 0028 6C000000 		.word	.LC4
 817              		.cfi_endproc
 818              	.LFE84:
 819              		.size	IR_wait, .-IR_wait
 820              		.section	.text.SimulatorTask,"ax",%progbits
 821              		.align	2
 822              		.global	SimulatorTask
 823              		.thumb
 824              		.thumb_func
 825              		.type	SimulatorTask, %function
 826              	SimulatorTask:
 827              	.LFB86:
 257:ZumoLibrary/simulator.c **** }
 258:ZumoLibrary/simulator.c **** 
 259:ZumoLibrary/simulator.c **** 
 260:ZumoLibrary/simulator.c **** void SimulatorTask( void *pvParameters )
 261:ZumoLibrary/simulator.c **** {
 828              		.loc 1 261 0
 829              		.cfi_startproc
 830              		@ args = 0, pretend = 0, frame = 32
 831              		@ frame_needed = 0, uses_anonymous_args = 0
 832              	.LVL53:
 833 0000 70B5     		push	{r4, r5, r6, lr}
 834              		.cfi_def_cfa_offset 16
 835              		.cfi_offset 4, -16
 836              		.cfi_offset 5, -12
 837              		.cfi_offset 6, -8
 838              		.cfi_offset 14, -4
 839 0002 88B0     		sub	sp, sp, #32
 840              		.cfi_def_cfa_offset 48
 262:ZumoLibrary/simulator.c ****     (void) pvParameters;
 263:ZumoLibrary/simulator.c ****     SimData sd = { 0, 0, 0, 0, 0 };
 841              		.loc 1 263 0
 842 0004 0023     		movs	r3, #0
 843 0006 0693     		str	r3, [sp, #24]
 844 0008 0793     		str	r3, [sp, #28]
 264:ZumoLibrary/simulator.c ****     char data[5] = {0,255,0,0,RUN_TIMEOUT};
 845              		.loc 1 264 0
ARM GAS  C:\Users\EVGENY~1\AppData\Local\Temp\ccOuw7ka.s 			page 22


 846 000a 594B     		ldr	r3, .L113
 847 000c 53F8080F 		ldr	r0, [r3, #8]!	@ unaligned
 848              	.LVL54:
 849 0010 0490     		str	r0, [sp, #16]	@ unaligned
 850 0012 1B79     		ldrb	r3, [r3, #4]	@ zero_extendqisi2
 851 0014 8DF81430 		strb	r3, [sp, #20]
 852              	.LVL55:
 853              	.L106:
 854              	.LBB2:
 265:ZumoLibrary/simulator.c ****     uint32_t delay;
 266:ZumoLibrary/simulator.c ****     char sdata[8];
 267:ZumoLibrary/simulator.c ****     int pos = 0;
 268:ZumoLibrary/simulator.c ****     TickType_t wait_time = RUN_TIMEOUT;
 269:ZumoLibrary/simulator.c **** 
 270:ZumoLibrary/simulator.c ****     while(1) {
 271:ZumoLibrary/simulator.c ****         // reduce communication interval if speed is zero or motors are stopped
 272:ZumoLibrary/simulator.c ****         if((sd.ls == 0 && sd.rs == 0) || !motor_started) {
 855              		.loc 1 272 0
 856 0018 BDF81A30 		ldrh	r3, [sp, #26]
 857 001c 23B1     		cbz	r3, .L107
 858              		.loc 1 272 0 is_stmt 0 discriminator 1
 859 001e 554B     		ldr	r3, .L113+4
 860 0020 9B68     		ldr	r3, [r3, #8]
 861 0022 1BB9     		cbnz	r3, .L108
 273:ZumoLibrary/simulator.c ****             wait_time = STOP_TIMEOUT;
 862              		.loc 1 273 0 is_stmt 1
 863 0024 1922     		movs	r2, #25
 864 0026 02E0     		b	.L92
 865              	.L107:
 866 0028 1922     		movs	r2, #25
 867 002a 00E0     		b	.L92
 868              	.L108:
 274:ZumoLibrary/simulator.c ****         }
 275:ZumoLibrary/simulator.c ****         else {
 276:ZumoLibrary/simulator.c ****             wait_time = RUN_TIMEOUT;
 869              		.loc 1 276 0
 870 002c 0522     		movs	r2, #5
 871              	.L92:
 872              	.LVL56:
 277:ZumoLibrary/simulator.c ****         }
 278:ZumoLibrary/simulator.c ****         if(xQueueReceive(motor_q, &sd, wait_time) == pdTRUE) {
 873              		.loc 1 278 0
 874 002e 06A9     		add	r1, sp, #24
 875 0030 504B     		ldr	r3, .L113+4
 876 0032 5868     		ldr	r0, [r3, #4]
 877 0034 FFF7FEFF 		bl	xQueueReceive
 878              	.LVL57:
 879 0038 0128     		cmp	r0, #1
 880 003a 01D1     		bne	.L109
 279:ZumoLibrary/simulator.c ****             // motor speed data was updated get speed from the updated data
 280:ZumoLibrary/simulator.c ****             delay = sd.delay;
 881              		.loc 1 280 0
 882 003c 079D     		ldr	r5, [sp, #28]
 883              	.LVL58:
 884 003e 00E0     		b	.L93
 885              	.LVL59:
 886              	.L109:
ARM GAS  C:\Users\EVGENY~1\AppData\Local\Temp\ccOuw7ka.s 			page 23


 281:ZumoLibrary/simulator.c ****         }
 282:ZumoLibrary/simulator.c ****         else {
 283:ZumoLibrary/simulator.c ****             // no new speed data was received
 284:ZumoLibrary/simulator.c ****             // set new delay, use old motor data
 285:ZumoLibrary/simulator.c ****             delay = RUN_TIMEOUT;
 887              		.loc 1 285 0
 888 0040 0525     		movs	r5, #5
 889              	.L93:
 890              	.LVL60:
 286:ZumoLibrary/simulator.c ****         }
 287:ZumoLibrary/simulator.c ****         if(motor_started) {
 891              		.loc 1 287 0
 892 0042 4C4B     		ldr	r3, .L113+4
 893 0044 9B68     		ldr	r3, [r3, #8]
 894 0046 CBB1     		cbz	r3, .L94
 288:ZumoLibrary/simulator.c ****             // motors are running take speed from current settings
 289:ZumoLibrary/simulator.c ****             data[0] = (sd.ld ? 0x01 : 0x0) | (sd.rd ? 0x02 : 0x0 );
 895              		.loc 1 289 0
 896 0048 9DF81830 		ldrb	r3, [sp, #24]	@ zero_extendqisi2
 897 004c 0033     		adds	r3, r3, #0
 898 004e 18BF     		it	ne
 899 0050 0123     		movne	r3, #1
 900 0052 9DF81920 		ldrb	r2, [sp, #25]	@ zero_extendqisi2
 901 0056 0AB1     		cbz	r2, .L110
 902 0058 0222     		movs	r2, #2
 903 005a 00E0     		b	.L95
 904              	.L110:
 905 005c 0022     		movs	r2, #0
 906              	.L95:
 907              		.loc 1 289 0 is_stmt 0 discriminator 4
 908 005e 1343     		orrs	r3, r3, r2
 909 0060 8DF81030 		strb	r3, [sp, #16]
 290:ZumoLibrary/simulator.c ****             data[1] = ~data[0];
 910              		.loc 1 290 0 is_stmt 1 discriminator 4
 911 0064 DB43     		mvns	r3, r3
 912 0066 8DF81130 		strb	r3, [sp, #17]
 291:ZumoLibrary/simulator.c ****             data[2] = sd.ls;
 913              		.loc 1 291 0 discriminator 4
 914 006a 9DF81A30 		ldrb	r3, [sp, #26]	@ zero_extendqisi2
 915 006e 8DF81230 		strb	r3, [sp, #18]
 292:ZumoLibrary/simulator.c ****             data[3] = sd.rs;
 916              		.loc 1 292 0 discriminator 4
 917 0072 9DF81B30 		ldrb	r3, [sp, #27]	@ zero_extendqisi2
 918 0076 8DF81330 		strb	r3, [sp, #19]
 919 007a 04E0     		b	.L96
 920              	.L94:
 293:ZumoLibrary/simulator.c ****         }
 294:ZumoLibrary/simulator.c ****         else {
 295:ZumoLibrary/simulator.c ****             // if motors haven't been started force speed to zero
 296:ZumoLibrary/simulator.c ****             data[2] = 0;
 921              		.loc 1 296 0
 922 007c 0023     		movs	r3, #0
 923 007e 8DF81230 		strb	r3, [sp, #18]
 297:ZumoLibrary/simulator.c ****             data[3] = 0;
 924              		.loc 1 297 0
 925 0082 8DF81330 		strb	r3, [sp, #19]
 926              	.L96:
ARM GAS  C:\Users\EVGENY~1\AppData\Local\Temp\ccOuw7ka.s 			page 24


 298:ZumoLibrary/simulator.c ****         }
 299:ZumoLibrary/simulator.c ****         
 300:ZumoLibrary/simulator.c ****         TickType_t LastWakeTime = xTaskGetTickCount();
 927              		.loc 1 300 0
 928 0086 FFF7FEFF 		bl	xTaskGetTickCount
 929              	.LVL61:
 930 008a 0190     		str	r0, [sp, #4]
 301:ZumoLibrary/simulator.c ****         while(delay > 0) {
 931              		.loc 1 301 0
 932 008c 6CE0     		b	.L97
 933              	.L105:
 934              	.LBB3:
 302:ZumoLibrary/simulator.c ****             uint32_t ms = (delay > 60) ? 50 : delay;
 935              		.loc 1 302 0
 936 008e 3C2D     		cmp	r5, #60
 937 0090 01D9     		bls	.L111
 938 0092 3226     		movs	r6, #50
 939 0094 00E0     		b	.L98
 940              	.L111:
 941 0096 2E46     		mov	r6, r5
 942              	.L98:
 943              	.LVL62:
 303:ZumoLibrary/simulator.c ****             delay -= ms;
 944              		.loc 1 303 0 discriminator 4
 945 0098 AD1B     		subs	r5, r5, r6
 946              	.LVL63:
 304:ZumoLibrary/simulator.c ****             data[4] = ms;
 947              		.loc 1 304 0 discriminator 4
 948 009a 8DF81460 		strb	r6, [sp, #20]
 305:ZumoLibrary/simulator.c ****             send(data, 5);
 949              		.loc 1 305 0 discriminator 4
 950 009e 0521     		movs	r1, #5
 951 00a0 04A8     		add	r0, sp, #16
 952 00a2 FFF7FEFF 		bl	send
 953              	.LVL64:
 306:ZumoLibrary/simulator.c ****             pos = 0;
 954              		.loc 1 306 0 discriminator 4
 955 00a6 0024     		movs	r4, #0
 307:ZumoLibrary/simulator.c ****             while(pos < 8 && xSerial1GetChar(sdata+pos, 100)) {
 956              		.loc 1 307 0 discriminator 4
 957 00a8 04E0     		b	.L99
 958              	.LVL65:
 959              	.L102:
 308:ZumoLibrary/simulator.c ****                 if(sdata[0] < 32) {
 960              		.loc 1 308 0
 961 00aa 9DF80830 		ldrb	r3, [sp, #8]	@ zero_extendqisi2
 962 00ae 1F2B     		cmp	r3, #31
 963 00b0 00D8     		bhi	.L99
 309:ZumoLibrary/simulator.c ****                     ++pos;
 964              		.loc 1 309 0
 965 00b2 0134     		adds	r4, r4, #1
 966              	.LVL66:
 967              	.L99:
 307:ZumoLibrary/simulator.c ****             while(pos < 8 && xSerial1GetChar(sdata+pos, 100)) {
 968              		.loc 1 307 0
 969 00b4 072C     		cmp	r4, #7
 970 00b6 06DC     		bgt	.L101
ARM GAS  C:\Users\EVGENY~1\AppData\Local\Temp\ccOuw7ka.s 			page 25


 307:ZumoLibrary/simulator.c ****             while(pos < 8 && xSerial1GetChar(sdata+pos, 100)) {
 971              		.loc 1 307 0 is_stmt 0 discriminator 1
 972 00b8 6421     		movs	r1, #100
 973 00ba 02AB     		add	r3, sp, #8
 974 00bc 1819     		adds	r0, r3, r4
 975 00be FFF7FEFF 		bl	xSerial1GetChar
 976              	.LVL67:
 977 00c2 0028     		cmp	r0, #0
 978 00c4 F1D1     		bne	.L102
 979              	.L101:
 310:ZumoLibrary/simulator.c ****                 }
 311:ZumoLibrary/simulator.c ****             }
 312:ZumoLibrary/simulator.c ****             if(pos == 8 ) {
 980              		.loc 1 312 0 is_stmt 1
 981 00c6 082C     		cmp	r4, #8
 982 00c8 4AD1     		bne	.L103
 313:ZumoLibrary/simulator.c ****                 ir_value += sdata[0] & 0x01;
 983              		.loc 1 313 0
 984 00ca 9DF80820 		ldrb	r2, [sp, #8]	@ zero_extendqisi2
 985 00ce 02F00101 		and	r1, r2, #1
 986 00d2 284B     		ldr	r3, .L113+4
 987 00d4 9A6A     		ldr	r2, [r3, #40]
 988 00d6 0A44     		add	r2, r2, r1
 989 00d8 9A62     		str	r2, [r3, #40]
 314:ZumoLibrary/simulator.c ****                 if(ultra_started) {
 990              		.loc 1 314 0
 991 00da DB69     		ldr	r3, [r3, #28]
 992 00dc 2BB1     		cbz	r3, .L104
 315:ZumoLibrary/simulator.c ****                     distance = sdata[1] & 0x7f;
 993              		.loc 1 315 0
 994 00de 9DF80930 		ldrb	r3, [sp, #9]	@ zero_extendqisi2
 995 00e2 03F07F03 		and	r3, r3, #127
 996 00e6 234A     		ldr	r2, .L113+4
 997 00e8 1362     		str	r3, [r2, #32]
 998              	.L104:
 316:ZumoLibrary/simulator.c ****                 }
 317:ZumoLibrary/simulator.c ****                 if(reflectance_started) {
 999              		.loc 1 317 0
 1000 00ea 224B     		ldr	r3, .L113+4
 1001 00ec DB68     		ldr	r3, [r3, #12]
 1002 00ee 002B     		cmp	r3, #0
 1003 00f0 36D0     		beq	.L103
 318:ZumoLibrary/simulator.c ****                     sensors.L3 = sdata[2] * 100;
 1004              		.loc 1 318 0
 1005 00f2 9DF80A30 		ldrb	r3, [sp, #10]	@ zero_extendqisi2
 1006 00f6 03EB8303 		add	r3, r3, r3, lsl #2
 1007 00fa 03EB8303 		add	r3, r3, r3, lsl #2
 1008 00fe 9A00     		lsls	r2, r3, #2
 1009 0100 93B2     		uxth	r3, r2
 1010 0102 1C4A     		ldr	r2, .L113+4
 1011 0104 1382     		strh	r3, [r2, #16]	@ movhi
 319:ZumoLibrary/simulator.c ****                     sensors.L2 = sdata[3] * 100;
 1012              		.loc 1 319 0
 1013 0106 9DF80B30 		ldrb	r3, [sp, #11]	@ zero_extendqisi2
 1014 010a 03EB8303 		add	r3, r3, r3, lsl #2
 1015 010e 03EB8303 		add	r3, r3, r3, lsl #2
 1016 0112 9900     		lsls	r1, r3, #2
ARM GAS  C:\Users\EVGENY~1\AppData\Local\Temp\ccOuw7ka.s 			page 26


 1017 0114 89B2     		uxth	r1, r1
 1018 0116 5182     		strh	r1, [r2, #18]	@ movhi
 320:ZumoLibrary/simulator.c ****                     sensors.L1 = sdata[4] * 100;
 1019              		.loc 1 320 0
 1020 0118 9DF80C30 		ldrb	r3, [sp, #12]	@ zero_extendqisi2
 1021 011c 03EB8303 		add	r3, r3, r3, lsl #2
 1022 0120 03EB8303 		add	r3, r3, r3, lsl #2
 1023 0124 9900     		lsls	r1, r3, #2
 1024 0126 89B2     		uxth	r1, r1
 1025 0128 9182     		strh	r1, [r2, #20]	@ movhi
 321:ZumoLibrary/simulator.c ****                     sensors.R1 = sdata[5] * 100;
 1026              		.loc 1 321 0
 1027 012a 9DF80D30 		ldrb	r3, [sp, #13]	@ zero_extendqisi2
 1028 012e 03EB8303 		add	r3, r3, r3, lsl #2
 1029 0132 03EB8303 		add	r3, r3, r3, lsl #2
 1030 0136 9900     		lsls	r1, r3, #2
 1031 0138 89B2     		uxth	r1, r1
 1032 013a D182     		strh	r1, [r2, #22]	@ movhi
 322:ZumoLibrary/simulator.c ****                     sensors.R2 = sdata[6] * 100;
 1033              		.loc 1 322 0
 1034 013c 9DF80E30 		ldrb	r3, [sp, #14]	@ zero_extendqisi2
 1035 0140 03EB8303 		add	r3, r3, r3, lsl #2
 1036 0144 03EB8303 		add	r3, r3, r3, lsl #2
 1037 0148 9900     		lsls	r1, r3, #2
 1038 014a 89B2     		uxth	r1, r1
 1039 014c 1183     		strh	r1, [r2, #24]	@ movhi
 323:ZumoLibrary/simulator.c ****                     sensors.R3 = sdata[7] * 100;
 1040              		.loc 1 323 0
 1041 014e 9DF80F30 		ldrb	r3, [sp, #15]	@ zero_extendqisi2
 1042 0152 03EB8303 		add	r3, r3, r3, lsl #2
 1043 0156 03EB8303 		add	r3, r3, r3, lsl #2
 1044 015a 9900     		lsls	r1, r3, #2
 1045 015c 89B2     		uxth	r1, r1
 1046 015e 5183     		strh	r1, [r2, #26]	@ movhi
 1047              	.L103:
 324:ZumoLibrary/simulator.c ****                 }
 325:ZumoLibrary/simulator.c ****             }
 326:ZumoLibrary/simulator.c ****             vTaskDelayUntil( &LastWakeTime, ms );
 1048              		.loc 1 326 0
 1049 0160 3146     		mov	r1, r6
 1050 0162 01A8     		add	r0, sp, #4
 1051 0164 FFF7FEFF 		bl	vTaskDelayUntil
 1052              	.LVL68:
 1053              	.L97:
 1054              	.LBE3:
 301:ZumoLibrary/simulator.c ****             uint32_t ms = (delay > 60) ? 50 : delay;
 1055              		.loc 1 301 0
 1056 0168 002D     		cmp	r5, #0
 1057 016a 90D1     		bne	.L105
 1058 016c 54E7     		b	.L106
 1059              	.L114:
 1060 016e 00BF     		.align	2
 1061              	.L113:
 1062 0170 00000000 		.word	.LANCHOR1
 1063 0174 00000000 		.word	.LANCHOR0
 1064              	.LBE2:
 1065              		.cfi_endproc
ARM GAS  C:\Users\EVGENY~1\AppData\Local\Temp\ccOuw7ka.s 			page 27


 1066              	.LFE86:
 1067              		.size	SimulatorTask, .-SimulatorTask
 1068              		.section	.rodata
 1069              		.align	2
 1070              		.set	.LANCHOR1,. + 0
 1071              		.type	stopped, %object
 1072              		.size	stopped, 5
 1073              	stopped:
 1074 0000 00       		.byte	0
 1075 0001 FF       		.byte	-1
 1076 0002 00       		.byte	0
 1077 0003 00       		.byte	0
 1078 0004 05       		.byte	5
 1079 0005 000000   		.space	3
 1080              	.LC0:
 1081 0008 00       		.byte	0
 1082 0009 FF       		.byte	-1
 1083 000a 00       		.byte	0
 1084 000b 00       		.byte	0
 1085 000c 05       		.byte	5
 1086              		.data
 1087              		.align	2
 1088              		.set	.LANCHOR2,. + 0
 1089              		.type	threshold, %object
 1090              		.size	threshold, 12
 1091              	threshold:
 1092 0000 1027     		.short	10000
 1093 0002 1027     		.short	10000
 1094 0004 1027     		.short	10000
 1095 0006 1027     		.short	10000
 1096 0008 1027     		.short	10000
 1097 000a 1027     		.short	10000
 1098              		.section	.rodata.str1.4,"aMS",%progbits,1
 1099              		.align	2
 1100              	.LC1:
 1101 0000 596F7520 		.ascii	"You haven't started motors\000"
 1101      68617665 
 1101      6E277420 
 1101      73746172 
 1101      74656420 
 1102 001b 00       		.space	1
 1103              	.LC2:
 1104 001c 596F7520 		.ascii	"You haven't started reflectance sensor\000"
 1104      68617665 
 1104      6E277420 
 1104      73746172 
 1104      74656420 
 1105 0043 00       		.space	1
 1106              	.LC3:
 1107 0044 596F7520 		.ascii	"You haven't started ultrasonic sensor\000"
 1107      68617665 
 1107      6E277420 
 1107      73746172 
 1107      74656420 
 1108 006a 0000     		.space	2
 1109              	.LC4:
 1110 006c 596F7520 		.ascii	"You haven't started IR sensor\000"
ARM GAS  C:\Users\EVGENY~1\AppData\Local\Temp\ccOuw7ka.s 			page 28


 1110      68617665 
 1110      6E277420 
 1110      73746172 
 1110      74656420 
 1111              		.bss
 1112              		.align	2
 1113              		.set	.LANCHOR0,. + 0
 1114              		.type	writeMutex, %object
 1115              		.size	writeMutex, 4
 1116              	writeMutex:
 1117 0000 00000000 		.space	4
 1118              		.type	motor_q, %object
 1119              		.size	motor_q, 4
 1120              	motor_q:
 1121 0004 00000000 		.space	4
 1122              		.type	motor_started, %object
 1123              		.size	motor_started, 4
 1124              	motor_started:
 1125 0008 00000000 		.space	4
 1126              		.type	reflectance_started, %object
 1127              		.size	reflectance_started, 4
 1128              	reflectance_started:
 1129 000c 00000000 		.space	4
 1130              		.type	sensors, %object
 1131              		.size	sensors, 12
 1132              	sensors:
 1133 0010 00000000 		.space	12
 1133      00000000 
 1133      00000000 
 1134              		.type	ultra_started, %object
 1135              		.size	ultra_started, 4
 1136              	ultra_started:
 1137 001c 00000000 		.space	4
 1138              		.type	distance, %object
 1139              		.size	distance, 4
 1140              	distance:
 1141 0020 00000000 		.space	4
 1142              		.type	ir_started, %object
 1143              		.size	ir_started, 4
 1144              	ir_started:
 1145 0024 00000000 		.space	4
 1146              		.type	ir_value, %object
 1147              		.size	ir_value, 4
 1148              	ir_value:
 1149 0028 00000000 		.space	4
 1150              		.text
 1151              	.Letext0:
 1152              		.file 2 "c:\\program files (x86)\\cypress\\psoc creator\\4.2\\psoc creator\\import\\gnu\\arm\\5.4.
 1153              		.file 3 "c:\\program files (x86)\\cypress\\psoc creator\\4.2\\psoc creator\\import\\gnu\\arm\\5.4.
 1154              		.file 4 "Generated_Source\\PSoC5/cytypes.h"
 1155              		.file 5 "..\\FreeRTOS\\Source\\portable\\GCC\\ARM_CM3/portmacro.h"
 1156              		.file 6 "..\\FreeRTOS\\Source\\include/queue.h"
 1157              		.file 7 "..\\FreeRTOS\\Source\\include/semphr.h"
 1158              		.file 8 "ZumoLibrary\\simulator.h"
 1159              		.file 9 "ZumoLibrary\\Reflectance.h"
 1160              		.file 10 "ZumoLibrary\\serial1.h"
 1161              		.file 11 "..\\FreeRTOS\\Source\\include/task.h"
ARM GAS  C:\Users\EVGENY~1\AppData\Local\Temp\ccOuw7ka.s 			page 29


 1162              		.file 12 "Generated_Source\\PSoC5/core_cm3.h"
 1163              		.file 13 "<built-in>"